Bd:_glClearStencil
XXf:_Array_InternalArray__ICollection_Add_TisMark_t2724874473_m1613484179_gshared
h6c:__ZN10SizeModule8TransferI18StreamedBinaryReadILb1EEEEvRT_
Zwd:__ZN5physx2Gu19gjkLocalPenetrationINS0_8CapsuleVENS0_17ShrunkConvexHullVEEEjRKT_RKT0_RKNS_6shdfnd3aos6FloatVERNSB_5Vec3VESG_SG_RSC_PhSI_Rhb
iTi:__ZL80Graphic_t2426225576_CustomAttributesCacheGenerator_Graphic_OnFillVBO_m1723985607P21CustomAttributesCache
_mj:_RuntimeTypeHandle_GetObjectData_m3567098501
Vgc:__ZN12ShaderErrors21AddShaderCompileErrorERKNSt3__212basic_stringIcNS0_11char_traitsIcEENS0_9allocatorIcEEEEib
Cxb:__ZN18StreamedBinaryReadILb1EE21TransferSTLStyleArrayIN4core12basic_stringIcNS2_20StringStorageDefaultIcEEEEEEvRT_17TransferMetaFlags
sTm:__ZN6il2cpp2vm5Array13GetByteLengthEP11Il2CppArray
CLl:_Raycast3DCallback_BeginInvoke_m3028685017
kvi:__ZL61IRemotingFormatter_t4112065742_CustomAttributesCacheGeneratorP21CustomAttributesCache
A$l:_TextGenerator_get_lineCount_m4287181941
Q3i:__ZL69Advanced_t2889439100_CustomAttributesCacheGenerator_spinoutSlipEffectP21CustomAttributesCache
apm:__ZN14dense_hash_mapI10KeyWrapperINSt3__212basic_stringIcNS1_11char_traitsIcEENS1_9allocatorIcEEEEEP11Il2CppClassN6il2cpp5utils11StringUtils12StringHasherIS7_EENS1_8equal_toIS8_EENS5_INS1_4pairIKS8_SA_EEEEE15set_deleted_keyERSJ_
Njh:_Comparison_1_Invoke_m353639462_gshared
V0k:_UInt64_System_IConvertible_ToDecimal_m4205696037
u5m:_mbrlen
_9c:__Z19UpdateProceduralTplILb0EEvRK22DualMinMax3DPolyCurvesS2_R23ParticleSystemParticlesRKN4math8float3x3Eb
uQ:__ZN10StateRange8TransferI14SafeBinaryReadEEvRT_
zSa:__Z21SourceMipLevelForBlitiiii
TAb:__ZN31CanvasBatchIntermediateRenderer15AddAsRenderNodeER15RenderNodeQueueRK20DeprecatedSourceData
pPj:_GenericTypeParameterBuilder_GetEvent_m4210567427
$kh:__ZN16VirtFuncInvoker0IP17Camera_t189460977E6InvokeEjPv
Nyg:_Enumerator_get_Key_m2908810861
UKk:__Z55RuntimeInvoker_ILTokenInfo_t149559338_Int32_t2071877448PK10MethodInfoPvPS2_
mtf:__ZN11UnityEngine7Connect14AppUpdateEventD0Ev
Oil:_AnimationCurve_GetKeys_m2987996186
dpe:__ZNK5physx2Sc5Scene24getContactModifyCallbackEv
lfn:__ZdlPv
ARi:__ZL77StandaloneInputModule_t70867863_CustomAttributesCacheGenerator_m_VerticalAxisP21CustomAttributesCache
DT:__ZN11UnityEngine9Animation28GenericAnimationBindingCacheD2Ev
jse:__ZN5physx2Sq10AABBPruner10addObjectsEPjPKNS_9PxBounds3EPKNS0_13PrunerPayloadEj
rvi:__ZL68RemotingSurrogateSelector_t2821375126_CustomAttributesCacheGeneratorP21CustomAttributesCache
GA:__ZN15AnimationBinder13SetFloatValueERK20BoundCurveDeprecatedf
KRg:_List_1_System_Collections_IList_IndexOf_m39706221_gshared
qBg:_Decimal_op_Implicit_m2971610317
uc:invoke_viiiifiiiiif
Wib:__Z18RestoreRenderStateR20CameraRenderOldStateR17ShaderPassContext
uug:_SynchronizedArrayListWrapper_get_Item_m3309425850
C9b:__Z18Transfer_BlittableI18StreamedBinaryReadILb1EELb1E5RectTIfEEvRK29SerializationCommandArgumentsR31RuntimeSerializationCommandInfo
B3b:__Z18Transfer_BlittableI24GenerateTypeTreeTransferLb0E11ColorRGBA32EvRK29SerializationCommandArgumentsR31RuntimeSerializationCommandInfo
oFi:__ZL64CipherSuiteCollection_t2431504453_CustomAttributesCacheGeneratorP21CustomAttributesCache
oD:__ZNSt3__26vectorIN13AnimationClip10FloatCurveE13stl_allocatorIS2_L18MemLabelIdentifier25ELi16EEE6resizeEj
XOc:__Z21Object_CUSTOM_DestroyP12Il2CppObjectf
wHd:__ZN5physx6shdfnd8PoolBaseINS_2Sc10NPhaseCore16ClothListElementENS0_19ReflectionAllocatorIS4_EEE17releaseEmptySlabsEv
Cwh:_GraphicRaycaster_get_ignoreReversedGraphics_m2757724367
ypn:_emscripten_glDeleteBuffers__wrapper
zgi:_TlsServerCertificateRequest_ProcessAsSsl3_m3017921864
Npl:_Collision_t2876846408_marshal_pinvoke_back
gLe:__ZN5physx2Sc14ConstraintCore10breakApartEv
aQj:_GenericTypeParameterBuilder_GetHashCode_m867619899
OJk:__Z79RuntimeInvoker_Void_t1841601450_Int32_t2071877448_ParameterModifier_t1820634920PK10MethodInfoPvPS2_
RVm:__ZNSt3__26__treeINS_12basic_stringIcNS_11char_traitsIcEENS_9allocatorIcEEEENS_4lessIS6_EENS4_IS6_EEE16__construct_nodeIJRKS6_EEENS_10unique_ptrINS_11__tree_nodeIS6_PvEENS_22__tree_node_destructorINS4_ISH_EEEEEEDpOT_
A0e:__Z13RegisterClassI15CapsuleColliderEvv
afk:_EqualityComparer_1__cctor_m3397254040_gshared
V9m:__ZNKSt3__220__time_get_c_storageIcE3__XEv
WU:__ZN18StreamedBinaryReadILb0EE21TransferSTLStyleArrayI22OffsetPtrArrayTransferIN4math8ColliderEEEEvRT_17TransferMetaFlags
jvk:__Z37RuntimeInvoker_ContentType_t859870085PK10MethodInfoPvPS2_
WRe:__ZN5physx7Cooking20loadTriangleMeshDescERKNS_18PxTriangleMeshDescERNS_19TriangleMeshBuilderE
s5h:__ZThn4_N6il2cpp2vm13ComObjectBaseI34__Il2CppComDelegate_t3311706788CCW18Il2CppIInspectableNS0_7details6ComNilES5_S5_S5_S5_S5_S5_E14QueryInterfaceERK10Il2CppGuidPPv
u$l:_TextGenerator_get_verts_m3124035267
VUh:_MonoType_CheckMethodSecurity_m4116906190
zKd:__ZN5physx9NpFactory21releaseConnectorArrayEPNS_16NpConnectorArrayE
bHc:__Z35Register_UnityEngine_Light_get_typev
D2l:_Vector2_get_one_m3174311904
E7:__ZNSt3__26__treeINS_12__value_typeIN19CloudServiceHandler11ServiceTypeEPS2_EENS_19__map_value_compareIS3_S5_NS_4lessIS3_EELb1EEE13stl_allocatorIS5_L18MemLabelIdentifier85ELi16EEE7destroyEPNS_11__tree_nodeIS5_PvEE
kve:__ZNK5physx2Gu29EPASupportMapPairRelativeImplINS0_9TriangleVENS0_4BoxVEE6getDirEv
E1f:_Array_Sort_TisVector2_t2243707579_m1307634946_gshared
yra:__ZN13RuntimeStaticI18BackgroundJobQueueE13StaticDestroyEPv
_Fk:__Z37RuntimeInvoker_Enumerator_t1593300101PK10MethodInfoPvPS2_
DIa:__ZN17PersistentManager22CheckInstanceIDsLoadedEPii
IQa:__ZN7ApiGLES17CopyBufferSubDataEjjlll
Xuf:__ZN11UnityEngine15PlatformWrapper17GetCloudProjectIdEv
BYj:_NoiseEffect_OnDisable_m3450905665
P_l:_TextGenerationSettings_CompareColors_m991725620
hJ:__ZN7mecanim5human19MaskHasLeftFootGoalERKNS_6bitsetILj66EEE
Mnm:__ZNSt3__26vectorIPK10Il2CppTypeNS_9allocatorIS3_EEE7reserveEj
gfm:_U3CCreateWhereIteratorU3Ec__Iterator1D_1_Reset_m1773515612_gshared
Egk:_EqualityComparer_1_get_Default_m2134906921_gshared
kAh:_InputField_get_caretPosition_m1005871812
g6m:_wmemmove
STl:_DeriveBytes_set_HashName_m2530261318
d9j:_Dictionary_2__ctor_m3111963761_gshared
G5:__ZN11AudioModule26SetDefaultMicrophoneDriverEPv
Q7d:__ZNK5physx15NpActorTemplateINS_15PxParticleFluidEE22getClientBehaviorFlagsEv
p5l:_AesManaged_CreateEncryptor_m1729287824
XLb:__ZNK14Texture2DArray26CanReuploadDataToGfxDeviceEv
Kgb:__ZN17PrePassRenderLoop14RenderBasePassEP13RenderTextureRK14LightingLayersR13dynamic_arrayI16RenderObjectDataLj4EERbR10MinMaxAABB
hUk:_AeroplaneControlSurfaceAnimator_Update_m3986051040
rwb:__ZN17GlobalGameManager23VirtualRedirectTransferER17RemapPPtrTransfer
fdf:_sfnt_stream_close
Fvh:_GraphicRegistry_RegisterGraphicForCanvas_m2284226562
ojk:__Z67RuntimeInvoker_Void_t1841601450_Int32_t2071877448_Int16_t4041245914PK10MethodInfoPvPS2_
qrg:_Char_System_IConvertible_ToInt16_m2741348777_AdjustorThunk
BPk:_SepiaToneEffect_OnRenderImage_m1466324217
Bjm:__ZL25UnresolvedVirtualCall_129P12Il2CppObject17Color_t2020392075PK10MethodInfo
q8c:__ZN11ShapeModule8TransferI19StreamedBinaryWriteILb0EEEEvRT_
S9m:__ZNKSt3__220__time_get_c_storageIcE3__cEv
avh:_FontData_get_verticalOverflow_m83665814
Ach:_ReadOnlyCollection_1_System_Collections_Generic_IListU3CTU3E_set_Item_m1547026160_gshared
i2i:__ZL107AeroplaneController_t967620215_CustomAttributesCacheGenerator_AeroplaneController_get_AirBrakes_m3182400773P21CustomAttributesCache
Ioi:__ZL61MarshalAsAttribute_t2900773360_CustomAttributesCacheGeneratorP21CustomAttributesCache
lLi:__ZL98Physics_t634932869_CustomAttributesCacheGenerator_Physics_CapsuleCastAll_m3327772496____layermask5P21CustomAttributesCache
Acm:_EqualityComparer_1_System_Collections_IEqualityComparer_Equals_m1302319107_gshared
_ta:__ZN7Texture13SetFilterModeEi
N1b:__Z33BuildSerializationCommandQueueForI19StreamedBinaryWriteILb0EEEvRK34BuildSerializationCommandQueueArgsR32SerializationCommandQueueBuilderRP20AllowNameConversionsbPK18TransferField_Info
isg:_Char_ToUpper_m109978609
UUm:__ZN6il2cpp8metadata13GenericMethod9GetMethodEPK19Il2CppGenericMethod
vxb:__ZNSt3__26vectorIN4core12basic_stringIcNS1_20StringStorageDefaultIcEEEENS_9allocatorIS5_EEE7reserveEj
MDg:_Convert_ToUInt16_m2130758075
daj:_X509BasicConstraintsExtension_Encode_m3505127076
yLb:__ZN24GenerateTypeTreeTransfer8TransferI13dynamic_arrayI12SpriteVertexLj4EEEEvRT_PKc17TransferMetaFlags
yLa:__ZN13GfxDeviceGLES11SetViewportERK5RectTIiE
nyh:_Image_get_pixelsPerUnit_m4104195799
fSl:_Toggle_InternalToggle_m2323729210
GHg:_Decimal_System_IConvertible_ToInt64_m2504363272
vNc:__Z24Time_Get_Custom_PropTimev
jc:invoke_vifiiii
umg:_Array_GetValue_m3182152438
Ue:_emscripten_glDepthRange
_oj:_DESTransform_CipherFunct_m3559419566
GGk:__Z91RuntimeInvoker_Boolean_t3825574718_TouchScreenKeyboardTypeU26_t2194866306_Int32_t2071877448PK10MethodInfoPvPS2_
Xrd:__ZN5physx2Gu24contactConvexHeightfieldERKNS0_13GeometryUnionES3_RKNS_11PxTransformES6_RKfRNS0_5CacheERNS0_13ContactBufferE
aMd:__ZN5physx6shdfnd5ArrayIPvNS0_19ReflectionAllocatorINS_2Cm5BlockIS2_Lj8EEEEEE15growAndPushBackERKS2_
Coh:_StandaloneInputModule_get_repeatDelay_m3025279
ruj:_GUILayoutGroup_CalcWidth_m4107152934
Bmj:_RuntimeFieldHandle_get_Value_m3963757144
Lcc:__Z14resize_trimmedINSt3__26vectorIN9ShaderLab20SerializedSubProgram12UAVParameterENS0_9allocatorIS4_EEEEEvRT_j
Bhj:_SerializationInfo_AddValue_m1781549036
Bdi:_TlsServerKeyExchange_verifySignature_m3641534563
lNf:__ZN5physx2Sn21RepXVisitorReaderBaseINS_21PxVehicleDriveSimDataEE15complexPropertyINS_22PxRepXPropertyAccessorILj665ES2_RKNS_19PxVehicleClutchDataES6_EEKNS_32PxVehicleClutchDataGeneratedInfoEEEvPjRKT_RT0_
E8g:_Collection_1_Clear_m445145071_gshared
tQl:_Slider_FindSelectableOnLeft_m3136767885
Blk:__Z75RuntimeInvoker_Void_t1841601450_Il2CppObject_RuntimeFieldHandle_t2331729674PK10MethodInfoPvPS2_
ZRa:__ZN4crndL20crnd_default_reallocEPvjPjbS0_
EUf:_Array_BinarySearch_TisInt32_t2071877448_m51233948_gshared
Vvl:_Playable_GetOutputInternal_m1788163321
stc:__ZN7Texture11SetWrapModeEi
Ken:__ZNSt3__26locale5__imp7installINS_9money_putIwNS_19ostreambuf_iteratorIwNS_11char_traitsIwEEEEEEEEvPT_
mAe:__ZN5physx24PxsComputeAABBLocalSpaceERKNS_18PxcAABBDataDynamicERNS_9PxBounds3E
t8j:_ValueCollection_System_Collections_ICollection_CopyTo_m3262726594_gshared
icm:_WaterTile_AcquireComponents_m284337840
Rtc:__ZN16PackedQuatVector9PackQuatsEP11Quaternionfi
FBk:__Z115RuntimeInvoker_Void_t1841601450_Rect_t3681755626_Il2CppObject_Int32_t2071877448_Int32_t2071877448_Int32_t2071877448PK10MethodInfoPvPS2_
fMc:__Z33Texture_CUSTOM_Internal_GetHeightP12Il2CppObject
DCh:_LayoutGroup_get_preferredHeight_m3901163825
Paf:_UNITY_FT_Init_Class_ft_bitmap_glyph_class
ZE:__ZN7mecanim9animation18ClipMuscleConstant8TransferI24GenerateTypeTreeTransferEEvRT_
Pyb:__ZN4PPtrI13RenderTextureE8TransferI18StreamedBinaryReadILb0EEEEvRT_
_ym:__ZN15dense_hashtableINSt3__24pairIK10KeyWrapperINS1_IPK9FieldInfoP11Il2CppClassEEEjEES9_17ReflectionMapHashIS8_EN14dense_hash_mapIS9_jSD_19ReflectionMapEqualsIS8_ENS0_9allocatorISB_EEE9SelectKeyESG_SI_E15insert_noresizeERKSB_
aBg:_DateTime_AbsoluteDays_m3061694073
gHk:__Z56RuntimeInvoker_Boolean_t3825574718_LabelData_t3712112744PK10MethodInfoPvPS2_
ckf:_UNITY_FT_Stream_GetChar
W9b:__Z18Transfer_BlittableI18StreamedBinaryReadILb1EELb1EdEvRK29SerializationCommandArgumentsR31RuntimeSerializationCommandInfo
sw:__ZN15NavMeshSettings17MainThreadCleanupEv
q5j:_Enumerator_System_Collections_IEnumerator_get_Current_m229223308_gshared
KFi:__ZL202U3CCreateWhereIteratorU3Ec__Iterator1D_1_t2523986802_CustomAttributesCacheGenerator_U3CCreateWhereIteratorU3Ec__Iterator1D_1_System_Collections_Generic_IEnumerableU3CTSourceU3E_GetEnumerator_m2392330777P21CustomAttributesCache
Nse:__ZN5physx6shdfnd8internal8HashBaseINS0_4PairIKNS_2Sq13PrunerPayloadEjEES5_NS0_4HashIS5_EENS1_11HashMapBaseIS5_jS9_NS0_9AllocatorEE6GetKeyESB_Lb1EE5eraseERS6_
O9e:__ZNK19TextRenderingModule8TMGenGetERK11UTF16StringPN13TextRendering4FontE10TextAnchor13TextAlignmentfffbb11ColorRGBA32fii
FMe:__ZN5physx13GuMeshFactory16createConvexMeshERNS_13PxInputStreamE
$Ye:__ZN5physx6shdfnd8internal8HashBaseINS0_4PairIKPKcjEES5_NS0_4HashIS5_EENS1_11HashMapBaseIS5_jS9_NS_7profile26WrapperReflectionAllocatorIjEEE6GetKeyESD_Lb1EE6createERS6_Rb
Lti:__ZL55GCHandleType_t1970708122_CustomAttributesCacheGeneratorP21CustomAttributesCache
Xsl:_Event_Init_m3901382626
vvl:_AnimationPlayableUtilities_SetInputsValidated_m2696856860
Ztb:__ZN10FileSystem12MountHandlerEP17FileSystemHandler
dug:_FixedSizeArrayListWrapper_AddRange_m2071800418
csa:__Z9InitInputv
dTa:__ZN4gles10SetTextureER15DeviceStateGLESj16TextureDimensionj19BuiltinSamplerState
wQg:_Enumerator_VerifyState_m2358705882_AdjustorThunk
P4b:__Z29Transfer_Blittable_ArrayFieldI24GenerateTypeTreeTransfer11ColorRGBA32EvRT_R9ArrayInfoRK23StaticTransferFieldInfo
KJf:__ZN5physx18addTorqueCurvePairEPNS_19PxVehicleEngineDataEff
DMe:__ZNK5physx13GuMeshFactory15getConvexMeshesEPPNS_12PxConvexMeshEjj
CMl:_Selectable_Navigate_m915280351
f6h:_AppDomain_getCurDomain_m591611373
Tpb:__ZN16MemoryFileSystem6DeleteER13FileEntryDatab
T2l:_Vector3_get_normalized_m936072361
_Ga:__ZL21BlitScaleStbImageImplRK14ImageReferenceRS_NS_10ColorSpaceE
d$d:__ZN5physx10NpMaterial17setStaticFrictionEf
rki:_TlsStream_set_Position_m378064217
qS:__ZN18StreamedBinaryReadILb0EE21TransferSTLStyleArrayI13dynamic_arrayIjLj4EEEEvRT_17TransferMetaFlags
wmd:__ZNSt3__26__sortIR31RayHitsByInverseDepthComparitorP12RaycastHit2DEEvT0_S5_T_
Cje:__ZNK5physx7NpScene19getFilterShaderDataEv
m0b:__Z29Transfer_Blittable_ArrayFieldI14SafeBinaryReadyEvRT_R9ArrayInfoRK23StaticTransferFieldInfo
ljm:__ZL25UnresolvedVirtualCall_113P12Il2CppObjectiiiPK10MethodInfo
O2:__ZN20SoundChannelInstance15setChannelGroupEPN4FMOD12ChannelGroupE
kCf:__ZN5physx3Pvd17PvdPropertyFilterINS_2Sn17RepXVisitorReaderINS_22PxVehicleWheelsSimDataEEEE27handleExtendedIndexPropertyILj618ES4_NS_6PxVec3EKjNS_18PxUnknownClassInfoEEEvjRKNS_29PxExtendedIndexedPropertyInfoIXT_ET0_T2_T1_EERKT3_
fWd:__ZN5physx2Sc19ShapeInstancePairLL26onPoseChangedWhileSleepingEv
u9c:__ZN12LightsModule13AwakeFromLoadEP14ParticleSystemRK27ParticleSystemReadOnlyState
Qcg:_Evidence_Equals_m2325859915
uue:__ZN5physx22PxcSweepCapsuleCapsuleERKNS_11PxsCCDShapeES2_PKNS_12PxsRigidBodyES5_RKNS_11PxTransformES8_S8_S8_fRNS_6PxVec3ESA_RNS_10PxcNpCacheERNS_18PxcNpThreadContextEf
dyi:__ZL93WindowsIdentity_t373339331_CustomAttributesCacheGenerator_WindowsIdentity_Dispose_m2649088337P21CustomAttributesCache
gLj:_Default__ctor_m172834064
Kvf:__ZN22CrashReportingSettings8TransferI19StreamedBinaryWriteILb0EEEEvRT_
kd:invoke_vifffii
vXb:__ZN20ArchiveStorageReader17MakeStorageUnusedEv
jHl:_Regex_IsMatch_m2159202025
_Bd:__ZNK5physx3Cct17CapsuleController21getHalfHeightInternalEv
p0a:__ZNK25MultiBlocksMemoryFileData5CloneEv
Vsc:__ZN11MatrixStack3PopEv
sZm:_GC_add_ext_descriptor
jBd:__ZN5physx21PxQueryFilterCallbackD2Ev
JIi:__ZL95Material_t193706927_CustomAttributesCacheGenerator_Material_GetTag_m3319424960____defaultValue2P21CustomAttributesCache
Fyh:_Image_CalculateLayoutInputHorizontal_m3275149860
Vij:_RemotingServices_GetMethodBaseFromName_m3271095947
MGf:__ZNK5physx30PxVehicleTireDataGeneratedInfo23visitInstancePropertiesINS_18RepXPropertyFilterINS_2Sn17RepXVisitorWriterINS_17PxVehicleTireDataEEEEEEEjT_j
xU:__ZN7mecanim9animation14AvatarConstant8TransferI18StreamedBinaryReadILb1EEEEvRT_
_sk:__Z71RuntimeInvoker_TimeSpan_t3430258949_Double_t4078015681_Int64_t909078037PK10MethodInfoPvPS2_
u1a:__ZN17ArchiveFileSystem11CreateAsDirER13FileEntryData
HJd:__ZL30GeomOverlapCallback_CapsuleBoxRKN5physx10PxGeometryERKNS_11PxTransformES2_S5_PNS_2Gu12TriggerCacheE
fin:dynCall_iiiiiiiiiiii
yig:_ASCIIEncoding_GetBytes_m3617160053
D3e:__Z38Rigidbody_CUSTOM_INTERNAL_get_velocityP12Il2CppObjectP8Vector3f
cdl:_InternalEnumerator_1_MoveNext_m2289229080_AdjustorThunk
Ljk:__Z72RuntimeInvoker_Boolean_t3825574718_Decimal_t724701077_Decimal_t724701077PK10MethodInfoPvPS2_
Eci:_CipherSuiteCollection_System_Collections_IList_RemoveAt_m143866082
pBl:_Context_get_HasGlobalDynamicSinks_m3205328884
KKa:__ZN22VertexDeclarationCacheD0Ev
qsf:__Z54Register_UnityEngine_Analytics_CustomEventData_AddCharv
mCa:__ZN6prcoreL17RemapGenericFloatI16TexFormatRGFloat17TexFormatRGBAHalfEEvPKNS_9InnerInfoE
rub:__ZNK21AssetBundleFileSystem8PositionERK13FileEntryData
jWm:__GLOBAL__sub_I_Assembly_cpp_47383
xRk:_U3CFOVKickUpU3Ec__Iterator0_System_Collections_IEnumerator_get_Current_m1139387004
yul:_UnityEventBase_UnityEngine_ISerializationCallbackReceiver_OnBeforeSerialize_m1773826808
i3l:_Vector3_get_normalized_m936072361_AdjustorThunk
knd:__ZN13dynamic_arrayI11Collision2DLj4EE9push_backERKS0_
tla:__ZN8Remapper23GetOrGenerateInstanceIDERK26SerializedObjectIdentifier
CD:__ZN17AnimationCurveTplI8Vector3fEC2ERKS1_
yRh:_StreamWriter_Flush_m3426120024
A1a:__ZN17FileSystemHandler10AtomicMoveER13FileEntryDataS1_
nb:invoke_iiiiiifffiiifii
bPh:_MemoryStream__ctor_m1489366847
ndg:_SecurityElement_IsValidTag_m64902195
t5j:_Enumerator_System_Collections_IEnumerator_get_Current_m229223308_AdjustorThunk
fWj:_PropertyInfo_SetValue_m2961483868
Gtj:_GUILayoutEntry_set_style_m70917293
xWg:_List_1_System_Collections_IList_Contains_m4193366963_gshared
i8l:_UnityEvent_3_FindMethod_Impl_m1889846153_gshared
rEl:_DictionaryEnumerator_get_Value_m1915638953
NXj:_LightShafts_InitEpipolarTextures_m3979157282
j0i:__ZL127U3CResetCoroutineU3Ec__Iterator0_t1600396324_CustomAttributesCacheGenerator_U3CResetCoroutineU3Ec__Iterator0_Dispose_m833154356P21CustomAttributesCache
bQl:_Slider_set_onValueChanged_m1751815187
wLb:__ZN6Sprite8TransferI24GenerateTypeTreeTransferEEvRT_
W$m:__ZThn4_N6il2cpp2vm13ComObjectBaseINS0_13ManagedObjectE18Il2CppIInspectableNS0_7details6ComNilES5_S5_S5_S5_S5_S5_E16GetManagedObjectEv
NOc:__Z48Register_UnityEngine_Transform_SetAsFirstSiblingv
tqj:_Font_get_fontSize_m1732593415
GOb:__ZN7SubMesh8TransferI24GenerateTypeTreeTransferEEvRT_
iVj:_MonoProperty_get_CanWrite_m2124922514
Xqd:__ZN5physx3Cct10Controller6setPosERKNS_14PxExtendedVec3E
Jqa:__ZN13RuntimeStaticI13RendererSceneE13StaticDestroyEPv
ctd:__ZN5physx2GuL14testFaceNormalERKNS0_13PolygonalDataES3_PNS0_12SupportLocalES5_RKNS_6shdfnd3aos15PsMatTransformVESA_RKNS7_6FloatVERSB_RjRNS7_5Vec3VENS0_13FeatureStatusERSI_
aGk:__Z36RuntimeInvoker_Enumerator_t132208513PK10MethodInfoPvPS2_
GHk:__Z112RuntimeInvoker_Int32_t2071877448_Il2CppObject_Int32_t2071877448_Int32_t2071877448_Int32_t2071877448_Il2CppObjectPK10MethodInfoPvPS2_
E5m:_poll
POh:_Stream_BeginRead_m1985960185
twh:_Graphic_UnregisterDirtyVerticesCallback_m1526739224
z_h:__ZN16VirtFuncInvoker1IP21BigInteger_t925946152iE6InvokeEjPvi
LF:__ZN7mecanim5human9HumanGoal8TransferI18StreamedBinaryReadILb0EEEEvRT_
SRi:__ZL88TweenRunner_1_t2584777480_CustomAttributesCacheGenerator_TweenRunner_1_Start_m2640577060P21CustomAttributesCache
T9h:_MD4Managed_GG_m1462438360
aIc:__Z46Mesh_CUSTOM_PrintErrorCantAccessMeshForIndicesP12Il2CppObject
Xpd:__Z55Register_UnityEngine_Rigidbody2D_INTERNAL_CALL_AddForcev
ztc:__ZN9Transform23SetSiblingIndexInternalEib
OYh:_SimpleCollator_LastIndexOfOrdinal_m45234497
NJd:__ZL32GeomOverlapCallback_ConvexConvexRKN5physx10PxGeometryERKNS_11PxTransformES2_S5_PNS_2Gu12TriggerCacheE
oGe:__Z11CopyBuffersRN5physx13PxcNpWorkUnitERNS_18PxcNpThreadContextEb
Hvh:_Graphic_get_canvasRenderer_m2902370808
mI:__ZN7mecanim5human12HumanPoseSubERNS0_9HumanPoseERKS1_S4_
F9h:_MD4_Create_m2582504069
iem:_HashSet_1_System_Collections_IEnumerable_GetEnumerator_m2498631708_gshared
HOm:__ZN6il2cpp8metadata15GenericMetadata15GetGenericClassEiPK17Il2CppGenericInst
Z1f:_Array_swap_TisPlayable_t3667545548_m817366036_gshared
ERk:_LerpControlledBob_Offset_m3285494048
oA:__ZN14AnimationState4InitERK8UnityStrP13AnimationClipdib
bpg:_Boolean_System_IConvertible_ToInt16_m977801621
C_b:__Z18Transfer_BlittableI14SafeBinaryReadLb0E10Matrix4x4fEvRK29SerializationCommandArgumentsR31RuntimeSerializationCommandInfo
p3a:__Z24GetFixedBehaviourManagerv
dEg:_Convert_ToUInt64_m1691869628
Ztm:__ZN6il2cpp2vm10ThreadPool4WaitEP17Il2CppAsyncResultPPv
v3m:_vfprintf
Dhj:_SerializationException__ctor_m1019897788
Tyk:__Z67RuntimeInvoker_Playable_t3667545548_GenericMixerPlayable_t788733994PK10MethodInfoPvPS2_
pRb:__ZNSt3__26__sortIRNS_6__lessINS_12basic_stringIcNS_11char_traitsIcEENS_9allocatorIcEEEES7_EEPS7_EEvT0_SB_T_
pjl:_Debug_get_logger_m4173808038
Qha:__ZN19ShaderPropertySheet20ReservePropertyCountEj
OSk:_TimedObjectDestructor_DestroyNow_m2724549958
xbb:__ZN20DynamicPropertySheetD0Ev
znb:__ZN14SafeBinaryRead17RegisterConverterEPKcS1_PFbPvRS_E
TKc:__Z28Shader_CUSTOM_DisableKeywordP12Il2CppString
sga:__ZN35RegisterRuntimeInitializeAndCleanup8RegisterEPFvPvES2_iS0_
fde:__ZNK5physx19NpRigidBodyTemplateINS_14PxRigidDynamicEE17getRigidBodyFlagsEv
zC:__ZN7mecanim6memory16ChainedAllocator7ReserveEj
Png:_AsyncCallback__ctor_m3071689932
cWe:__ZN14PhysicMaterial8TransferI18StreamedBinaryReadILb0EEEEvRT_
hih:_ReadOnlyCollection_1_System_Collections_IList_Clear_m2600246370_gshared
gue:__ZN5physx29EntityReportContainerCallback7onEventEjPj
Kkd:__ZN4PPtrI17PhysicsMaterial2DE8TransferI18StreamedBinaryReadILb0EEEEvRT_
NCb:__ZN20SphericalHarmonicsL215AddAmbientLightERK10ColorRGBAf
lnl:_Camera_get_worldToCameraMatrix_m3492031261
yue:__ZN5physx25PxcSweepConvexHeightfieldERKNS_11PxsCCDShapeES2_PKNS_12PxsRigidBodyES5_RKNS_11PxTransformES8_S8_S8_fRNS_6PxVec3ESA_RNS_10PxcNpCacheERNS_18PxcNpThreadContextEf
pBk:__Z41RuntimeInvoker_EventModifiers_t2690251474PK10MethodInfoPvPS2_
i0h:_DSAManaged_NormalizeArray_m2287089393
zel:_InternalEnumerator_1_System_Collections_IEnumerator_get_Current_m2389982234_AdjustorThunk
b3f:_Mesh_SetArrayForChannel_TisIl2CppObject_m2177737897_gshared
pSb:__ZN4PPtrI17ProceduralTextureE8TransferI18StreamedBinaryReadILb1EEEEvRT_
TOl:_Selectable_get_interactable_m1725029500
nkf:_UNITY_TT_Get_MM_Var
Z:invoke_diddi
Mmh:_ExecuteEvents__cctor_m288775360
Ilf:__ZNK2UI6Canvas13GetRenderModeEv
fCg:_Double_TryParseStringConstant_m2585405703
Szm:__ZN15dense_hashtableINSt3__24pairIK10KeyWrapperIPK10Il2CppTypeEjEES6_N6il2cpp8metadata14Il2CppTypeHashEN14dense_hash_mapIS6_jSB_NSA_17Il2CppTypeCompareENS0_9allocatorIS8_EEE9SelectKeyESD_SF_E5clearEv
$Tj:_MonoField_get_Attributes_m4138688533
PQ:__Z32TransferEnumWithNameForceIntSizeI14SafeBinaryRead28TransitionInterruptionSourceEvRT_RT0_PKc17TransferMetaFlags
P_b:__Z18Transfer_BlittableI14SafeBinaryReadLb0EiEvRK29SerializationCommandArgumentsR31RuntimeSerializationCommandInfo
Nsm:__ZN6il2cpp2vm13MetadataCache30GetPropertyDefinitionFromIndexEi
d7f:_RijndaelTransform_Clear_m1652144089
jce:__ZN5physx14NpRigidDynamic7releaseEv
U2f:_BaseInvokableCall_ThrowOnInvalidArg_TisIl2CppObject_m1349548392_gshared
LXj:_LightShafts_InitShadowmap_m471428690
uWh:_NumberFormatter_get_IsZero_m1325357749
Oqe:__ZN5physx6shdfnd8PoolBaseINS_21PxsBodyTransformVault13PxsBody2WorldENS0_19ReflectionAllocatorIS3_EEE15disposeElementsEv
gS:__ZN15SerializeTraitsI9OffsetPtrIN7mecanim9animation23BlendDirectDataConstantEEE8TransferI24GenerateTypeTreeTransferEEvRS4_RT_
ggh:_ReadOnlyCollection_1_System_Collections_IList_set_Item_m1377990618_gshared
wLg:_Enum_ToObject_m322320225
GYj:_PlanarReflection_CreateReflectionCameraFor_m4012864702
ebg:_X509Certificate__ctor_m3860837120
Jbf:_gray_raster_reset
zqj:_GameObject_Internal_CreateGameObject_m3428198595
P9m:__ZNKSt3__220__time_get_c_storageIcE7__weeksEv
Snl:_Camera_RaycastTry2D_m755036866
cih:_ReadOnlyCollection_1_System_Collections_Generic_IListU3CTU3E_set_Item_m3663361643_gshared
ezd:__ZN5physx2Gu30computeCapsule_TriangleMeshMTDERKNS_22PxTriangleMeshGeometryERKNS_11PxTransformERNS0_8CapsuleVEffbRNS_10PxSweepHitE
Vlh:_EventTrigger_OnScroll_m626934407
WWb:__ZN30RuntimeInitializeOnLoadManager8TransferI18StreamedBinaryReadILb0EEEEvRT_
Bbk:_Dictionary_2__ctor_m1206668798_gshared
iOj:_TypeBuilder_not_supported_m3178173643
scf:_UNITY_tt_face_load_pclt
_Xb:__ZN21ArchiveStorageCreator14StoreDirectoryEv
uxc:__ZL34GetComponentsImplementationRecurseILb1ELi0ELi2EEbR10GameObjectbRK17CompareParametersRK39GetComponentsImplementation_ReturnValue
g_i:__ZL58EdgeDetectEffect_t588666293_CustomAttributesCacheGeneratorP21CustomAttributesCache
G7l:_UnityEvent_1_RemoveListener_m4278264272_gshared
B0m:__ZN6il2cpp6icalls8mscorlib6System9Threading5Mutex20CreateMutex_internalEbP12Il2CppStringPb
a2j:_ExtinguishableParticleSystem__ctor_m397187800
ark:__Z50RuntimeInvoker_Int16_t4041245914_Int16_t4041245914PK10MethodInfoPvPS2_
Ltg:_ArrayListWrapper_Remove_m1105489978
oEc:__Z46QualitySettings_Set_Custom_PropPixelLightCounti
Oab:__ZNK6Camera18WorldToScreenPointERK8Vector3fPb
DVl:_X509Extension_get_Oid_m3620527052
EAe:__ZN5physx2Cm12DelegateTaskINS_10PxsContextEXadL_ZNS2_28mergeCMDiscreteUpdateResultsEPNS_10PxBaseTaskEEEE11runInternalEv
Rqf:__ZN14UnityAnalyticsD0Ev
o2l:_Vector2_ToString_m775491729
bdi:_TlsClientSettings_set_TargetHost_m3421266913
rRe:__ZN5physx19TriangleMeshBuilder10importMeshERKNS_18PxTriangleMeshDescERKNS_15PxCookingParamsEb
kJc:__Z45Playable_CUSTOM_INTERNAL_CALL_IsValidInternalR9HPlayable
bRi:__ZL109PointerEventData_t1599784723_CustomAttributesCacheGenerator_PointerEventData_get_eligibleForClick_m2497780621P21CustomAttributesCache
Z3f:_Array_InternalArray__get_Item_TisILTokenInfo_t149559338_m2004750537_gshared
Y8k:_InternalEnumerator_1_Dispose_m549215360_AdjustorThunk
yrg:_Convert_ToSByte_m2665932200
Cka:__ZNSt3__227__insertion_sort_incompleteIRPFbRKN18AwakeFromLoadQueue4ItemES4_EPS2_EEbT0_S9_T_
TTl:_PKCS12_Encrypt_m2154408631
Ofa:__GLOBAL__sub_I_runtime_camera_culling_lump_cpp
K8j:_ValueCollection_System_Collections_ICollection_get_IsSynchronized_m45572582_gshared
iUf:_Array_InternalArray__IEnumerable_GetEnumerator_TisContactPoint2D_t3659330976_m478005999_gshared
zEh:_Navigation_Equals_m4214630671_AdjustorThunk
Meh:_ReadOnlyCollection_1_System_Collections_Generic_IListU3CTU3E_set_Item_m257196015_gshared
k5d:__ZN5physx6shdfnd5ArrayINS_18PxClothFabricPhaseENS0_19ReflectionAllocatorIS2_EEE8recreateEj
OGb:__ZN26EnlightenSystemInformation8TransferI14SafeBinaryReadEEvRT_
T8c:__ZN13InitialModule5ResetEv
K3f:_Array_InternalArray__get_Item_TisLink_t2723257478_m2281261655_gshared
SKf:__ZN5physx18RepXPropertyFilterINS_2Sn17RepXVisitorReaderINS_21PxVehicleDriveDynDataEEEEclILj656ES3_jjEEvRKNS_14PxPropertyInfoIXT_ET0_T1_T2_EEj
TTk:_AeroplaneController_set_EnginePower_m3465821659
Nke:__ZN5physx2Sq17SceneQueryManager11shiftOriginERKNS_6PxVec3E
PPb:__ZN12MeshRendererD0Ev
ixd:__ZN5physx2Gu16sweepBoxTriangleERKNS_10PxTriangleERKNS_9PxBounds3ERKNS_6PxVec3ES9_RS7_SA_Rf
h2:__ZN4PPtrI15AudioMixerGroupE8TransferI18StreamedBinaryReadILb1EEEEvRT_
KIl:_ExpressionAssertion_IsComplex_m783019628
W5j:_ShimEnumerator_MoveNext_m2943029388_gshared
Dwg:_Hashtable__ctor_m2702360557
Gi:_utime
bSe:__ZN5physx10writeChunkEaaaaRNS_14PxOutputStreamE
eGh:_DateTimeFormatInfo_get_RawAbbreviatedDayNames_m3998113647
$dk:_DefaultComparer_GetHashCode_m2596628120_gshared
T_j:_RigidbodyFirstPersonController_GroundCheck_m3452750385
DZm:_GC_call_with_alloc_lock
SSf:__ZN16VirtFuncInvoker0IP8String_tE6InvokeEjPv
zzm:__ZN6il2cpp2gc19AppendOnlyGCHashMapIPK10Il2CppTypeP20Il2CppReflectionTypeNS_8metadata14Il2CppTypeHashENS7_17Il2CppTypeCompareEE3AddERKS4_S6_
r8h:_PrimalityTest_Invoke_m4058801829
Jij:_RemotingConfiguration_SetCustomErrorsMode_m1844153208
pHf:__ZN5physx3Pvd17PvdPropertyFilterINS_2Sn17RepXVisitorWriterINS_23PxVehicleSuspensionDataEEEE14handleAccessorILj593ENS_22PxRepXPropertyAccessorILj593ES4_ffEEEEvRKT0_
gLi:__ZL80Physics_t634932869_CustomAttributesCacheGenerator_Physics_SphereCast_m3738540354P21CustomAttributesCache
Wo:FUNCTION_TABLE_viiiiii
YXd:__ZN5physx2Sc9RigidCore13onShapeChangeERNS0_9ShapeCoreENS_7PxFlagsINS0_21ShapeChangeNotifyFlag4EnumEjEENS4_INS_11PxShapeFlag4EnumEhEE
_Ng:_CultureInfo_GetFormat_m3560116485
zK:__ZN7mecanim9animation22DestroyAvatarWorkspaceEPNS0_15AvatarWorkspaceERNS_6memory9AllocatorE
y0j:_VirtualButton_get_name_m171853151
Sr:__ZN12NavMeshAgent12AddToManagerEv
TYl:_ScriptableObject_CreateInstance_m3271154163
g9e:__ZNSt3__26vectorI8UnityStr13stl_allocatorIS1_L18MemLabelIdentifier34ELi16EEE12__move_rangeEPS1_S6_S6_
Cdj:_FactoryCache__ctor_m254400436
J9d:__ZN5physx6shdfnd5ArrayIPvNS0_15InlineAllocatorILj256ENS0_19ReflectionAllocatorINS_2Sc19ParticlePacketShapeEEEEEE15growAndPushBackERKS2_
Yxl:_RuntimeHelpers_get_OffsetToStringData_m2323796287
bxe:__ZN5physx17solveContactBlockEPKNS_23PxcSolverConstraintDescEjRNS_16PxcSolverContextE
kSe:__ZN5physx6shdfnd10FoundationD2Ev
yWf:_Array_InternalArray__IndexOf_TisResourceCacheItem_t333236149_m761772858_gshared
yQc:__ZNSt3__210__list_impIN10GUIManager12SortedScriptE11memory_poolIS2_EE5clearEv
VAi:__ZL76Convert_t2607082565_CustomAttributesCacheGenerator_Convert_ToInt64_m44696721P21CustomAttributesCache
ejj:_TrackingServices__cctor_m3639412334
Gxa:__ZN9ShaderLab11shaderprops9GetVectorEPK19ShaderPropertySheetS3_NS_16FastPropertyNameERNS0_16PropertyLocationE
_Sc:__Z32GUIStyle_Set_Custom_PropRichTextP12Il2CppObjecth
HO:__ZN7mecanim9animation29MotionOutputGetDeltaTransformEPKNS0_12MotionOutputE
ixa:__ZNSt3__26__treeINS_12__value_typeI4PPtrI13RenderTextureEN19RenderBufferManager23RenderTextureParametersEEENS_19__map_value_compareIS4_S7_NS_4lessIS4_EELb1EEE11memory_poolIS7_EE5eraseENS_21__tree_const_iteratorIS7_PNS_11__tree_nodeIS7_PvEEiEE
Acg:_StrongNamePublicKeyBlob_Equals_m2407250401
W8j:_ValueCollection_System_Collections_IEnumerable_GetEnumerator_m1773104428_gshared
pwb:__ZN17GlobalGameManager23VirtualRedirectTransferER19StreamedBinaryWriteILb0EE
bgd:__ZN24b2ChainAndCapsuleContact8EvaluateEP10b2ManifoldRK11b2TransformS4_
wW:__ZN8Animator14OnAddComponentEPN5Unity9ComponentE
Zyj:_Input_GetAxis_m2098048324
G1g:_List_1_CheckMatch_m1184924052_gshared
XNc:__Z43Transform_CUSTOM_INTERNAL_get_localRotationP12Il2CppObjectP11Quaternionf
jre:__ZN5physx2Sc10NPhaseCoreD2Ev
KLd:__ZN5physx2Sc7BodySim18onConstraintDetachEv
u0l:_Touch_get_fingerId_m4109475843_AdjustorThunk
zEm:__ZN6il2cpp2os4File9SetLengthEPNS0_10FileHandleExPi
Dnn:_glGetShaderInfoLog__wrapper
hj:_emscripten_glGetTexParameteriv
Ije:__ZN5physx7NpScene8simulateEfPNS_10PxBaseTaskEPvjb
iWg:_List_1_ToArray_m3752387798_gshared
nie:__ZThn8_N5physx2Sc24ElementInteractionMarker10onActivateEj
Pai:_RSAManaged_ImportParameters_m3060955884
a4h:_DeriveBytes__ctor_m3089550878
dWh:_NotImplementedException__ctor_m1305569814
$cc:__ZN9ShaderLab20SerializedSubProgram14ConstantBufferaSERKS1_
Fzl:_ChannelData_CopyFrom_m4049054607
Sic:__Z13RegisterClassI4MeshEvv
xQi:__ZL94AxisEventData_t1524870173_CustomAttributesCacheGenerator_AxisEventData_get_moveDir_m3968662359P21CustomAttributesCache
YXj:_LightShafts_GetBoundsMatrix_m445231427
zVf:_Array_FindLastIndex_TisIl2CppObject_m869210470_gshared
IDb:__ZN8PlayableD0Ev
iza:__ZNSt3__24pairIK8UnityStrS1_EC2ERKS3_
Jyk:__Z56RuntimeInvoker_Int32_t2071877448_PlayableU26_t3233213460PK10MethodInfoPvPS2_
r3e:__ZN9Rigidbody5SleepEv
F_:__ZN12AudioManager8TransferI19StreamedBinaryWriteILb0EEEEvRT_
sP:__ZN4PPtrI25RuntimeAnimatorControllerE8TransferI18StreamedBinaryReadILb1EEEEvRT_
uPh:_WriteDelegate_Invoke_m2103848735
qXl:_RenderTexture_set_active_m55464043
iXg:_List_1_get_Capacity_m4262042666_gshared
zdm:_GenericEqualityComparer_1_GetHashCode_m1950634276_gshared
rac:__ZN18StreamedBinaryReadILb1EE21TransferSTLStyleArrayI13dynamic_arrayI11ColorRGBA32Lj4EEEEvRT_17TransferMetaFlags
aea:__ZN22LocalFileSystemHandler4NameEv
YXb:__ZNSt3__26__treeINS_12__value_typeINS_12basic_stringIcNS_11char_traitsIcEENS_9allocatorIcEEEEjEENS_19__map_value_compareIS7_S8_NS_4lessIS7_EELb1EEE13stl_allocatorIS8_L18MemLabelIdentifier54ELi16EEE12__find_equalIS7_EERPNS_16__tree_node_baseIPvEESM_RKT_
d7j:_Transform_1_EndInvoke_m687617772_gshared
TJk:__Z66RuntimeInvoker_Void_t1841601450_Int32_t2071877448_Mark_t2724874473PK10MethodInfoPvPS2_
vJm:__ZN6il2cpp6icalls8mscorlib6System5Array12GetValueImplEP11Il2CppArrayi
K4l:_Locale_GetText_m512920887
Vmc:__ZNK32RendererMaterialAnimationBinding12GetPPtrValueERKN11UnityEngine9Animation10BoundCurveE
R6b:__Z18Transfer_BlittableI18StreamedBinaryReadILb0EELb0E8Vector2fEvRK29SerializationCommandArgumentsR31RuntimeSerializationCommandInfo
MUd:__ZN5physx18NpArticulationLink10clearForceENS_11PxForceMode4EnumE
rij:_RemotingConfiguration_get_ProcessId_m3870172209
Utd:__ZN5physx2Gu30distanceSegmentTriangleSquaredERKNS_6PxVec3ES3_S3_S3_S3_PfS4_S4_
cld:__ZN16CircleCollider2D10SmartResetEv
sof:__ZN2UI11CanvasGroup12CleanupClassEv
FYl:_SceneManager_LoadScene_m1386820036
GHh:_SortKey_ToString_m2406913228
tea:__ZN22LocalFileSystemHandler9MakeLocalER13FileEntryDatab
vdg:_String_op_Inequality_m304203149
YVm:__ZN6il2cpp2vm8Profiler10AllocationEP12Il2CppObjectP11Il2CppClass
lBg:_Convert_ToDateTime_m1020507389
Esh:_ColorTween_AddOnChangedCallback_m3190875685
nKm:__ZN13dynamic_arrayIP12Il2CppObjectLj4EE10reallocateEPS1_j
OQb:__ZN14SpriteRenderer21ReleaseGeometryJobMemEP25DynamicVBOGeometryJobData
S8e:__ZNSt3__23mapIN20TextRenderingPrivate7FontRefENS1_6OSFontENS_4lessIS2_EENS_9allocatorINS_4pairIKS2_S3_EEEEEixERS8_
lNh:_Path_IsPathRooted_m1347207448
ukj:_ObjectManager_RegisterObjectInternal_m879109503
uQf:_Array_get_swapper_TisVector4_t2243707581_m97441823_gshared
m3d:__ZNK5physx15NpActorTemplateINS_7PxClothEE12getAggregateEv
FIa:__ZNSt3__26__sortIRNS_4lessIiEEPiEEvT0_S5_T_
V5e:__ZN14SafeBinaryRead21TransferSTLStyleArrayI10vector_mapINSt3__24pairIttEEfN20TextRenderingPrivate8FontImpl14KerningCompareENS2_9allocatorINS3_IS4_fEEEEEEEvRT_17TransferMetaFlags
ojc:__Z13RegisterClassI15QualitySettingsEvv
qVm:__ZN6il2cpp2vm6String21InitializeEmptyStringEP11Il2CppClass
zgb:__ZN25DeferredRenderLoopScratchD0Ev
oOf:__ZN5physx3Pvd17PvdPropertyFilterINS_2Sn17RepXVisitorWriterINS_27PxVehicleDifferential4WDataEEEE14handleAccessorILj544ENS_22PxRepXPropertyAccessorILj544ES4_ffEEEEvRKT0_
iI:__ZN7mecanim9animation17EvaluateHumanPoseERKNS0_18ClipMuscleConstantERKNS0_15ClipMuscleInputEPKfRKNS0_12MotionOutputERNS_5human9HumanPoseE
Wyi:__ZL90UTF7Encoding_t741406939_CustomAttributesCacheGenerator_UTF7Encoding_GetHashCode_m359766848P21CustomAttributesCache
jkk:__Z52RuntimeInvoker_Decimal_t724701077_Single_t2076509932PK10MethodInfoPvPS2_
Dte:__ZNK5physx2Cm12DelegateTaskINS_13PxsCCDContextEXadL_ZNS2_14postCCDAdvanceEPNS_10PxBaseTaskEEEE7getNameEv
qeb:__ZL13RenderCastersiRK8Vector3fS1_RK13ShadowJobDataR17ShaderPassContextRKNSt3__26vectorI16ShadowCasterData13stl_allocatorIS9_L18MemLabelIdentifier2ELi16EEEERKNS8_I20ShadowCasterPartDataSA_ISG_LSB_2ELi16EEEERK15RenderNodeQueueb
vFi:__ZL62SecurityProtocolType_t155967584_CustomAttributesCacheGeneratorP21CustomAttributesCache
Q9a:__ZNSt3__227__insertion_sort_incompleteIRPFbP10GUIElementS2_EPS2_EEbT0_S7_T_
faj:_X509BasicConstraintsExtension_get_HasPathLengthConstraint_m3788532759
Txa:__ZN22CreateGpuProgramOutputD2Ev
aVf:__ZN21InterfaceFuncInvoker1Ii38CustomAttributeNamedArgument_t94157543E6InvokeEjP11Il2CppClassPvS0_
_Cd:__ZNK5physx3Cct15ObstacleContext14getNbObstaclesEv
f6b:__Z18Transfer_BlittableI19StreamedBinaryWriteILb0EELb1EsEvRK29SerializationCommandArgumentsR31RuntimeSerializationCommandInfo
JAm:__ZNK15dense_hashtableINSt3__24pairIK10KeyWrapperINS1_IPK10MethodInfoP11Il2CppClassEEEjEES9_17ReflectionMapHashIS8_EN14dense_hash_mapIS9_jSD_19ReflectionMapEqualsIS8_ENS0_9allocatorISB_EEE9SelectKeyESG_SI_E12test_deletedERK24dense_hashtable_iteratorISB_S9_SD_SK_SG_SI_E
D8f:_RSACryptoServiceProvider_EncryptValue_m802714447
xLm:__ZN6il2cpp6icalls8mscorlib6System2IO6MonoIO9SetLengthE12Il2CppIntPtrxPi
bPe:__ZN5physx6shdfnd8PoolBaseINS_11NpAggregateENS0_19ReflectionAllocatorIS2_EEE12allocateSlabEv
sAi:__ZL76Convert_t2607082565_CustomAttributesCacheGenerator_Convert_ToByte_m932798552P21CustomAttributesCache
Ube:__ZN5physx16NpParticleSystem23setParticleReadDataFlagENS_22PxParticleReadDataFlag4EnumEb
_Q:__ZN7mecanim9animation23BlendDirectDataConstant8TransferI14SafeBinaryReadEEvRT_
zpd:__ZZN11Rigidbody2D15InitializeClassEvEN35FunctorImpl_200kAnimatorMoveBuiltin4CallEPviR11MessageData
Muk:__Z44RuntimeInvoker_HashAlgorithmType_t1654661965PK10MethodInfoPvPS2_
Dae:__ZN5physx7NpScene26removeFromParticleBaseListERNS_14PxParticleBaseE
LEh:_DateTimeFormatInfo_GetInstance_m3133223810
H7h:_ModulusRing_BarrettReduction_m2802101099
Olk:__Z57RuntimeInvoker_ExtenderType_t1556892101_Int32_t2071877448PK10MethodInfoPvPS2_
U5d:__ZN5physx2Sc9ClothCore23setSelfCollisionIndicesEPKjj
n_a:__ZN12HandlerChain4OpenER13FileEntryData14FilePermission16FileAutoBehavior
uNk:__Z76RuntimeInvoker_Il2CppObject_UILineInfo_t3621277874_Il2CppObject_Il2CppObjectPK10MethodInfoPvPS2_
pTj:_MonoMethodInfo_GetParametersInfo_m3456861922
RLk:__Z37RuntimeInvoker_UILineInfo_t3621277874PK10MethodInfoPvPS2_
eom:__ZN15dense_hashtableINSt3__24pairIK10KeyWrapperIPK19Il2CppGenericMethodEPK26Il2CppGenericMethodIndicesEES6_N6il2cpp8metadata23Il2CppGenericMethodHashEN14dense_hash_mapIS6_SA_SE_NSD_26Il2CppGenericMethodCompareENS0_9allocatorISB_EEE9SelectKeyESG_SI_E15set_deleted_keyERKSB_
SGf:__ZN5physx3Pvd17PvdPropertyFilterINS_2Sn17RepXVisitorWriterINS_17PxVehicleTireDataEEEE27extendedDualIndexedPropertyILj605ES4_jjfEEvjRKNS_33PxExtendedDualIndexedPropertyInfoIXT_ET0_T1_T2_T3_EEjj
cug:_FixedSizeArrayListWrapper_Add_m1263586472
tna:__ZN14FileCacherReadD2Ev
Z8f:_RSAPKCS1SignatureDeformatter_VerifySignature_m1825067195
dyf:__ZN5physx22PxVehicleWheelsSimData26setTireForceAppPointOffsetEjRKNS_6PxVec3E
vjm:__ZL25UnresolvedVirtualCall_123P12Il2CppObjectffPK10MethodInfo
yCc:__Z50Register_UnityEngine_CullingGroup_FinalizerFailurev
POg:_KeyValuePair_2_ToString_m2613351884_gshared
hBj:_Material_get_passCount_m1778920671
XDa:__ZN27UnloadUnusedAssetsOperationD0Ev
ezb:__ZN6Camera15ThreadedCleanupEv
oba:__ZN9JSONWrite8TransferI8UnityStrEEvRT_PKc17TransferMetaFlags
LK:__ZN26AnimatorControllerPlayable6MemoryD2Ev
oxf:__ZN13RuntimeStaticINSt3__26vectorIjNS0_9allocatorIjEEEEE13StaticDestroyEPv
oSi:__ZL69ColorBlock_t2652774230_CustomAttributesCacheGenerator_m_DisabledColorP21CustomAttributesCache
Nbi:_CipherSuite_get_Code_m3902213587
ILl:_Scrollbar__ctor_m2244981801
tLm:__ZN6il2cpp6icalls8mscorlib6System2IO6MonoIO9GetLengthE12Il2CppIntPtrPi
Mlj:_ObjectRecord_get_HasPendingFixups_m670959802
tak:_Dictionary_2_Resize_m2807616086_gshared
bue:__ZN5physx10PxsCCDPair12updateShapesEv
tFd:__ZNK5physx3Ext5JointINS_15PxDistanceJointENS_30PxDistanceJointGeneratedValuesEE16getInvMassScale1Ev
C9f:_SHA256Managed_HashCore_m4111458495
QNg:_CultureInfo_get_CompareInfo_m3085280862
spi:__ZL55Dictionary_2_t2276497324_CustomAttributesCacheGeneratorP21CustomAttributesCache
Klj:_ObjectManager_RecordDelayedFixup_m1895730844
Tmg:_ArrayTypeMismatchException__ctor_m1898555879
yZg:_List_1_System_Collections_IList_get_IsFixedSize_m3522184224_gshared
DY:__ZN9AudioClip23VirtualRedirectTransferER18StreamedBinaryReadILb0EE
gei:_ClientSessionInfo_CheckDisposed_m1394638186
Pnj:_SByte_Parse_m2544167007
B3a:__ZNSt3__26vectorIPN9ShaderLab9SubShaderENS_9allocatorIS3_EEE21__push_back_slow_pathIKS3_EEvRT_
xJg:_StackFrame_GetILOffset_m115192054
ssb:__ZN24GenerateTypeTreeTransfer8TransferIN11AssetBundle9AssetInfoEEEvRT_PKc17TransferMetaFlags
s6d:__ZN5physx2Sc9ClothCore22removeCollisionCapsuleEj
uLl:_GetRayIntersectionAllCallback_BeginInvoke_m1307032462
QFf:__ZN5physx3Pvd17PvdPropertyFilterINS_2Sn17RepXVisitorWriterINS_16PxVehicleNoDriveEEEE27handleExtendedIndexPropertyILj695ES4_fKjNS_18PxUnknownClassInfoEEEvjRKNS_29PxExtendedIndexedPropertyInfoIXT_ET0_T2_T1_EERKT3_
cnj:_RuntimeTypeHandle_GetHashCode_m3697629454_AdjustorThunk
tZh:_BigInteger__ctor_m2945783161
SNb:__Z14resize_trimmedINSt3__26vectorIh13stl_allocatorIhL18MemLabelIdentifier14ELi16EEEEEvRT_j
Avi:__ZL96ProxyAttribute_t4031752430_CustomAttributesCacheGenerator_ProxyAttribute_IsContextOK_m2391079277P21CustomAttributesCache
wIh:_IndexOutOfRangeException__ctor_m3497760912
SMd:__ZN5physx16PxsIslandManager25setArticulationLinkHandleEjPvRKNS_20PxsIslandManagerHookIjLj4294967295EEE
Mgh:_ReadOnlyCollection_1_CopyTo_m1652036789_gshared
Fk:_glCopyTexSubImage2D
hNi:__ZL61GUISkin_t1436893342_CustomAttributesCacheGenerator_m_textAreaP21CustomAttributesCache
cnc:__ZNK24RendererAnimationBinding13GetFloatValueERKN11UnityEngine9Animation10BoundCurveE
OHd:__ZN5physx2Sc10NPhaseCore39pool_deleteParticleElementRbElementPairEPNS0_35ParticleElementRbElementInteractionEjj
Hsn:_glActiveTexture__wrapper
p4g:_Collection_1_Insert_m3594407958_gshared
i5a:_UNITY_png_write_zTXt
mda:__ZN18ScreenManagerWebGL13SetShowCursorEb
$Vm:__ZN6il2cpp6icalls8mscorlib6System7Convert24InternalFromBase64StringEP12Il2CppStringb
B2a:__ZZ23InitPlayerLoopCallbacksvEN37EarlyUpdateProcessMouseInWindowstruct7ForwardEv
CRl:_Text_get_preferredWidth_m3352156860
FKj:_AssemblyCompanyAttribute__ctor_m1217508649
vof:__ZN2UI13CanvasManager14GetRenderOrderEPKNS_6CanvasE
HWd:__ZN5physx6shdfnd5ArrayIPNS_3Scb5ShapeENS0_15InlineAllocatorILj16ENS0_19ReflectionAllocatorIS4_EEEEE15growAndPushBackERKS4_
A_b:__Z18Transfer_BlittableI14SafeBinaryReadLb0E5RectTIfEEvRK29SerializationCommandArgumentsR31RuntimeSerializationCommandInfo
_Na:__ZN9GfxDevice18InsertCustomMarkerEi
sgh:_ReadOnlyCollection_1_System_Collections_Generic_IListU3CTU3E_RemoveAt_m878653284_gshared
REh:_DateTimeFormatInfo_GetFormat_m3676195179
qPa:__ZN14GfxContextGLES14GetFramebufferEv
Ppn:_emscripten_glGenVertexArrays__wrapper
Iic:__ZN11GameManager7PRODUCEE18MemLabelIdentifier18ObjectCreationMode
t4f:_Array_InternalArray__get_Item_TisPlane_t3727654732_m3853269401_gshared
zyk:__Z36RuntimeInvoker_HideFlags_t1434274199PK10MethodInfoPvPS2_
bBa:__ZN6prcoreL21CreateRemapAnyBlitterE13TextureFormatS0_
s2m:__ZN6il2cpp2os5Event4WaitEjb
evc:__ZN17AnimationCurveTplIfE16StripInvalidKeysEv
yXf:_Array_InternalArray__ICollection_Add_TisKeyValuePair_2_t3716250094_m2381539361_gshared
M4h:_X509Extension_WriteLine_m2850991173
nnf:__ZNK2UI6Canvas17GetSortingLayerIDEv
umi:__ZL40UIntPtr_t_CustomAttributesCacheGeneratorP21CustomAttributesCache
umd:__ZN14Raycast2DQuery8RunQueryEb
dpc:__Z13RegisterClassI17GlobalGameManagerEvv
lWi:__ZL70GridLayoutGroup_t1515633077_CustomAttributesCacheGenerator_m_StartAxisP21CustomAttributesCache
zxm:_il2cpp_type_get_class_or_element_class
wOm:__ZNK15dense_hashtableI10KeyWrapperIP18Il2CppGenericClassES3_N6il2cpp8metadata22Il2CppGenericClassHashEN14dense_hash_setIS3_S6_NS5_25Il2CppGenericClassCompareENSt3__29allocatorIS3_EEE8IdentityES8_SB_E3endEv
_Rf:_Array_InternalArray__ICollection_Remove_TisInt64_t909078037_m2653583130_gshared
UVk:_Thread_get_ExecutionContext_m922067206
r9:__ZN11UnityEngine15CloudWebService13WWWRestClient18GetEditableHeadersEv
P8m:__ZNKSt3__27num_getIwNS_19istreambuf_iteratorIwNS_11char_traitsIwEEEEE6do_getES4_S4_RNS_8ios_baseERjRPv
Sdi:_RecordProtocol_get_Context_m2688493529
$ya:__ZN4PPtrI7TextureE8TransferI14SafeBinaryReadEEvRT_
yFe:__ZN5physx2Sc8ClothSim16addCollisionMeshEPKNS0_8ShapeSimE
kCl:_SynchronizedClientContextSink__ctor_m978504596
zGf:__ZN5physx6shdfnd5ArrayINS_12PxFilterDataENS0_15InlineAllocatorILj80ENS0_19ReflectionAllocatorIS2_EEEEE6resizeEjRKS2_
oel:_InternalEnumerator_1_get_Current_m3033039414_gshared
mNl:_ScrollRect_get_viewport_m3177057249
Qo:FUNCTION_TABLE_iiiiiiiiiiiiii
BKe:__ZN5physx6shdfnd5ArrayIPKNS_10PxsCCDBodyENS0_19ReflectionAllocatorIS4_EEE8recreateEj
rXa:__ZN14DrawBufferGLESI12VertexBuffer27VertexBufferUsageMapperGLESED2Ev
BWd:__ZN5physx6shdfnd4sortINS_2Cm19PreallocatingRegionENS0_4LessIS3_EENS0_19ReflectionAllocatorIS3_EEEEvPT_jRKT0_RKT1_j
dvf:__ZN19UnityConnectService18OnPlayerQuitStaticEPS_
HEk:__Z35RuntimeInvoker_ScaleMode_t987318053PK10MethodInfoPvPS2_
FJm:_Enemy__ctor_m2474411757
idf:_UNITY_tt_get_cmap_info
ajg:_DecoderExceptionFallback_GetHashCode_m2972426052
alb:__ZN16ReflectionProbes8ScheduleEN18ReflectionProbeJob7JobTypeEP15ReflectionProbei
T1f:_Array_swap_TisCustomAttributeTypedArgument_t1498197914_m885124357_gshared
H9g:_Collection_1_IsFixedSize_m3675221982_gshared
$Mf:__ZN5physx18RepXPropertyFilterINS_2Sn17RepXVisitorReaderINS_18PxVehicleDriveTankEEEEclILj674ENS_14PxVehicleDriveENS_21PxVehicleDriveDynDataES8_EEvRKNS_14PxPropertyInfoIXT_ET0_T1_T2_EEj
DHf:__ZN5physx2Sn21RepXVisitorReaderBaseINS_23PxVehicleDriveSimData4WEE8pushNameEPKc
cBi:__ZL77Convert_t2607082565_CustomAttributesCacheGenerator_Convert_ToSByte_m883113940P21CustomAttributesCache
zRg:_Enumerator_MoveNext_m3293920409_AdjustorThunk
o$l:_TextGenerator_PopulateAlways_m1595123368
Cgb:__ZN14qsort_internal31_FindAndMovePivotToLastPositionIP16RenderObjectDatai26RenderDeferredObjectSorterEEvT_S4_T0_T1_
bde:__ZN5physx19NpRigidBodyTemplateINS_14PxRigidDynamicEE20setRigidDynamicFlagsENS_7PxFlagsINS_15PxRigidBodyFlag4EnumEhEE
QPj:_GenericTypeParameterBuilder_get_DeclaringType_m1652924692
iBb:__ZN5Light23VirtualRedirectTransferER18StreamedBinaryReadILb1EE
Ogl:_Comparer_1__cctor_m3112251759_gshared
_Ui:__ZL73ScrollRect_t1199013257_CustomAttributesCacheGenerator_m_VerticalScrollbarP21CustomAttributesCache
p9i:_X509KeyUsageExtension_ToString_m1992050580
A8e:_UNITY_FT_GlyphLoader_Done
ifh:_ReadOnlyCollection_1_System_Collections_Generic_ICollectionU3CTU3E_Add_m2975080319_gshared
ozl:_ConstructionCall__ctor_m1143766850
tyj:_GUIStyleState_Init_m2434147050
QUe:__ZN19CharacterController12SetIsTriggerEb
Pgl:_Comparer_1_System_Collections_IComparer_Compare_m3203078743_gshared
Mbe:__ZN5physx22NpParticleBaseTemplateINS_16PxParticleSystemENS_16NpParticleSystemEE20setMaxMotionDistanceEf
Yei:_Context_get_RandomSC_m1687420621
ztb:__ZN5Cache10AddToCacheERKNSt3__212basic_stringIcNS0_11char_traitsIcEENS0_9allocatorIcEEEEi
H4e:__Z59Register_UnityEngine_Rigidbody_INTERNAL_get_angularVelocityv
xlb:__Z18SkinGenericMathLibILi2ELb1ELb0EEvR12SkinMeshInfo
Kxe:__ZN5physx18ComputeSortedListsEPNS_2Cm10BitMapBaseINS_6shdfnd9AllocatorEEEjjPKjPPNS_8SapBox1DES7_PjSB_jRKNS_2Gu4AxesESB_RjSB_SG_RbSH_
_Of:__ZL28VehicleWheelRaycastPreFilterN5physx12PxFilterDataES0_PKvjRNS_7PxFlagsINS_9PxHitFlag4EnumEtEE
Ydf:_tt_cmap14_char_var_index
LCf:__Z48setPxVehicleTireLoadFilterDataMMaxNormalisedLoadPN5physx27PxVehicleTireLoadFilterDataEf
Cnl:_Camera_INTERNAL_CALL_ScreenPointToRay_m2752248646
$sk:__Z77RuntimeInvoker_TimeSpan_t3430258949_TimeSpan_t3430258949_TimeSpan_t3430258949PK10MethodInfoPvPS2_
vff:_psh_globals_new
gXa:__ZN13dynamic_arrayIN16GeometryJobTasks15GeometryJobTaskELj4EE18resize_initializedEjRKS1_12ResizePolicy
xoh:_StandaloneInputModule_set_allowActivationOnMobileDevice_m2631121618
xBg:_Decimal_stripStyles_m294582157
NVk:_UTF8Decoder_GetChars_m3819660582
Xwk:__Z73RuntimeInvoker_Single_t2076509932_Vector3_t2243707580_Vector3_t2243707580PK10MethodInfoPvPS2_
VKa:__ZN9GfxDevice20SetMaxBufferedFramesEi
bXg:_List_1_RemoveAll_m4125997475_gshared
QHc:__Z45Register_UnityEngine_Mathf_GammaToLinearSpacev
wjd:__ZN10Collider2D19WakeAllBodyContactsEv
lrm:__ZN15dense_hashtableINSt3__24pairIK10KeyWrapperIPK19Il2CppGenericMethodEPK26Il2CppGenericMethodIndicesEES6_N6il2cpp8metadata23Il2CppGenericMethodHashEN14dense_hash_mapIS6_SA_SE_NSD_26Il2CppGenericMethodCompareENS0_9allocatorISB_EEE9SelectKeyESG_SI_E12maybe_shrinkEv
v1:__ZN24AudioScriptBufferManagerD2Ev
Ein:dynCall_vdd
vDm:__ZN14dense_hash_mapI10KeyWrapperINSt3__24pairIPK11Il2CppImageP11Il2CppClassEEEj17ReflectionMapHashIS8_E19ReflectionMapEqualsIS8_ENS1_9allocatorINS2_IKS9_jEEEEE13set_empty_keyERSF_
bXc:__ZN8JSONRead21TransferSTLStyleArrayINSt3__26vectorINS1_12basic_stringIcNS1_11char_traitsIcEE13stl_allocatorIcL18MemLabelIdentifier1ELi16EEEES6_IS9_LS7_1ELi16EEEEEEvRT_S7_17TransferMetaFlags
Snf:__ZN2UIL17UnloadAllCanvasesEv
W6g:_Collection_1_System_Collections_IList_Insert_m3083278457_gshared
Uob:__Z23ConvertIntegerToTypePtrIsEbPvR14SafeBinaryRead
Oyk:__Z71RuntimeInvoker_Boolean_t3825574718_Int32_t2071877448_Single_t2076509932PK10MethodInfoPvPS2_
qhd:__ZN12b2MouseJoint11ShiftOriginERK6b2Vec2
nGf:__ZN5physx18RepXPropertyFilterINS_2Sn17RepXVisitorWriterINS_22PxVehicleWheelsSimDataEEEEclILj626ES3_KjjEEvRKNS_14PxPropertyInfoIXT_ET0_T1_T2_EEj
BOf:__ZN5physx15computeTankDiffEffjPKbPfS2_S2_
QRd:__ZNK5physx14NpArticulation17releaseDriveCacheERNS_24PxArticulationDriveCacheE
U7h:_BigInteger_Incr2_m505983313
Bll:_PCMReaderCallback_BeginInvoke_m3119095492
Hsg:_ArrayList_get_Count_m523955479
QHk:__Z85RuntimeInvoker_Int32_t2071877448_Vector3_t2243707580_Vector3_t2243707580_Il2CppObjectPK10MethodInfoPvPS2_
hug:_FixedSizeArrayListWrapper_Remove_m1359458911
jBa:__ZN6prcoreL29inner_stretch_rgb565_bilinearEPKNS_9InnerInfoE
R0j:_MobileInput_SetButtonDown_m1238699371
V5d:__ZNK5physx2Sc9ClothCore25getSelfCollisionStiffnessEv
Ss:__ZN15NavMeshObstacle11UpdateStateEv
flh:_EventSystem_get_current_m319019811
Wbm:_Water_CalculateObliqueMatrix_m2417333856
QQl:_Text_get_mainTexture_m813502234
otk:__Z47RuntimeInvoker_SecurityProtocolType_t3099771628PK10MethodInfoPvPS2_
Z_j:_AICharacterControl__ctor_m3700469607
Hfb:__ZNK14RenderSettings19GetFlatAmbientColorEv
Xkb:__ZN6prcoreL10inner_flipILj4EEEvPhS1_j
uUb:__ZN18StreamedBinaryReadILb0EE21TransferSTLStyleArrayI10vector_mapIPKN5Unity4TypeE7Hash128NSt3__24lessIS6_EENS8_9allocatorINS8_4pairIS6_S7_EEEEEEEvRT_17TransferMetaFlags
zL:__ZNK27StateMachineBehaviourPlayer15IsSenderEnabledEv
MQb:__Z19CalculateVertexSizejRK20VertexChannelsLayoutPj
b4g:_Collection_1_System_Collections_ICollection_get_IsSynchronized_m1924133708_gshared
yhg:_String_Concat_m56707527
COc:__Z40Register_UnityEngine_Transform_SetParentv
Ill:_AudioConfigurationChangeHandler_Invoke_m635374412
Rii:_SslClientStream_get_HaveRemoteValidation2Callback_m3555576758
bMb:__ZN14Texture2DArray17UploadToGfxDeviceEv
Ofh:_ReadOnlyCollection_1_System_Collections_Generic_IListU3CTU3E_Insert_m4216310986_gshared
Ybh:_ReadOnlyCollection_1_System_Collections_Generic_IListU3CTU3E_set_Item_m1532495847_gshared
rR:__ZN15SerializeTraitsINSt3__24pairI8StateKey10StateRangeEEE8TransferI18StreamedBinaryReadILb1EEEEvRS4_RT_
q0:__Z14FMODMemoryFreePvjPKc
Q4k:_InternalEnumerator_1_System_Collections_IEnumerator_Reset_m3731327620_AdjustorThunk
sIb:__ZThn28_N8RendererD0Ev
pYi:__ZL68HandHeldCam_t576099347_CustomAttributesCacheGenerator_baseSwayAmountP21CustomAttributesCache
yr:__ZN12NavMeshAgent10SmartResetEv
ndf:_tt_cmap0_validate
D4l:_YieldInstruction_t3462875981_marshal_pinvoke_cleanup
Kcg:_Evidence_get_IsSynchronized_m1427392003
Ogf:_cf2_glyphpath_moveTo
AZl:_SharedBetweenAnimatorsAttribute__ctor_m1221241062
Fne:__ZN5physx3Scb4Body9syncStateEv
cwf:__ZN13RuntimeStaticI19UnityConnectServiceE16StaticInitializeEPv
Uqi:__ZL47File_t1930543328_CustomAttributesCacheGeneratorP21CustomAttributesCache
oGg:_DateTimeOffset__ctor_m1796624924
iag:_SHA512Managed_processLength_m4026382281
rAe:__ZN5physx20SingleAABBUpdateTaskD0Ev
ADm:__ZN15dense_hashtableINSt3__24pairIK10KeyWrapperINS1_IPK11Il2CppImageP11Il2CppClassEEEjEES9_17ReflectionMapHashIS8_EN14dense_hash_mapIS9_jSD_19ReflectionMapEqualsIS8_ENS0_9allocatorISB_EEE9SelectKeyESG_SI_EC2EjRKSD_RKSG_RKSK_
_Vd:__ZN5physx12PxsRigidBody23updatePoseDependenciesVERNS_10PxsContextE
clh:_BaseRaycaster_OnDisable_m1716508791
QRf:_Array_InternalArray__ICollection_Remove_TisKeyValuePair_2_t3716250094_m2566517826_gshared
PKf:__ZN5physx18RepXPropertyFilterINS_2Sn17RepXVisitorReaderINS_21PxVehicleDriveDynDataEEEEclILj653ES3_bbEEvRKNS_14PxPropertyInfoIXT_ET0_T1_T2_EEj
Ral:_InternalEnumerator_1_MoveNext_m1741571735_gshared
fOe:__ZN5physx2Gu12TriangleMesh4loadERNS_13PxInputStreamE
Gmi:__ZL82Enum_t2459695545_CustomAttributesCacheGenerator_Enum_GetUnderlyingType_m3513899012P21CustomAttributesCache
JRb:__Z32TransferEnumWithNameForceIntSizeI14SafeBinaryRead25ProceduralLoadingBehaviorEvRT_RT0_PKc17TransferMetaFlags
AZm:_GC_is_heap_ptr
I6g:_Collection_1_IsValidItem_m429993695_gshared
JIm:__GLOBAL__sub_I_Assembly_cpp
ygi:_TlsServerSettings_set_CertificateRequest_m3419519893
FDa:__Z21PlayerStartFirstSceneb
kO:__ZN7mecanim5human10RetargetToEPKNS0_5HumanEPKNS0_9HumanPoseES6_RKN4math4trsXEPS4_PNS_8skeleton13SkeletonPoseTIS8_EESF_
LI:__ZN7mecanim9animation8SeekClipERKNS0_12StreamedClipERNS0_18StreamedClipMemoryEf
_Jf:__ZN5physx18RepXSerializerImplINS_16PxVehicleDriveNWEE11getTypeNameEv
$yf:__ZN5physx21PxConstraintConnectorD2Ev
tQj:_MethodBuilder_get_Attributes_m3678061338
mn:_emscripten_glIsTexture
XD:__ZN24CompressedAnimationCurveaSERKS_
Otg:_ArrayListWrapper_CopyTo_m793444109
qBi:__ZL79Convert_t2607082565_CustomAttributesCacheGenerator_Convert_ToUInt16_m3265369225P21CustomAttributesCache
Sl:_emscripten_glHint
zim:__ZL24UnresolvedVirtualCall_73P12Il2CppObjectPK10MethodInfo
akf:_ft_var_readpackeddeltas
ala:__ZN6Object15ClassIDToStringEi
HFg:_DateTime_AddMilliseconds_m1813199744_AdjustorThunk
vnj:_SByte_System_IConvertible_ToSByte_m108774324_AdjustorThunk
xQj:_MethodBuilder_GetParameterCount_m467267889
OHl:_Assertion_GetWidth_m1759407754
All:_DelegatePInvokeWrapper_PCMReaderCallback_t3007145346
PRj:_TypeBuilder_IsValueTypeImpl_m1499671481
cvh:_FontData_get_lineSpacing_m4145828566
Swg:_Hashtable_get_IsSynchronized_m836780937
Kcj:_X509ChainStatus_t4278378721_marshal_pinvoke
Fai:_RSAManaged__ctor_m1680944437
pn:_SDL_UpperBlit
iKe:__ZN5physx2Cm12DelegateTaskINS_2Sc5SceneEXadL_ZNS3_13ccdBroadPhaseEPNS_10PxBaseTaskEEEED0Ev
xxj:_GUIStyle_op_Implicit_m781448948
ngb:__Z35GetTextureDecodeValuesWithIntensity16TextureUsageMode17TextureColorSpace10ColorSpacef
Kqg:_Byte_GetHashCode_m2885528842_AdjustorThunk
J1d:__ZNK5physx7NpShape16getContactOffsetEv
HDf:__Z28getPxVehicleWheelDataMRadiusPKN5physx18PxVehicleWheelDataE
Fze:__ZN5physx14PxsAABBManager21processAggregatePairsEPKNS_19AggregateSortedDataE
K9j:_Dictionary_2_OnDeserialization_m2092139626_gshared
lhd:__ZNK12b2MouseJoint10GetAnchorAEv
j0e:_PxCreateCooking
ran:__ZNKSt3__28time_getIwNS_19istreambuf_iteratorIwNS_11char_traitsIwEEEEE16do_get_monthnameES4_S4_RNS_8ios_baseERjP2tm
TZb:__ZN14SafeBinaryRead20OverrideRootTypeNameEPKc
kTb:__ZN9InputAxis7SetNameERKNSt3__212basic_stringIcNS0_11char_traitsIcEENS0_9allocatorIcEEEE
xna:__ZN14FileCacherRead16UnlockCacheBlockEj
I1k:_UIntPtr_get_Size_m537421489
P3h:_X509Certificate_GetUnsignedBigInteger_m3491353542
Qjk:__Z59RuntimeInvoker_Decimal_t724701077_Il2CppObject_Il2CppObjectPK10MethodInfoPvPS2_
WYd:__ZNK5physx12NpBatchQuery23getFilterShaderDataSizeEv
I2b:__Z18Transfer_BlittableI17RemapPPtrTransferLb1E8Vector3fEvRK29SerializationCommandArgumentsR31RuntimeSerializationCommandInfo
Qri:__ZL57StackBehaviour_t1390406961_CustomAttributesCacheGeneratorP21CustomAttributesCache
Od:_emscripten_glUniform1f
j_e:__ZN5physx7profile11EventBufferINS_24PxDefaultContextProviderENS_6shdfnd6MutexTINS0_26WrapperReflectionAllocatorIhEEEENS0_14ScopedLockImplIS7_EENS_24PxProfileNullEventFilterEE10doAddEventINS0_17RelativeStopEventEEEvhtRKT_
zvi:__ZL111ProxyAttribute_t4031752430_CustomAttributesCacheGenerator_ProxyAttribute_GetPropertiesForNewContext_m3587421540P21CustomAttributesCache
X8e:__Z20ParseImageParametersR11UTF16StringRiRN20TextRenderingPrivate16TextFormatChangeE
Td:_emscripten_glUniform1i
m9k:_InternalEnumerator_1_System_Collections_IEnumerator_Reset_m651165750_AdjustorThunk
MZb:__ZN13MonoBehaviour9CallAwakeEv
jJe:__ZN5physx2Sc19ShapeInstancePairLL23postIslandGenSecondPassEv
oCd:__ZN5physx3Cct26CharacterControllerManager16createControllerERKNS_16PxControllerDescE
qmk:__Z66RuntimeInvoker_Void_t1841601450_Int32_t2071877448_SByte_t454417549PK10MethodInfoPvPS2_
$dc:__ZN9ShaderLab16SerializedTagMapaSERKS0_
Fmk:__Z75RuntimeInvoker_Void_t1841601450_Il2CppObject_Int32_t2071877448_Il2CppObjectPK10MethodInfoPvPS2_
gTf:_SetPropertyUtility_SetStruct_TisFillMethod_t1640962579_m1867757822_gshared
n4i:__ZL63Wheel_t3431615477_CustomAttributesCacheGenerator_slideThresholdP21CustomAttributesCache
t$e:__ZN5physx26PxPhysicsInsertionCallbackD2Ev
wyc:__ZN8Material28ApplyMaterialPropertyDrawersEv
Use:__ZN5physx2Sq16BucketPrunerCore12updateObjectERKNS_9PxBounds3ERKNS0_13PrunerPayloadE
wIe:__ZN5physx18PxsDynamicsContext23atomIntegrationParallelEfPKPNS_11PxsBodyCoreEPKPNS_12PxsRigidBodyEjPKNS_2Cm13SpatialVectorEPNS_13PxcSolverBodyEPNS_17PxcSolverBodyDataEPSA_RjSI_RNS_10PxBaseTaskE
D5k:_InternalEnumerator_1_System_Collections_IEnumerator_get_Current_m3680087284_gshared
$O:__ZN11UnityEngine9Animation27CreateAvatarBindingConstantER9TransformPKN7mecanim9animation14AvatarConstantERNS3_6memory9AllocatorE
pWb:__ZN14SafeBinaryRead21TransferSTLStyleArrayINSt3__26vectorIN30RuntimeInitializeOnLoadManager9ClassInfoE13stl_allocatorIS4_L18MemLabelIdentifier12ELi16EEEEEEvRT_17TransferMetaFlags
r2k:_UnitySerializationHolder_GetObjectData_m2280028722
eFl:_PatternCompiler_EmitFalse_m1188949782
T0k:_UInt64_System_IConvertible_ToDateTime_m2412118561
ayc:__ZN9BlobWriteC2ER13dynamic_arrayIhLj16EE24TransferInstructionFlags19BuildTargetPlatform
$ym:__ZNK15dense_hashtableINSt3__24pairIK10KeyWrapperINS1_IPK9FieldInfoP11Il2CppClassEEEjEES9_17ReflectionMapHashIS8_EN14dense_hash_mapIS9_jSD_19ReflectionMapEqualsIS8_ENS0_9allocatorISB_EEE9SelectKeyESG_SI_E13find_positionERSA_
Gs:__ZN12NavMeshAgent14OnNavMeshAddedEv
Tla:__ZN14MessageHandler3GetEv
Uvj:_GUISkin_set_verticalScrollbarThumb_m2647835739
ee:_emscripten_glAttachShader
beh:_ReadOnlyCollection_1__ctor_m1539890895_gshared
UKa:__ZN9GfxDevice13SetActiveTierE12GraphicsTier
_Pg:_Enumerator_System_Collections_IEnumerator_get_Current_m3079057684_AdjustorThunk
mSf:_Array_InternalArray__ICollection_Remove_TisSingle_t2076509932_m2568053761_gshared
C0h:_KeyPairPersistence_get_UserPath_m3433052783
oX:__Z42Animator_CUSTOM_INTERNAL_get_deltaPositionP12Il2CppObjectP8Vector3f
FAd:__ZN5physx2Gu19GetRaycastFuncTableEv
K5g:_Collection_1_ClearItems_m1410275009_gshared
qHm:__ZNK15dense_hashtableINSt3__24pairIK10KeyWrapperIP11Il2CppClassES4_EES5_N6il2cpp8metadata16SZArrayClassHashEN14dense_hash_mapIS5_S4_SA_NS9_19SZArrayClassCompareENS0_9allocatorIS7_EEE9SelectKeyESC_SE_E10test_emptyEj
Uli:__ZL58Decimal_t724701077_CustomAttributesCacheGenerator_MinusOneP21CustomAttributesCache
hFf:__Z44getPxVehicleWheelsSimData_ThresholdLongSpeedPKN5physx22PxVehicleWheelsSimDataE
Vbn:__ZNKSt3__29money_getIcNS_19istreambuf_iteratorIcNS_11char_traitsIcEEEEE6do_getES4_S4_bRNS_8ios_baseERjRNS_12basic_stringIcS3_NS_9allocatorIcEEEE
lUf:_Array_InternalArray__IEnumerable_GetEnumerator_TisKeyframe_t1449471340_m3949799719_gshared
B_b:__Z18Transfer_BlittableI14SafeBinaryReadLb0E11QuaternionfEvRK29SerializationCommandArgumentsR31RuntimeSerializationCommandInfo
Eba:__ZNK13EmscriptenWWW6GetUrlEv
Gjd:__ZN13BoxCollider2D16CheckConsistencyEv
bJe:__ZN5physx17EdgeChangeManager23cleanupBrokenEdgeEventsEPKNS_4EdgeE
eWd:__ZN5physx17PxsContactManager16resetCachedStateEv
Vzh:_InputField_get_inputType_m2187991661
Cca:_tlsf_walk_heap
m3h:_PKCS12_Decode_m731190390
ium:__ZN6il2cpp2vm7Runtime6InvokeEPK10MethodInfoPvPS5_PP15Il2CppException
MBj:_Mathf_DeltaAngle_m1024687732
YHl:_Reference_get_IgnoreCase_m2810892634
mBh:_InputField_ForceLabelUpdate_m1432314039
Jb:invoke_vif
LNb:__ZN14VertexDataInfo13UpdateStreamsEjjjRK19VertexStreamsLayoutRK20VertexChannelsLayout
Kb:invoke_vid
uyi:__ZL67UnverifiableCodeAttribute_t765455733_CustomAttributesCacheGeneratorP21CustomAttributesCache
Mb:invoke_vii
A6k:_InternalEnumerator_1_get_Current_m3444791149_gshared
FGi:__ZL86Component_t3819376471_CustomAttributesCacheGenerator_Component_SendMessage_m3615678587P21CustomAttributesCache
Xle:__ZN5physx13NpVolumeCacheD2Ev
bVi:__ZL82ScrollRect_t1199013257_CustomAttributesCacheGenerator_m_HorizontalScrollbarSpacingP21CustomAttributesCache
_Ih:_Int16_System_IConvertible_ToUInt32_m883204517_AdjustorThunk
vSk:_U3CReloadLevelU3Ec__Iterator2__ctor_m887908483
Fqb:__ZN12TLSAllocatorI14StackAllocatorE16ThreadInitializeEP13BaseAllocator
jtg:_ArrayList_Sort_m2778059513
Snd:__ZN17Physics2DSettings23VirtualRedirectTransferER18StreamedBinaryReadILb1EE
Hqm:__ZN15dense_hashtableINSt3__24pairIK10KeyWrapperI13dynamic_arrayIPK10Il2CppTypeLj4EEEPFvvEEES8_N6il2cpp8metadata19Il2CppSignatureHashEN14dense_hash_mapIS8_SB_SF_NSE_22Il2CppSignatureCompareENS0_9allocatorISC_EEE9SelectKeyESH_SJ_E5clearEv
OOi:__ZL107StackTraceUtility_t1881293839_CustomAttributesCacheGenerator_StackTraceUtility_SetProjectFolder_m2154926761P21CustomAttributesCache
YFe:__ZThn8_N5physx2Sc35ParticleElementRbElementInteraction12onDeactivateEj
lxh:_LayoutGroup_SetChildAlongAxis_m2732017156
mpf:__Z41CanvasRenderer_CUSTOM_DisableRectClippingP12Il2CppObject
v9h:_MD2_Create_m539024737
pyg:_SortedList_get_SyncRoot_m3299704254
wDb:__ZNK14DirectorPlayer7GetTimeEv
Qdl:_InternalEnumerator_1_MoveNext_m1799288398_AdjustorThunk
Pve:__ZN5physx16PxsThreadContextC2EPNS_10PxsContextE
Ryg:_Slot_t2267560602_marshal_pinvoke
yrk:__Z51RuntimeInvoker_UInt16_t986882611_Single_t2076509932PK10MethodInfoPvPS2_
_Wm:_GC_allochblk
yMj:_TypeBuilder_get_Module_m1668298460
Ggj:_SoapAttribute_get_XmlNamespace_m1436066016
F0a:__ZN25SingleBlockMemoryFileDataD0Ev
gsb:__ZNSt3__26vectorI14ConstantStringNS_9allocatorIS1_EEE6assignINS_11__wrap_iterIPS1_EEEENS_9enable_ifIXaasr21__is_forward_iteratorIT_EE5valuesr16is_constructibleIS1_NS_15iterator_traitsISA_E9referenceEEE5valueEvE4typeESA_SA_
Yqd:__ZN5physx3Cct10Controller4moveERNS0_11SweptVolumeERKNS_6PxVec3EffRKNS_19PxControllerFiltersEPKNS_17PxObstacleContextEb
FPi:__ZL98RequiredByNativeCodeAttribute_t1913052472_CustomAttributesCacheGenerator_U3CNameU3Ek__BackingFieldP21CustomAttributesCache
ode:__ZN5physx14NpRigidDynamic17setAngularDampingEf
B1b:__ZNSt3__26vectorI8GUIStyle13stl_allocatorIS1_L18MemLabelIdentifier1ELi16EEE7reserveEj
FIm:__ZN6il2cpp6icalls8mscorlib6System9Threading6Thread27GetSerializedCurrentCultureEP12Il2CppThread
fXj:_CrossPlatformInputManager_UnRegisterVirtualAxis_m1155756970
d6:__Z32AudioSource_Get_Custom_PropPitchP12Il2CppObject
bwl:_CustomAnimationPlayable_get_state_m4168755227
HWf:_Array_InternalArray__IndexOf_TisUInt32_t2149682021_m3231515987_gshared
u9l:_ListPool_1__cctor_m709904475_gshared
jxk:__Z83RuntimeInvoker_Void_t1841601450_QuaternionU26_t4187826802_QuaternionU26_t4187826802PK10MethodInfoPvPS2_
gjc:__Z13RegisterClassI11TimeManagerEvv
g0:__ZN4FMOD8ChannelI11setPositionEjj
q8:__ZN11UnityEngine15CloudWebService16SessionContainer27GetDeleteErrorJsonDataBlockERK8UnityStrS4_RS2_
Zkd:__ZN10Collider2D12SetPolygon2DEP9Polygon2D
CQg:_Enumerator_VerifyState_m4188527104_gshared
RVi:__ZL75ToggleGroup_t1030026315_CustomAttributesCacheGenerator_U3CU3Ef__amU24cache1P21CustomAttributesCache
yOd:__ZN5physx6shdfnd8PoolBaseINS_2Sc12SimStateDataENS0_19ReflectionAllocatorIS3_EEE17releaseEmptySlabsEv
bra:__ZN17BaseObjectManager13StaticDestroyEPv
Dyk:__Z70RuntimeInvoker_Void_t1841601450_Playable_t3667545548_Int32_t2071877448PK10MethodInfoPvPS2_
R_l:_TextGenerationSettings_CompareVector2_m592645251
EHb:__ZNK29LineParametersPropertyBinding12GetPPtrValueERKN11UnityEngine9Animation10BoundCurveE
yHi:__ZL110Graphics_t2412809155_CustomAttributesCacheGenerator_Graphics_DrawProceduralIndirect_m1742458937____argsOffset2P21CustomAttributesCache
fqc:__ZN18PlayableController18DoesPlayableExistsEPK8Playable
RGg:_DBNull_System_IConvertible_ToChar_m3344298044
Nud:__ZN5physx2Gu22closestPtPointTriangleEPNS_6shdfnd3aos5Vec3VES4_S4_Rj
B4h:_X509Certificate_GetObjectData_m3888130484
NVb:__ZNSt3__26vectorIN15ResourceManager10DependencyE13stl_allocatorIS2_L18MemLabelIdentifier51ELi16EEEC2INS_11__wrap_iterIPS2_EEEET_SB_RKS5_PNS_9enable_ifIXaasr21__is_forward_iteratorISB_EE5valuesr16is_constructibleIS2_NS_15iterator_traitsISB_E9referenceEEE5valueEvE4typeE
Nwk:__Z45RuntimeInvoker_IMECompositionMode_t1898275508PK10MethodInfoPvPS2_
tYd:__ZN5physx2Cm8PtrTableC2Ev
gsl:_CustomYieldInstruction_Reset_m3409422382
tEl:_LinkStack_Push_m2660199875
pYl:_Rigidbody2D_set_velocity_m3592751374
a$:__ZN4FMOD6Reverb13setPropertiesEPK22FMOD_REVERB_PROPERTIES
h8d:__ZNK5physx22NpParticleBaseTemplateINS_15PxParticleFluidENS_15NpParticleFluidEE14getRestitutionEv
Vbb:__ZN9DepthPass13PrepareSubsetEjRK10RenderNodeifRK17ShaderReplaceData
Zye:__ZN5physx16PxsBroadPhaseMBP6updateEjjRKNS_23PxcBroadPhaseUpdateDataEPNS_10PxBaseTaskE
i0d:__ZN5physx9NpPhysics18createRigidDynamicERKNS_11PxTransformE
nJd:__ZN5physx6shdfnd5ArrayIPvNS0_19ReflectionAllocatorINS_2Sc18TriggerInteractionEEEE15growAndPushBackERKS2_
sTl:_X509CertificateCollection_Add_m4008705157
Vfj:_MonoMethodMessage_set_Uri_m3218581120
Vvc:__Z18ExtractTagThrowingR11ICallString
Pza:__ZN4PPtrI6ShaderE8TransferI19StreamedBinaryWriteILb0EEEEvRT_
b6g:_Collection_1_IsFixedSize_m1816795498_gshared
I2a:__ZZ23InitPlayerLoopCallbacksvEN40EarlyUpdatePlayerCleanupCachedDatastruct7ForwardEv
fyd:__ZN5physx2Gu17intersectRayAABB2ERKNS_6shdfnd3aos5Vec3VES5_S5_S5_RKNS2_6FloatVERS6_S9_
Apf:__Z34CanvasRenderer_Get_Custom_PropCullP12Il2CppObject
q1d:__ZNK5physx7NpShape17getSphereGeometryERNS_16PxSphereGeometryE
hAd:__ZL18intersectAnyVsMeshILi1EEbPKN5physx2Gu6SphereEPKNS1_7CapsuleEPKNS1_3BoxERKNS1_13RTreeMidphaseERKNS0_11PxTransformERKNS0_11PxMeshScaleEP14LimitedResults
sWb:__Z14resize_trimmedINSt3__26vectorIi13stl_allocatorIiL18MemLabelIdentifier12ELi16EEEEEvRT_j
loh:_MouseButtonEventData_ReleasedThisFrame_m482758300
jIi:__ZL77Mathf_t2336485820_CustomAttributesCacheGenerator_Mathf_SmoothDamp_m1166236953P21CustomAttributesCache
Sbg:__ZN16VirtFuncInvoker1IbP26X509Certificate_t283079845E6InvokeEjPvS1_
aYi:__ZL60AutoCam_t1268445464_CustomAttributesCacheGenerator_turnSpeedP21CustomAttributesCache
GMd:__ZN5physx6shdfnd5ArrayIPvNS0_15InlineAllocatorILj256ENS0_19ReflectionAllocatorINS_2Cm5BlockIhLj128EEEEEEEE15growAndPushBackERKS2_
mug:_ReadOnlyArrayListWrapper_set_Item_m2199017141
Mib:__ZN6Camera6SetFarEf
nTl:_DeriveBytes_DeriveIV_m3343375195
ybg:_X509Certificate_ToString_m1582581274
nvc:__ZNK17AnimationCurveTplI11QuaternionfE13EvaluateClampEfPNS1_5CacheE
Y7f:_RNGCryptoServiceProvider_GetBytes_m167497991
QBa:__ZN6prcoreL12RemapGenericI17TexFormatABGR888817TexFormatARGB8888EEvPKNS_9InnerInfoE
awb:__ZN11GameManager17MainThreadCleanupEv
plm:__ZL25UnresolvedVirtualCall_225P12Il2CppObjecti22UICharInfo_t3056636800PK10MethodInfo
gvm:__ZN6il2cpp6icalls8mscorlib6System18CollectTypeMethodsINS_5utils10functional6FilterINSt3__212basic_stringIcNS7_11char_traitsIcEENS7_9allocatorIcEEEENS4_11StringUtils23CaseInsensitiveComparerEEEEEvP11Il2CppClassPKSH_jRKT_RNS7_6vectorIPK10MethodInfoNSB_ISR_EEEERA65535_b
SNj:_TypeBuilder_get_Assembly_m492491492
ekm:__ZL25UnresolvedVirtualCall_160P12Il2CppObject23RaycastResult_t21186376PK10MethodInfo
Y4e:__Z52Register_UnityEngine_Rigidbody_INTERNAL_get_rotationv
L8g:_Collection_1_InsertItem_m1225429801_gshared
Rjd:__ZN10Collider2D12AddToManagerEv
nba:__ZN11UnityEngine15CloudWebService17CloudServiceEvent12ToJsonStringER8UnityStrjPKc
Uhn:dynCall_viiiiiifi
U3d:__ZNK5physx7NpCloth24getParticleAccelerationsEPNS_6PxVec4E
Pif:_UNITY_tt_slot_init
H5f:_HMACSHA512__cctor_m1167457383
bZc:__ZL22Transfer_ManagedObjectI9JSONWriteLb1EEvRK29SerializationCommandArgumentsR31RuntimeSerializationCommandInfo
mMa:__ZN9GfxDevice20DestroyRenderSurfaceER12ObjectHandleI17RenderSurface_TagP17RenderSurfaceBaseE
u$m:__ZNSt3__26__treeINS_12__value_typeINS_12basic_stringIcNS_11char_traitsIcEENS_9allocatorIcEEEEPFvvEEENS_19__map_value_compareIS7_SA_NS_4lessIS7_EELb1EEENS5_ISA_EEE25__emplace_unique_key_argsIS7_JRKNS_21piecewise_construct_tENS_5tupleIJOS7_EEENSL_IJEEEEEENS_4pairINS_15__tree_iteratorISA_PNS_11__tree_nodeISA_PvEEiEEbEERKT_DpOT0_
klc:__ZL24PrepareSpriteRenderNodesILb1EEvR35RenderNodeQueuePrepareThreadContext
GZa:__ZN9GfxDevice22UpdateComputeResourcesEjPK9TextureIDPK16TextureDimensionPKijPKjjPK15ComputeBufferIDS7_PK20ComputeBufferCounterjSC_S2_S5_S9_SF_
YMb:__ZN12_GLOBAL__N_15qAsinEff
q2f:_Dictionary_2_Do_ICollectionCopyTo_TisKeyValuePair_2_t3749587448_m2536766696_gshared
lrl:_ComputeBuffer_SetData_m3972938986
Gqb:__ZN12TLSAllocatorI14StackAllocatorE13ThreadCleanupEv
F4:__Z18GetAudioManagerPtrv
han:__ZNKSt3__28time_getIcNS_19istreambuf_iteratorIcNS_11char_traitsIcEEEEE10__get_yearERiRS4_S4_RjRKNS_5ctypeIcEE
kYl:_Rigidbody_Sleep_m416287251
quk:__Z67RuntimeInvoker_Void_t1841601450_Int16_t4041245914_Int16_t4041245914PK10MethodInfoPvPS2_
INb:__ZN4Mesh27SwizzleVertexColorsIfNeededEb
Hrb:__Z27FindActiveTransformWithPathPKc
Emk:__Z63RuntimeInvoker_DSAParameters_t1872138834_BooleanU26_t3168250738PK10MethodInfoPvPS2_
xol:_CanvasGroup_get_alpha_m1304564441
Jhe:__ZN5physx16PxsIslandManager14setEdgeRigidCMERKNS_20PxsIslandManagerHookIjLj4294967295EEEPNS_17PxsContactManagerE
Sxb:__ZN12BaseRendererD0Ev
w3j:_ColorCorrectionLut_SetIdentityLut_m2290828159
Lob:__Z29StdTemplateConversionFunctionIbyEbPvR14SafeBinaryRead
Eua:__ZN7Texture5ResetEv
Vsk:__Z56RuntimeInvoker_TimeSpan_t3430258949_TimeSpan_t3430258949PK10MethodInfoPvPS2_
BRd:__ZN5physx14NpArticulation25setStabilizationThresholdEf
cIg:_Decimal_Floor_m1662853963
yNe:__ZN5physx2Gu11HeightField7releaseEv
Zec:__ZN24GenerateTypeTreeTransfer21TransferSTLStyleArrayINSt3__26vectorIN9ShaderLab20SerializedSubProgram14ConstantBufferENS1_9allocatorIS5_EEEEEEvRT_17TransferMetaFlags
G7a:__ZNK6Camera7GetNearEv
PQa:__ZN7ApiGLES11UnmapBufferEjN2gl12BufferTargetE
Zqm:__ZN14dense_hash_mapI10KeyWrapperI13dynamic_arrayIPK10Il2CppTypeLj4EEEPFvvEN6il2cpp8metadata19Il2CppSignatureHashENSA_22Il2CppSignatureCompareENSt3__29allocatorINSD_4pairIKS6_S8_EEEEE13set_empty_keyERSG_
xFb:__Z25GetNextAllowedTextureSizeib13TextureFormat
qea:__ZN20LocalFileSystemWebGL4CopyER13FileEntryDataS1_
VYg:_List_1_CheckIndex_m4231572822_gshared
daa:__ZN19CloudServiceHandler6RetainEv
M1m:__ZN6il2cpp2os9Semaphore4WaitEb
Rgd:__ZN15b2FrictionJointD0Ev
udg:_StrongName_Equals_m67226644
_xb:__ZN12BaseRenderer20FlattenToRenderQueueER15RenderNodeQueueRK20DeprecatedSourceData
WOj:_FieldBuilder_get_Attributes_m2174064290
zFe:__ZN5physx2Sc8ClothSim23addCollisionHeightfieldEPKNS0_8ShapeSimE
KTb:__ZN11TimeManager23VirtualRedirectTransferER18StreamedBinaryReadILb1EE
zEa:__Z34scripting_liveness_calculation_endPv
TTm:__ZN6il2cpp2os6ThreadC2Ev
heg:_SecurityFrame_InitFromRuntimeFrame_m45195821
nri:__ZL53TextReader_t1561828458_CustomAttributesCacheGeneratorP21CustomAttributesCache
$Xi:__ZL60AutoCam_t1268445464_CustomAttributesCacheGenerator_moveSpeedP21CustomAttributesCache
ubj:_X509Chain_IsSignedWith_m292245392
r_i:__ZL56NoiseAndGrain_t2135304492_CustomAttributesCacheGeneratorP21CustomAttributesCache
VRf:_Array_InternalArray__ICollection_Remove_TisDateTime_t693205669_m1275668216_gshared
Goc:__ZZN6Camera15InitializeClassEvEN31FunctorImpl_99kTransformChanged4CallEPviR11MessageData
feh:_ReadOnlyCollection_1_System_Collections_Generic_ICollectionU3CTU3E_Remove_m3751131234_gshared
huk:__Z60RuntimeInvoker_Il2CppObject_Il2CppObject_Int32U26_t455636984PK10MethodInfoPvPS2_
XUc:__Z18Transfer_BlittableI8JSONReadLb0E8Vector3fEvRK29SerializationCommandArgumentsR31RuntimeSerializationCommandInfo
uD:__ZN13AnimationClip12Vector3Curve8TransferI14SafeBinaryReadEEvRT_
Jzl:_ChannelServices__cctor_m3534779830
HEm:__ZN6il2cpp2vm6Thread6DetachEP12Il2CppThread
Fef:_Render_Single_Pass
T_f:_Array_InternalArray__set_Item_TisKeyValuePair_2_t1174980068_m4174153963_gshared
cM:__ZN11UnityEngine9Animation31CreateControllerBindingConstantEPKN7mecanim9animation18ControllerConstantEPKNS2_12AnimationSetEPNS1_18ValueArrayConstantEjPKNS2_14AvatarConstantERNS1_6memory9AllocatorE
lim:__ZL24UnresolvedVirtualCall_59P12Il2CppObjectS0_aPK10MethodInfo
Pcm:_EqualityComparer_1__cctor_m2666196678_gshared
tFf:__ZNK5physx22PxVehicleWheelsSimData11getTireDataEj
pwm:_il2cpp_class_get_name
btj:_GUIStyle_Init_m3872198731
eP:__ZN7mecanim8skeleton30SkeletonBuildReverseIndexArrayEPiPKiPKNS0_8SkeletonES6_
S2e:__ZZN9Rigidbody15InitializeClassEvEN35FunctorImpl_465kAnimatorMoveBuiltin4CallEPviR11MessageData
K9m:__ZNKSt3__28time_getIcNS_19istreambuf_iteratorIcNS_11char_traitsIcEEEEE11do_get_dateES4_S4_RNS_8ios_baseERjP2tm
VBf:__ZN5physx2Sn21RepXVisitorReaderBaseINS_22PxVehicleWheelsDynDataEE23extendedIndexedPropertyINS_3Pvd36PxPvdExtendedIndexedPropertyAccessorILj631ES2_KjfEEKNS_18PxUnknownClassInfoEEEvPjRKT_RT0_
JRm:__ZN6il2cpp2os10ThreadImpl5SleepEjb
lye:__ZN5physx14SapPairManager12shrinkMemoryEv
MVl:_X509ExtensionCollection_System_Collections_IEnumerable_GetEnumerator_m2600902401
Yrf:__ZN11UnityEngine9Analytics15UserCustomEvent3AddEPKcb
eV:__ZN19StreamedBinaryWriteILb0EE21TransferSTLStyleArrayI22OffsetPtrArrayTransferIN7mecanim5human6HandleEEEEvRT_17TransferMetaFlags
dFm:__ZNSt3__214__split_bufferIiRNS_9allocatorIiEEEC2EjjS3_
QXb:__ZN15FileSystemEntry4MoveERS_23FileSystemCopyMoveFlags
eZj:_TouchPad_OnEnable_m1379032597
WP:__ZN18AnimatorController23VirtualRedirectTransferER24GenerateTypeTreeTransfer
_ak:_Dictionary_2_System_Collections_Generic_IEnumerableU3CSystem_Collections_Generic_KeyValuePairU3CTKeyU2CTValueU3EU3E_GetEnumerator_m3968773920_gshared
ZLf:__ZN5physx18RepXPropertyFilterINS_2Sn17RepXVisitorWriterINS_27PxVehicleDifferentialNWDataEEEEclILj550ES3_jjEEvRKNS_14PxPropertyInfoIXT_ET0_T1_T2_EEj
h5i:_ListDictionary_FindEntry_m432748847
opn:_glBindSampler__wrapper
XDf:__Z30getPxVehicleWheelDataMToeAnglePKN5physx18PxVehicleWheelDataE
x6l:_UnityAction_1_Invoke_m3523417209_gshared
Ng:_emscripten_set_mouseup_callback
rcc:__Z14resize_trimmedINSt3__26vectorIN9ShaderLab14SerializedPassENS0_9allocatorIS3_EEEEEvRT_j
tZa:__ZN9GfxDevice27SetRandomWriteTargetTextureEi9TextureID
I3i:__ZL93CarController_t563615006_CustomAttributesCacheGenerator_CarController_get_AvgSkid_m1858015060P21CustomAttributesCache
hwl:_CustomAnimationPlayable_get_time_m2832957799
Epl:_Collision_get_gameObject_m1370363400
frk:__Z48RuntimeInvoker_Int64_t909078037_SByte_t454417549PK10MethodInfoPvPS2_
b2h:_PrivateKeyInfo_Normalize_m3959595934
mYf:_Array_InternalArray__ICollection_Add_TisRenderBuffer_t2767087968_m1897569216_gshared
vke:__ZN5physx7NpScene22removeBroadPhaseRegionEj
GJd:__ZL34GeomOverlapCallback_CapsuleCapsuleRKN5physx10PxGeometryERKNS_11PxTransformES2_S5_PNS_2Gu12TriggerCacheE
xda:__ZNK18ScreenManagerWebGL8GetWidthEv
Dje:__ZNK5physx7NpScene23getFilterShaderDataSizeEv
$Jc:__Z39Random_CUSTOM_INTERNAL_get_onUnitSphereP8Vector3f
Jsm:__ZN6il2cpp2vm13MetadataCache33GetFieldDefaultValueDataFromIndexEi
Uwh:_GridLayoutGroup_set_startAxis_m1635162426
hY:__ZN10SampleClipD2Ev
pCl:_SynchronizationAttribute_EnterContext_m2984912761
Rmi:__ZL73Enum_t2459695545_CustomAttributesCacheGenerator_Enum_ToObject_m2601523252P21CustomAttributesCache
aOg:_CultureInfo_construct_internal_locale_from_name_m971766383
RCl:__ZN16VirtFuncInvoker0IP21WaitHandle_t677569169E6InvokeEjPv
IRm:__ZN6il2cpp2os10ThreadImpl13SetWaitObjectEPNS0_5posix15PosixWaitObjectE
Mqg:_Byte_Equals_m368616327_AdjustorThunk
sYf:_Array_InternalArray__ICollection_Add_TisUIVertex_t1204258818_m3869382594_gshared
jif:_cff_cmap_unicode_init
lLg:_Enum_ToObject_m2460371738
q_h:_PrimalityTests_Test_m1088386156
Ana:__ZN14FileCacherRead13GetFileLengthEv
ORc:__Z36Event_CUSTOM_Internal_SetNativeEvent13Il2Cpp_IntPtr
$jm:__ZL25UnresolvedVirtualCall_155P12Il2CppObject40CustomAttributeTypedArgument_t1498197914S1_PK10MethodInfo
n5m:_readlink
RGl:_ExpressionAssertion__ctor_m2408911632
P0f:_Array_Resize_TisVector3_t2243707580_m893658391_gshared
L6k:_InternalEnumerator_1_System_Collections_IEnumerator_get_Current_m4259662004_AdjustorThunk
r4f:_Array_InternalArray__get_Item_TisKeyframe_t1449471340_m1003508933_gshared
J0m:__ZN6il2cpp8metadata14Il2CppTypeHash4HashEPK10Il2CppType
fFj:_ParticleSystem_U3CClearU3Em__2_m1781329972
g3h:_StrongName_get_PublicKeyToken_m1968460885
LKb:__ZNK6Sprite9GetBoundsE8Vector2fbb
xzk:__Z87RuntimeInvoker_Boolean_t3825574718_Ray_t2469606224_Single_t2076509932_Int32_t2071877448PK10MethodInfoPvPS2_
TOf:__ZN5physx15PxVehicleUpdate13updateNoDriveEfRKNS_6PxVec3EffRKNS_43PxVehicleDrivableSurfaceToTireFrictionPairsEPNS_16PxVehicleNoDriveEPNS_25PxVehicleWheelQueryResultEPNS_29PxVehicleConcurrentUpdateDataE
QQ:__ZN7mecanim12statemachine13StateConstant8TransferI14SafeBinaryReadEEvRT_
sPa:__ZN11ContextGLES6CreateEi
Hzd:__ZN5physx6shdfnd5ArrayINS_10PxTriangleENS0_19ReflectionAllocatorIS2_EEE15growAndPushBackERKS2_
uMh:_BinaryReader_Dispose_m4249456877
CVl:_X509CrlEntry_get_Extensions_m1330698752
dgg:_String_System_IConvertible_ToType_m512800076
p8b:__Z19TransferField_ArrayI18StreamedBinaryReadILb0EE27Converter_SimpleNativeClassI17AnimationCurveTplIfEEEvRK23StaticTransferFieldInfoR31RuntimeSerializationCommandInfoRT0_
_bi:_CipherSuite_createEncryptionCipher_m1926075645
PAc:__Z48Camera_CUSTOM_INTERNAL_CALL_ViewportToWorldPointP12Il2CppObjectRK8Vector3fRS1_
rqb:__ZN14StackAllocator16FrameMaintenanceEb
Zud:__ZL11SweepBoxBoxPKN5physx3Cct9SweepTestEPKNS0_11SweptVolumeEPKNS0_11TouchedGeomERKNS_14PxExtendedVec3ERKNS_6PxVec3ERNS0_12SweptContactE
Opm:__ZNK15dense_hashtableI10KeyWrapperIPK19Il2CppGenericMethodES4_N6il2cpp8metadata23Il2CppGenericMethodHashEN14dense_hash_setIS4_S7_NS6_26Il2CppGenericMethodCompareENSt3__29allocatorIS4_EEE8IdentityES9_SC_E5beginEv
gia:__ZNK10GameObject20QueryComponentByTypeEPKN5Unity4TypeE
oRg:_Enumerator_MoveNext_m1367380970_AdjustorThunk
mRj:_OpCode_GetHashCode_m2974727122
Hld:__ZN16Physics2DManager29ConvertCollision2DToScriptingEP11Collision2D
iAb:__ZN16GraphicsSettings8TransferI18StreamedBinaryReadILb1EEEEvRT_
$bi:_CipherSuite_createDecryptionCipher_m1118350455
c8e:__ZN20TextRenderingPrivate12GetFontPathsERNSt3__26vectorINS0_12basic_stringIcNS0_11char_traitsIcEENS0_9allocatorIcEEEENS5_IS7_EEEE
yFl:_PatternCompiler_EmitReference_m1381860071
eKg:_Double_System_IConvertible_ToInt16_m4200640326
QDc:__Z53Register_UnityEngine_GameObject_get_activeInHierarchyv
YPj:_GenericTypeParameterBuilder_get_IsGenericType_m1883522222
Ixk:__Z90RuntimeInvoker_Single_t2076509932_Single_t2076509932_Single_t2076509932_Single_t2076509932PK10MethodInfoPvPS2_
Eja:__ZL30InitializeCoreScriptingClassesv
jzk:__Z49RuntimeInvoker_Void_t1841601450_Scene_t1684909666PK10MethodInfoPvPS2_
F9g:_Collection_1_CheckWritable_m3938993573_gshared
Jh:_glBlitFramebuffer
K5i:_NameObjectCollectionBase_GetObjectData_m699981132
E1a:__ZN17ArchiveFileSystem5TouchER13FileEntryData
Ape:__ZNK5physx2Sc5Scene17prefetchForRemoveERKNS0_10StaticCoreE
Igi:_SecurityParameters_set_Cipher_m3888132335
JJm:_Firing__ctor_m512376930
y_h:_BigInteger_GeneratePseudoPrime_m2606361440
oGh:_DateTimeFormatInfo_get_ShortTimePattern_m20923983
b$b:__Z35Transfer_Blittable_SingleValueFieldI14SafeBinaryReadhEvRT_R17GeneralMonoObjectRK23StaticTransferFieldInfo
iUi:__ZL140U3CMouseDragOutsideRectU3Ec__Iterator1_t2599668326_CustomAttributesCacheGenerator_U3CMouseDragOutsideRectU3Ec__Iterator1_Dispose_m2134284531P21CustomAttributesCache
bLk:__Z57RuntimeInvoker_ContactPoint_t1376425630_Int32_t2071877448PK10MethodInfoPvPS2_
Y7d:__ZN5physx22NpParticleBaseTemplateINS_15PxParticleFluidENS_15NpParticleFluidEE13setVelocitiesEjRKNS_16PxStrideIteratorIKjEERKNS4_IKNS_6PxVec3EEE
gnk:__Z129RuntimeInvoker_Int32_t2071877448_Il2CppObject_Int32_t2071877448_Int32_t2071877448_Il2CppObject_Int32_t2071877448_SByte_t454417549PK10MethodInfoPvPS2_
U1h:_EncryptedPrivateKeyInfo_get_Algorithm_m2779196942
Bgj:_RemotingServices_GetRealProxy_m620317996
mhb:__ZN13dynamic_arrayI11CulledLightLj4EE6insertEPS0_PKS0_S4_
s4k:_ArrayReadOnlyList_1_RemoveAt_m2270349795_gshared
Ifm:_Predicate_1_Invoke_m2060780095_gshared
_wb:__ZN10TagManager23VirtualRedirectTransferER18StreamedBinaryReadILb1EE
Fsm:__ZN6il2cpp2vm13MetadataCache23GetInterfaceOffsetIndexEi
tp:FUNCTION_TABLE_vif
up:FUNCTION_TABLE_vid
wp:FUNCTION_TABLE_vii
f4a:_UNITY_png_create_write_struct
idd:__ZN13InitialModuleD2Ev
emk:__Z149RuntimeInvoker_Boolean_t3825574718_Int32_t2071877448_Il2CppObject_Int32_t2071877448_Int32_t2071877448_Il2CppObject_Int32_t2071877448_SByte_t454417549PK10MethodInfoPvPS2_
$wa:__ZN7Texture23VirtualRedirectTransferER24GenerateTypeTreeTransfer
F7e:_UNITY_FT_Set_Transform
Umc:__ZNK32RendererMaterialAnimationBinding12SetPPtrValueERKN11UnityEngine9Animation10BoundCurveEi
UOm:__ZN6il2cpp8metadata15GenericMetadata20RegisterGenericClassEP18Il2CppGenericClass
jCj:_Matrix4x4_SetRow_m117954573_AdjustorThunk
zKg:_Double_CompareTo_m3968040230_AdjustorThunk
Von:_glDeleteFramebuffers__wrapper
bLi:__ZL83Physics_t634932869_CustomAttributesCacheGenerator_Physics_OverlapSphere_m3967613486P21CustomAttributesCache
Rxh:_Image_get_overrideSprite_m706080347
cDc:__Z36Register_UnityEngine_RectOffset_Initv
u7h:_BigInteger_ModInverse_m1881894572
gum:__ZN6il2cpp2vm7Runtime17GetDelegateInvokeEP11Il2CppClass
zce:__ZNK5physx15NpActorTemplateINS_14PxRigidDynamicEE14getOwnerClientEv
_yf:__ZN5physx25PxVehicleConstraintShader15getSerializableEv
xVi:__ZL59Slider_t297367283_CustomAttributesCacheGenerator_m_FillRectP21CustomAttributesCache
QGb:__ZN28EnlightenRendererInformation8TransferI14SafeBinaryReadEEvRT_
da:invoke_viiiiiifi
Jgb:__ZN14qsort_internal6_QSortIP16RenderObjectDatai25RenderPrePassObjectSorterEEvT_S4_T0_T1_
sti:__ZL69DefaultDependencyAttribute_t3858269114_CustomAttributesCacheGeneratorP21CustomAttributesCache
ZYd:__ZN5physx12NpBatchQuery13getUserMemoryEv
tD:__Z14resize_trimmedINSt3__26vectorIN13AnimationClip12Vector3CurveE13stl_allocatorIS3_L18MemLabelIdentifier25ELi16EEEEEvRT_j
i$a:__ZNK15Lz4Decompressor16DecompressMemoryEPKvPjPvS2_
Y0j:_MobileInput_GetButtonUp_m3649974618
$cf:_UNITY_tt_face_build_cmaps
qva:__ZN29SerializeTraitsForStringTypesINSt3__212basic_stringIcNS0_11char_traitsIcEE13stl_allocatorIcL18MemLabelIdentifier1ELi16EEEEE19ResizeSTLStyleArrayERS7_iS5_
NHj:_Ray_ToString_m2019179238
uod:__ZN11Rigidbody2D8TransferI24GenerateTypeTreeTransferEEvRT_
Zza:__Z35UnityPropertySheet_MakeSortedColorsRKNSt3__23mapIN9ShaderLab16FastPropertyNameE10ColorRGBAfNS_4lessIS2_EENS_9allocatorINS_4pairIKS2_S3_EEEEEER10vector_mapIS2_S3_S5_NS6_INS7_IS2_S3_EEEEE
fp:FUNCTION_TABLE_iiiiiiffiiiiiiiiiffffiii
gAh:_InputField_get_caretPositionInternal_m3011712053
mcf:_UNITY_tt_face_load_os2
rMc:__ZNK21ScriptingObjectOfTypeI9Texture3DEptEv
sDe:__ZN5physx2GuL34fullContactsGenerationSphereConvexERKNS0_8CapsuleVERKNS0_11ConvexHullVERKNS_6shdfnd3aos12PsTransformVESB_PNS0_17PersistentContactERjRNS0_13ContactBufferEbRNS0_25PersistentContactManifoldERNS8_5Vec3VERKNS8_6FloatVEb
cde:__ZN5physx19NpRigidBodyTemplateINS_14PxRigidDynamicEE16setRigidBodyFlagENS_15PxRigidBodyFlag4EnumEb
n9h:_HMAC_get_Key_m2528863640
sah:_Collection_1_IsSynchronized_m1366278230_gshared
Nyi:__ZL93StringBuilder_t1221177846_CustomAttributesCacheGenerator_StringBuilder_AppendLine_m1686706871P21CustomAttributesCache
uMd:__ZN5physx6shdfnd8PoolBaseINS_2Sc19ConstraintGroupNodeENS0_19ReflectionAllocatorIS3_EEE17releaseEmptySlabsEv
p1b:__Z29Transfer_Blittable_ArrayFieldI14SafeBinaryRead8Vector4fEvRT_R9ArrayInfoRK23StaticTransferFieldInfo
iQf:_Array_get_swapper_TisInt32_t2071877448_m2837069166_gshared
Uea:__ZN15FileSystemEntry11CreateAsDirEv
Snh:__ZN16VirtFuncInvoker1IP22MouseState_t3572864619iE6InvokeEjPvi
NCf:__Z56setPxVehicleTireLoadFilterDataMMaxFilteredNormalisedLoadPN5physx27PxVehicleTireLoadFilterDataEf
RRm:__GLOBAL__sub_I_RCW_cpp
Zqd:__ZN5physx3Cct8SweptBoxD2Ev
RTm:__ZN6il2cpp2os26LibraryNamePrefixAndSuffixD2Ev
HMi:__ZL53UILineInfo_t3621277874_CustomAttributesCacheGeneratorP21CustomAttributesCache
Pte:__ZN5physx2Cm12DelegateTaskINS_13PxsCCDContextEXadL_ZNS2_12postCCDSweepEPNS_10PxBaseTaskEEEED0Ev
dJl:_Parser_IsExplicitCapture_m4221197515
CHg:_Decimal_System_IConvertible_ToInt16_m3159038792
N5d:__ZN5physx2Sc9ClothCore16setContactOffsetEf
dI:__ZN7mecanim9animation12EvaluateClipEPKNS0_4ClipEPKNS0_9ClipInputEPNS0_10ClipMemoryEPNS0_10ClipOutputE
jDd:__ZN5physx3Cct9SweepTest15onObstacleAddedEjPKNS_17PxObstacleContextERKNS_6PxVec3ES7_f
y9e:__ZN20TextRenderingPrivate7GUIText18GetFontAndMaterialEv
eKd:__ZN5physx2Gu10SupportMapD2Ev
kHb:__ZN4PPtrI11LightProbesE8TransferI18StreamedBinaryReadILb0EEEEvRT_
jyl:_ComVisibleAttribute__ctor_m1789587486
nUd:__ZNK5physx15NpActorTemplateINS_18PxArticulationLinkEE22getClientBehaviorFlagsEv
AUj:_MonoMethodInfo_GetReturnType_m2864247130
zkd:__ZN16Physics2DManager25DestroyColliderCollisionsEP10Collider2D
Yi:_JS_WebRequest_Release
INh:_DirectoryNotFoundException__ctor_m2242202556
oUd:__ZNK5physx15NpActorTemplateINS_18PxArticulationLinkEE12getAggregateEv
Tmb:__ZNSt3__26__treeINS_12__value_typeINS_12basic_stringIcNS_11char_traitsIcEENS_9allocatorIcEEEE17MessageIdentifierEENS_19__map_value_compareIS7_S9_NS_4lessIS7_EELb1EEENS5_IS9_EEE7destroyEPNS_11__tree_nodeIS9_PvEE
eig:_String_CreateString_m2448464375
$cj:_X509SubjectKeyIdentifierExtension__ctor_m2959112706
mSj:_FieldInfo_get_IsNotSerialized_m2322769148
V8c:__ZN14EmissionModule5ResetEv
eke:__ZNK5physx7NpScene18getStaticStructureEv
BCi:__ZL68Math_t2022911894_CustomAttributesCacheGenerator_Math_Max_m2671311541P21CustomAttributesCache
Ste:__ZN5physx13PxsCCDContext12postCCDSweepEPNS_10PxBaseTaskE
SOm:__ZN6il2cpp8metadata15GenericMetadata7InflateEPK19Il2CppGenericMethodPK20Il2CppGenericContext
tUj:_MonoGenericCMethod_get_ReflectedType_m2689239043
wfb:__ZN22PerThreadPageAllocatorC2Ev
tah:_Collection_1_IsFixedSize_m499196375_gshared
qsh:_ColorTween_set_startColor_m3546206870_AdjustorThunk
Nbg:_String_ParseDecimal_m3596063331
w4l:_WheelFrictionCurve_get_stiffness_m2528923245
sSe:__ZN5physx6shdfnd10Foundation19AlignCheckAllocator28deregisterAllocationListenerERNS_20PxAllocationListenerE
PTd:__ZN5physx2Sc21ArticulationJointCore12setChildPoseERKNS_11PxTransformE
y9k:_InternalEnumerator_1_get_Current_m4083613828_gshared
Xz:__ZNSt3__26vectorI4PPtrI13AnimationClipE13stl_allocatorIS3_L18MemLabelIdentifier25ELi16EEE6assignINS_11__wrap_iterIPS3_EEEENS_9enable_ifIXaasr21__is_forward_iteratorIT_EE5valuesr16is_constructibleIS3_NS_15iterator_traitsISD_E9referenceEEE5valueEvE4typeESD_SD_
BDm:__ZN13Il2CppHashMapINSt3__24pairIPK9EventInfoP11Il2CppClassEEj17ReflectionMapHashIS7_E19ReflectionMapEqualsIS7_ENS0_9allocatorINS1_IK10KeyWrapperIS7_EjEEEEEC2EjRKS9_RKSB_
GQc:__ZN8GUIState8EndOnGUIEv
ulg:_UnicodeEncoding_GetString_m542738941
CSc:__Z32GUIStyle_Set_Custom_PropWordWrapP12Il2CppObjecth
Wif:_UNITY_TT_Get_VMetrics
hNh:_Path_InsecureGetFullPath_m2635272425
tLi:__ZL92Rigidbody_t4233889191_CustomAttributesCacheGenerator_Rigidbody_AddForce_m3219459786____mode1P21CustomAttributesCache
hzg:_Enumerator_Clone_m1124749523
mFg:_DateTime_System_IConvertible_ToUInt32_m1363211018
ewe:__ZN5physx33solveContactCoulombBlockWriteBackEPKNS_23PxcSolverConstraintDescEjRNS_16PxcSolverContextEPNS_25PxcThresholdStreamElementEjPi
Jmj:_RuntimeMethodHandle__ctor_m1162528746
F$g:_List_1_AsReadOnly_m4108578222_gshared
TDe:__ZN5physx9PxTaskMgr17submitUnnamedTaskERNS_6PxTaskENS_10PxTaskType4EnumE
dpj:_DSA__ctor_m613430209
oQf:_Array_get_swapper_TisPlayable_t3667545548_m4216505466_gshared
aTf:_SetPropertyUtility_SetStruct_TisSingle_t2076509932_m3849235084_gshared
LRa:__ZN7Texture21GetMasterTextureLimitEv
gEm:__ZN6il2cpp2vm10Reflection12HasAttributeEP12Il2CppObjectP11Il2CppClass
D5a:_UNITY_png_write_sRGB
pXc:__ZN8JSONRead21TransferSTLStyleArrayI13dynamic_arrayI4AABBLj4EEEEvRT_18MemLabelIdentifier17TransferMetaFlags
Y5l:_InvokableCall_1__ctor_m121193486_gshared
uia:__ZN9ShaderLabL25StaticInitializeShaderLabEPv
vbk:_Dictionary_2_ContainsKeyValuePair_m3818021458_gshared
Lre:__ZNK5physx2Sq12BucketPruner5sweepERKNS0_9ShapeDataERKNS_6PxVec3ERfRNS0_14PrunerCallbackE
T:Math_max
Dah:_Collection_1_System_Collections_IList_Insert_m1511106741_gshared
Sim:__ZL24UnresolvedVirtualCall_92P12Il2CppObjectPK10MethodInfo
owm:_il2cpp_class_get_methods
kNh:_Path_CanonicalizePath_m383914732
Zb:invoke_viiiiiffii
V3j:_Enumerator_System_Collections_IEnumerator_get_Current_m1631145297_gshared
ptg:_ArrayList_Synchronized_m2395071980
ZTm:__ZN6il2cpp2os6Thread16GetCurrentThreadEv
wIj:_Rect_get_min_m2549872833
n0e:__ZN5physx6shdfnd8internal8HashBaseINS0_4PairIKPKNS0_14NamedAllocatorEPKcEES6_NS0_4HashIS6_EENS1_11HashMapBaseIS6_S9_SC_NS0_20NonTrackingAllocatorEE6GetKeyESE_Lb1EE15reserveInternalEj
RSh:_UnexceptionalStreamWriter_Write_m3206913035
vil:_UnityAnalyticsHandler_t3238795095_marshal_pinvoke_back
FQb:__ZThn28_N14SpriteRendererD1Ev
Lxb:__ZN10TagManager8TransferI19StreamedBinaryWriteILb0EEEEvRT_
Rac:__ZN11PreloadData23VirtualRedirectTransferER18StreamedBinaryReadILb0EE
l_m:__ZN6il2cpp6icalls8mscorlib6System10ReflectionL40il2cpp_class_get_generic_type_definitionEP11Il2CppClass
bpj:_DESTransform_ProcessBlock_m2826669227
Ztk:__Z115RuntimeInvoker_Void_t1841601450_Il2CppObject_Int32_t2071877448_Int32_t2071877448_SByte_t454417549_Int32_t2071877448PK10MethodInfoPvPS2_
bJh:_Int16_CompareTo_m3493496879
wEk:__Z36RuntimeInvoker_Direction_t1525323322PK10MethodInfoPvPS2_
b_i:__ZL64ContrastStretchEffect_t3463546216_CustomAttributesCacheGeneratorP21CustomAttributesCache
_Ii:__ZL56RenderTexture_t2666733923_CustomAttributesCacheGeneratorP21CustomAttributesCache
AOi:__ZL56ColorWriteMask_t926634530_CustomAttributesCacheGeneratorP21CustomAttributesCache
cLb:__ZN6Sprite17MainThreadCleanupEv
p6i:_TypeConverterAttribute_get_ConverterTypeName_m2296240606
Kxi:__ZL61SignatureDescription_t89145500_CustomAttributesCacheGeneratorP21CustomAttributesCache
_8k:_InternalEnumerator_1_MoveNext_m3389738333_AdjustorThunk
y1:__ZN10AudioMixer14UpdateMuteSoloEv
D0b:__ZNSt3__26vectorINS_12basic_stringIcNS_11char_traitsIcEE13stl_allocatorIcL18MemLabelIdentifier1ELi16EEEES4_IS7_LS5_1ELi16EEE6assignINS_11__wrap_iterIPS7_EEEENS_9enable_ifIXaasr21__is_forward_iteratorIT_EE5valuesr16is_constructibleIS7_NS_15iterator_traitsISF_E9referenceEEE5valueEvE4typeESF_SF_
e6a:__Z17GetMonoManagerPtrv
Oql:_Component_GetComponents_m637589504
C$d:__ZN5physx6shdfnd5ArrayINS_3Scb13MaterialEventENS0_19ReflectionAllocatorIS3_EEE15growAndPushBackERKS3_
l2g:_Stack_1_System_Collections_ICollection_get_SyncRoot_m3151629354_gshared
eEh:_MaskableGraphic_UnityEngine_UI_IClippable_get_gameObject_m954171032
Nxa:__ZN9ShaderLab10SubProgram7CompileEv
hKa:__ZNSt3__218__insertion_sort_3IRNS_4lessIN22BuiltinResourceManager8ResourceEEEPS3_EEvT0_S7_T_
dNa:__ZN9GfxDevice12PresentFrameEPK14ChannelAssigns
xQk:_PlaceTargetWithMouse_Update_m2003849908
jOd:__ZN5physx2Sc5Scene11onBodySleepEPNS0_7BodySimE
Br:__ZN6Object12SetHideFlagsEi
V$a:__ZN10MemoryFileC2E18MemLabelIdentifierP14MemoryFileData14FilePermission
Jhj:_TrackingServices_NotifyUnmarshaledObject_m1794048369
gmm:__ZN6il2cpp2vm5Class20FromGenericParameterEPK22Il2CppGenericParameter
X$l:_Texture2D_GetPixels_m643504232
Svi:__ZL59RemotingServices_t2399536837_CustomAttributesCacheGeneratorP21CustomAttributesCache
Hrd:__ZL28GeomMTDCallback_PlaneCapsuleRN5physx6PxVec3ERfRKNS_10PxGeometryERKNS_11PxTransformES5_S8_
Bqa:__ZN15GlobalCallbacksC2Ev
Yrb:__ZN11AssetBundle8TransferI14SafeBinaryReadEEvRT_
Myk:__Z97RuntimeInvoker_Void_t1841601450_PlayableU26_t3233213460_Int32_t2071877448_PlayableU26_t3233213460PK10MethodInfoPvPS2_
i$f:_Array_InternalArray__set_Item_TisLabelFixup_t4090909514_m565370771_gshared
Bld:__ZN7b2World10CreateBodyEPK9b2BodyDef
aom:__ZN15dense_hashtableINSt3__24pairIK10KeyWrapperIPK19Il2CppGenericMethodEPK26Il2CppGenericMethodIndicesEES6_N6il2cpp8metadata23Il2CppGenericMethodHashEN14dense_hash_mapIS6_SA_SE_NSD_26Il2CppGenericMethodCompareENS0_9allocatorISB_EEE9SelectKeyESG_SI_ED2Ev
hym:_FieldWithTarget_set_staticString_m2234360111
b9e:_UNITY_FT_New_Memory_Face
c$d:__ZNK5physx10NpMaterial18getDynamicFrictionEv
jFi:__ZL74X509Crl_t1699034837_CustomAttributesCacheGenerator_U3CU3Ef__switchU24map13P21CustomAttributesCache
Vlj:_SerializationEntry__ctor_m1619256036_AdjustorThunk
W2a:__ZZ23InitPlayerLoopCallbacksvEN43PostLateUpdatePlayerSendFrameCompletestruct7ForwardEv
Wx:__ZNSt3__27__sort3IRPFbRK8Vector2fS3_EPS1_EEjT0_S8_S8_T_
jic:__ZN15ApplicationInfo14GetSandboxTypeEv
Z$d:__ZN5physx9NpPhysics16createConvexMeshERNS_13PxInputStreamE
Gwl:_Playable_IsValid_m2102916683_AdjustorThunk
X2b:__Z18Transfer_BlittableI17RemapPPtrTransferLb1EhEvRK29SerializationCommandArgumentsR31RuntimeSerializationCommandInfo
EVm:__ZNSt3__26vectorIjNS_9allocatorIjEEE26__swap_out_circular_bufferERNS_14__split_bufferIjRS2_EE
_hb:__ZN16ReflectionProbes40UpdateRealtimeReflectionProbesTimeslicedEv
cEm:__ZN15dense_hashtableINSt3__24pairIK10KeyWrapperINS1_IPK14Il2CppAssemblyP11Il2CppClassEEEjEES9_17ReflectionMapHashIS8_EN14dense_hash_mapIS9_jSD_19ReflectionMapEqualsIS8_ENS0_9allocatorISB_EEE9SelectKeyESG_SI_E14squash_deletedEv
g9l:_ListPool_1_Get_m529219189_gshared
tNm:__ZNSt3__26__treeINS_12__value_typeIP24Il2CppReflectionAssemblyPvEENS_19__map_value_compareIS3_S5_NS_4lessIS3_EELb1EEENS_9allocatorIS5_EEE16__insert_node_atEPNS_16__tree_node_baseIS4_EERSF_SF_
ywa:__ZN13RenderManager16SetCurrentCameraEP6Camera
vQj:_MethodBuilder_GetBaseDefinition_m774166361
Pom:__ZNK15dense_hashtableI10KeyWrapperIPK17Il2CppGenericInstES4_N6il2cpp8metadata21Il2CppGenericInstHashEN14dense_hash_setIS4_S7_NS6_24Il2CppGenericInstCompareENSt3__29allocatorIS4_EEE8IdentityES9_SC_E10test_emptyERK30dense_hashtable_const_iteratorIS4_S4_S7_SE_S9_SC_E
wNd:__ZN5physx2Sq17SceneQueryManager8addShapeERKNS_7NpShapeERKNS_12PxRigidActorEbPNS_9PxBounds3E
Aec:__ZN18StreamedBinaryReadILb1EE21TransferSTLStyleArrayI13dynamic_arrayIN9ShaderLab21SerializedBindChannelELj4EEEEvRT_17TransferMetaFlags
$_m:__ZN6il2cpp5utils5MatchENSt3__212basic_stringIcNS1_11char_traitsIcEENS1_9allocatorIcEEEEjRKS7_j
naf:_UNITY_FT_Destroy_Class_psnames_module_class
uid:__ZNK12b2WheelJoint17GetReactionTorqueEf
aFl:_MRUList_Evict_m2430323183
Jeh:_ReadOnlyCollection_1_System_Collections_Generic_ICollectionU3CTU3E_Remove_m1060547576_gshared
kQl:_Slider_get_reverseValue_m3146075392
sMm:__ZN6il2cpp2vm5Image9GetCorlibEv
sKb:__ZN2UI13RectTransform8TransferI18StreamedBinaryReadILb1EEEEvRT_
ebf:_ft_bitmap_glyph_bbox
YOm:__ZN6il2cpp2vm11MethodStack17GetStackFramesRawEv
j3d:__ZNK5physx15NpActorTemplateINS_7PxClothEE14getOwnerClientEv
Eql:_Component_GetComponent_m4225719715
Nve:__ZNK5physx2Gu29EPASupportMapPairRelativeImplINS0_8CapsuleVES2_E9doSupportERKNS_6shdfnd3aos5Vec3VERS6_S9_S9_
L1f:_Array_Sort_TisVector4_t2243707581_m474199742_gshared
DRe:__ZN5physx10SubSortSAH5sort4EPjjRNS_6shdfnd5ArrayINS_11RTreeNodeNQENS2_19ReflectionAllocatorIS4_EEEERjjPS4_
mwj:_GUIStyle_InitCopy_m3676786505
zSh:_TextWriter_Write_m576684782
s3l:_Vector3_Max_m2105825185
Uk:_glIsVertexArray
wFc:__Z66Register_UnityEngine_Graphics_Internal_GetMaxDrawMeshInstanceCountv
U$a:__ZN25SingleBlockMemoryFileDataC2E18MemLabelIdentifierPvjb
Qyb:__ZN5Unity9Component8TransferI18StreamedBinaryReadILb0EEEEvRT_
FMh:__ZN16VirtFuncInvoker0IhE6InvokeEjPv
ea:invoke_fff
sal:_InternalEnumerator_1_System_Collections_IEnumerator_Reset_m2198960685_AdjustorThunk
Iln:b14
Hgi:_TlsServerHello_Update_m1740270635
w$e:__ZN5physx2Sc7PhysicsC2ERKNS_17PxTolerancesScaleERKNS_14PxvOffsetTableE
qlf:__ZN2UI6Canvas17MainThreadCleanupEv
ZXj:_LightShafts_GetFrustumApex_m3415023408
bSb:__ZNSt3__26vectorI14SubstanceInputNS_9allocatorIS1_EEE6assignINS_11__wrap_iterIPS1_EEEENS_9enable_ifIXaasr21__is_forward_iteratorIT_EE5valuesr16is_constructibleIS1_NS_15iterator_traitsISA_E9referenceEEE5valueEvE4typeESA_SA_
INl:_ScrollRect_Rebuild_m3423824761
J$g:_List_1_Find_m3862454845_gshared
BDi:__ZL85Locale_t4255929015_CustomAttributesCacheGenerator_Locale_GetText_m1445803604____args1P21CustomAttributesCache
REl:_MatchCollection_get_Item_m2609281578
uam:_CarAudio_ULerp_m1013831069
SXa:__ZN7ApiGLES13CreateProgramEv
$wk:__Z74RuntimeInvoker_Boolean_t3825574718_Vector3_t2243707580_Vector3_t2243707580PK10MethodInfoPvPS2_
kVk:_UTF8Encoding__ctor_m100325490
px:__Z13RegisterClassI22NavMeshProjectSettingsEvv
YRa:__ZN4crnd12crn_unpackerD2Ev
hl:_emscripten_glTexImage2D
bFk:__Z52RuntimeInvoker_Void_t1841601450_UIVertex_t1204258818PK10MethodInfoPvPS2_
$fj:_ObjRefSurrogate_SetObjectData_m1873902916
Hif:_tt_driver_class_pic_init
xja:__ZN18ScriptingArguments9AddStringEPKc
_Sk:_WaypointCircuit_DrawGizmos_m976610937
Och:_ReadOnlyCollection_1_System_Collections_IList_get_IsReadOnly_m1367736517_gshared
xGi:__ZL116Component_t3819376471_CustomAttributesCacheGenerator_Component_GetComponentsInParent_m1920178904____includeInactive1P21CustomAttributesCache
mhn:runPostSets
Mve:__ZNK5physx2Gu29EPASupportMapPairRelativeImplINS0_8CapsuleVES2_E18doWarmStartSupportEiiRNS_6shdfnd3aos5Vec3VES7_S7_
yQi:__ZL93AxisEventData_t1524870173_CustomAttributesCacheGenerator_AxisEventData_set_moveDir_m254243794P21CustomAttributesCache
dHa:__ZL23stbir__resize_arbitraryPvPKviiiS_iiiffffPfiij14stbir_datatype12stbir_filterS4_10stbir_edgeS5_16stbir_colorspace
J0c:__ZN23ParticleSystemParticles13array_reserveEj
zWg:_List_1_System_Collections_IList_Insert_m848656350_gshared
e4b:__Z18Transfer_BlittableI24GenerateTypeTreeTransferLb1E8Vector4fEvRK29SerializationCommandArgumentsR31RuntimeSerializationCommandInfo
_am:_Wheel_get_SkidFactor_m1002065078
BJh:_Int16_ToString_m3971652088_AdjustorThunk
Q4c:__ZNK24OptimizedPolynomialCurve26FindMinMaxDoubleIntegratedEv
rl:_pthread_detach
jtm:__ZN6il2cpp2vm19SocketPollingThread7RunLoopEv
IOg:_KeyValuePair_2__ctor_m1640124561_AdjustorThunk
aEl:_MethodDictionary_AllocInternalProperties_m3261295876
dsk:__Z197RuntimeInvoker_Boolean_t3825574718_Il2CppObject_Il2CppObject_Il2CppObject_Int32_t2071877448_DateTimeU26_t3448131235_SByte_t454417549_BooleanU26_t3168250738_SByte_t454417549_ExceptionU26_t1467204777PK10MethodInfoPvPS2_
Vqe:__ZN5physx11EdgeManager6resizeEj
E7i:_IPv6Address_set_ScopeId_m1442934355
LWh:_NumberFormatter_NumberToString_m3855209845
_9e:__ZN13TextRendering4Font7PRODUCEE18MemLabelIdentifier18ObjectCreationMode
wFi:__ZL77U3CPrivateImplementationDetailsU3E_t1486305139_CustomAttributesCacheGeneratorP21CustomAttributesCache
gfc:__ZN9ShaderLab25SerializedTextureProperty8TransferI24GenerateTypeTreeTransferEEvRT_
Jjh:_Comparison_1_Invoke_m2645957248_gshared
Ytn:_emscripten_glIsShader__wrapper
Xdf:_tt_cmap14_char_next
qsi:__ZL69AssemblyTrademarkAttribute_t3740556705_CustomAttributesCacheGeneratorP21CustomAttributesCache
WNa:__ZN13GfxDeviceGLES28GetNativeVertexBufferPointerEP9GfxBuffer
Nde:__ZN5physx2Sc5Scene12removeStaticERNS0_10StaticCoreERNS_6shdfnd11InlineArrayIPKNS0_9ShapeCoreELj64ENS4_19ReflectionAllocatorIS8_EEEEb
Fzm:__ZN15dense_hashtableINSt3__24pairIK10KeyWrapperIPK10Il2CppTypeEjEES6_N6il2cpp8metadata14Il2CppTypeHashEN14dense_hash_mapIS6_jSB_NSA_17Il2CppTypeCompareENS0_9allocatorIS8_EEE9SelectKeyESD_SF_E15insert_noresizeERKS8_
c3f:_Mesh_SetArrayForChannel_TisVector2_t2243707579_m1051036475_gshared
$va:__ZN11NamedObject8TransferI18StreamedBinaryReadILb0EEEEvRT_
LWa:__ZNK17GPUSkinPoseBuffer12GetBoneCountEv
GUe:__ZN19CharacterController13AwakeFromLoadE17AwakeFromLoadMode
VSc:__Z32GUIStyle_Get_Custom_PropFontSizeP12Il2CppObject
Qlj:_DelegatePInvokeWrapper_CallbackHandler_t362827733
WCi:__ZL59ResolveEventArgs_t1859808873_CustomAttributesCacheGeneratorP21CustomAttributesCache
G6l:_UnityAction_1_BeginInvoke_m3462722079_gshared
eSj:_EventInfo_get_MemberType_m3337516651
FWc:__Z18Transfer_BlittableI8JSONReadLb1EyEvRK29SerializationCommandArgumentsR31RuntimeSerializationCommandInfo
tmm:__ZNK15dense_hashtableINSt3__24pairIK10KeyWrapperIPK22Il2CppGenericParameterEP11Il2CppClassEES6_N6il2cpp5utils11PointerHashIS4_EEN14dense_hash_mapIS6_S9_SE_NS0_8equal_toIS6_EENS0_9allocatorISA_EEE9SelectKeyESH_SJ_E12test_deletedERK24dense_hashtable_iteratorISA_S6_SE_SL_SH_SJ_E
Ol:_emscripten_glMatrixMode
RG:__ZN8Animator23VirtualRedirectTransferER18StreamedBinaryReadILb0EE
Vri:__ZL93TypeBuilder_t3308873219_CustomAttributesCacheGenerator_TypeBuilder_GetConstructors_m774120094P21CustomAttributesCache
bmb:__Z22CalculateTransformPathRK9TransformPS0_
tNe:__ZN5physx13GuMeshFactory17createHeightFieldERNS_13PxInputStreamE
Wge:__ZN5physx2Sc10NPhaseCore25createShapeInstancePairLLERNS0_8ShapeSimES3_NS_7PxFlagsINS_10PxPairFlag4EnumEtEE
wxf:__ZN13WheelCollider16CheckConsistencyEv
_7:__ZN11UnityEngine15CloudWebService14DataDispatcher16PrepareDataBlockERNS0_16SessionContainerE
twl:_CustomAnimationPlayable_AddInput_m3120035390
$he:__ZThn8_N5physx2Sc19ShapeInstancePairLL12onDeactivateEj
Frc:__Z21CalculateClosestPointRK8Vector3fRK4AABBRS_Rf
g_m:__ZN6il2cpp6icalls8mscorlib6System9Threading7Monitor4ExitEP12Il2CppObject
VKk:__Z62RuntimeInvoker_ParameterModifier_t1820634920_Int32_t2071877448PK10MethodInfoPvPS2_
a7b:__ZL26Transfer_SimpleNativeClassI18StreamedBinaryReadILb0EE10RectOffsetLb0EEvRK29SerializationCommandArgumentsR31RuntimeSerializationCommandInfo
e_i:__ZL56DepthOfField34_t605162245_CustomAttributesCacheGeneratorP21CustomAttributesCache
kaf:_UNITY_ft_destroy_default_module_classes
Q2h:_SymmetricTransform_FinalDecrypt_m3674669784
_Tg:_List_1_CheckMatch_m1772343151_gshared
Jbb:__ZL12DepthPassJobPN21GfxDeviceAsyncCommand10ArgScratchEPKNS_3ArgE
ldc:__ZNSt3__26vectorIN9ShaderLab20SerializedSubProgram16TextureParameterENS_9allocatorIS3_EEE6assignINS_11__wrap_iterIPS3_EEEENS_9enable_ifIXaasr21__is_forward_iteratorIT_EE5valuesr16is_constructibleIS3_NS_15iterator_traitsISC_E9referenceEEE5valueEvE4typeESC_SC_
WOf:__Z34PxVehicleWheels4SuspensionRaycastsPN5physx12PxBatchQueryERKNS_23PxVehicleWheels4SimDataERNS_23PxVehicleWheels4DynDataEPKNS_17PxQueryFilterDataEPKbjPNS_14PxRigidDynamicE
ULh:_IntPtr_Equals_m1214967011_AdjustorThunk
eTe:__ZN9Rigidbody16ApplyConstraintsEv
A_g:_List_1_Add_m3591975577_gshared
ipf:__Z55Register_UnityEngine_CanvasGroup_get_ignoreParentGroupsv
gIh:_Guid_Equals_m2389236871
EQi:__ZL100PointerEventData_t1599784723_CustomAttributesCacheGenerator_U3CpointerPressRaycastU3Ek__BackingFieldP21CustomAttributesCache
X3l:_Vector4_ToString_m2340321043
$n:FUNCTION_TABLE_iiiiiiiiiiii
Q2c:__ZNK14ParticleSystem27CalculateMaxActiveParticlesEv
esa:__Z24InitializeIl2CppFromMainRKNSt3__212basic_stringIcNS_11char_traitsIcEENS_9allocatorIcEEEES7_iPPKc
D9d:__ZN5physx2Sc17ParticleSystemSim8setFlagsEj
Kzb:__ZN16GraphicsSettingsD0Ev
qob:__Z29StdTemplateConversionFunctionIshEbPvR14SafeBinaryRead
a8a:__ZN15LODGroupManager21CalculateLODDataArrayERK13LODParametersPK6Cameraf
m:cttz_i8
Agf:_UNITY_FT_GlyphLoader_Add
z4m:_uselocale
vQe:__ZN5physx2Gu15EdgeListBuilder18CreateEdgesToFacesEjPKjPKt
szd:__ZN5physx11PxMeshQuery5sweepERKNS_6PxVec3EfRKNS_10PxGeometryERKNS_11PxTransformEjPKNS_10PxTriangleERNS_10PxSweepHitENS_7PxFlagsINS_9PxHitFlag4EnumEtEEPKjfb
SWa:__Z26TransformVerticesInnerLoopILb0ELb0ELb0EEvPhRK10Matrix4x4fRK10Matrix3x3fjPKhiiiS8_ii25GfxTransformVerticesFlags
lsm:__ZNK15dense_hashtableINSt3__24pairIK10KeyWrapperIPK19Il2CppGenericMethodEPK26Il2CppGenericMethodIndicesEES6_N6il2cpp8metadata23Il2CppGenericMethodHashEN14dense_hash_mapIS6_SA_SE_NSD_26Il2CppGenericMethodCompareENS0_9allocatorISB_EEE9SelectKeyESG_SI_E12test_deletedERK24dense_hashtable_iteratorISB_S6_SE_SK_SG_SI_E
cAj:_Light_get_color_m2617173338
tPf:__Z23RegisterModule_Vehiclesv
rCi:__ZL47Guid_t2533601593_CustomAttributesCacheGeneratorP21CustomAttributesCache
LLi:__ZL108Physics2D_t2540166467_CustomAttributesCacheGenerator_Physics2D_GetRayIntersectionAll_m253330691____distance1P21CustomAttributesCache
ZEl:_MRUList__ctor_m2726533367
sGh:_DateTimeFormatInfo_get_FullDateTimePattern_m2607507656
fhi:_HttpsClientStream_RaiseServerCertificateValidation_m3356770426
_ni:__ZL73Il2CppArray_CustomAttributesCacheGenerator_Array_BinarySearch_m3052238307P21CustomAttributesCache
gJg:_DelegateSerializationHolder__ctor_m3915060553
d2f:_Array_swap_TisUIVertex_t1204258818_TisUIVertex_t1204258818_m1163375424_gshared
Km:_emscripten_glViewport
HVm:__ZN6il2cpp6icalls8mscorlib6System15MonoCustomAttrs17IsDefinedInternalEP12Il2CppObjectP20Il2CppReflectionType
pNb:__ZN4Mesh21UnswizzleVertexColorsEb
fbm:_CarController_Reset_m148898203
JE:__ZN18StreamedBinaryReadILb1EE21TransferSTLStyleArrayI13dynamic_arrayI11KeyframeTplI8Vector3fELj4EEEEvRT_17TransferMetaFlags
wgi:_TlsServerSettings_set_CertificateTypes_m264196087
i7k:_InternalEnumerator_1__ctor_m4150855019_gshared
eHc:__Z40Register_UnityEngine_Light_set_intensityv
Eif:_cff_parse_font_bbox
gzc:__Z35Application_Get_Custom_PropIsEditorv
GAd:__Z14raycast_sphereRKN5physx10PxGeometryERKNS_11PxTransformERKNS_6PxVec3ES8_fNS_7PxFlagsINS_9PxHitFlag4EnumEtEEjPNS_12PxRaycastHitEbPFbRSD_PvESG_
FUb:__ZN14PlayerSettings23VirtualRedirectTransferER18StreamedBinaryReadILb0EE
wla:__ZN13MonoBehaviour19RebuildMonoInstanceEP11Il2CppClassP12Il2CppObjectP10MonoScript
lQf:_Array_get_swapper_TisCustomAttributeTypedArgument_t1498197914_m2780757375_gshared
eOg:_KeyValuePair_2__ctor_m3201181706_AdjustorThunk
q2m:__ZN6il2cpp2os5Event5ResetEv
Rfb:__Z26CombineDepthNormalsTextureRK17RenderLoopContextR13dynamic_arrayI16RenderObjectDataLj4EE
j5l:_AesManaged__ctor_m2322442838
DOm:__ZN6il2cpp8metadata15GenericMetadata17InflateParametersEPK13ParameterInfohPK20Il2CppGenericContextb
eLh:_Int64_System_IConvertible_ToUInt32_m850395426_AdjustorThunk
wka:__ZN18AwakeFromLoadQueue28InvokePersistentManagerAwakeEPNS_4ItemEj17AwakeFromLoadMode
HOj:_TypeBuilder_GetMethodsByName_m229541072
B8:__ZNSt3__215basic_stringbufIcNS_11char_traitsIcEENS_9allocatorIcEEE7seekposENS_4fposI11__mbstate_tEEj
E5f:_HMACSHA512__ctor_m2390736870
MYl:_Screen_set_lockCursor_m2657378560
fJe:__ZNK5physx2Cm12DelegateTaskINS_2Sc5SceneEXadL_ZNS3_23postIslandGenSecondPassEPNS_10PxBaseTaskEEEE7getNameEv
o0m:__ZNSt3__26__treeINS_12__value_typeIPvxEENS_19__map_value_compareIS2_S3_NS_4lessIS2_EELb1EEENS_9allocatorIS3_EEE16__insert_node_atEPNS_16__tree_node_baseIS2_EERSD_SD_
$Qb:__ZN4PPtrI6SpriteE8TransferI18StreamedBinaryReadILb0EEEEvRT_
U$l:_Texture2D_INTERNAL_CALL_SetPixel_m3139530413
lYl:_Rigidbody_INTERNAL_CALL_Sleep_m493241514
A7a:__ZNK6Camera23CalculateShadowDistanceEv
DOj:_TypeBuilder_GetInterfaces_m1818658502
Mii:_TlsException_get_Alert_m4022765752
i7h:_BigInteger_op_Equality_m2683055762
Bsa:__Z25SetNeedToPerformRenderingb
D7c:__ZN12LightsModule8TransferI17RemapPPtrTransferEEvRT_
OUj:_MonoMethod_GetPseudoCustomAttributes_m466965107
Ldb:__ZNSt3__227__insertion_sort_incompleteIR23CompareReflectionProbesP31RuntimeReflectionProbeBlendInfoEEbT0_S5_T_
K3c:__ZN29InitialModulePropertyBindings13GetFloatValueERK14ParticleSystemi
dqi:__ZL53SortedList_t3004938869_CustomAttributesCacheGeneratorP21CustomAttributesCache
vXl:_ResourceRequest_t2560315377_marshal_pinvoke
d5j:_Enumerator_System_Collections_IDictionaryEnumerator_get_Value_m3005608231_gshared
Ghm:__ZL24UnresolvedVirtualCall_26P12Il2CppObjectS0_iiPK10MethodInfo
FDh:_MaskUtilities_NotifyStencilStateChanged_m1527407683
Pue:__ZN5physxL27PxcSweepAnyShapeHeightfieldERKNS_11PxsCCDShapeES2_PKNS_12PxsRigidBodyES5_RKNS_11PxTransformES8_fRNS_6PxVec3ESA_RNS_10PxcNpCacheERNS_18PxcNpThreadContextE
c0h:_DSAManaged_GenerateKeyPair_m2711647034
Qtm:__ZNSt3__214__split_bufferI6pollfdRNS_9allocatorIS1_EEED2Ev
lU:__ZN15SerializeTraitsIN7mecanim5human6HandleEE8TransferI14SafeBinaryReadEEvRS2_RT_
RXf:_Array_InternalArray__ICollection_Add_TisResourceCacheItem_t333236149_m1151081240_gshared
Vpe:__ZN5physx3Scb5SceneD2Ev
FCg:_Convert_ToInt32_m2209788057
TI:__ZN17AnimationPlayable11DerivesFromEP11Il2CppClass
A$b:__ZN6HelperI14SafeBinaryRead23TransferArrayField_InfoE24SerializationFunctionForERKS1_R23StaticTransferFieldInfoPb
ijj:_SoapServices_GetXmlTypeForInteropType_m3821579913
iQa:__ZN7ApiGLES13CreateTextureEj16TextureDimensionN2gl9TexFormatEiiiii
Nrn:_emscripten_glTexParameterfv__wrapper
iIl:_CaptureAssertion_IsComplex_m1433259302
exm:_il2cpp_method_get_param_count
wod:__ZN11Rigidbody2D8TransferI19StreamedBinaryWriteILb0EEEEvRT_
usj:_Graphics_SetRenderTargetImpl_m1854412816
nTe:__Z16GetDynamicsScenev
fhe:__ZThn8_N5physx2Sc18TriggerInteraction7destroyEv
CFk:__Z88RuntimeInvoker_Void_t1841601450_Il2CppObject_CameraU26_t2282147127_CameraU26_t2282147127PK10MethodInfoPvPS2_
H0l:_TouchScreenKeyboard_get_active_m1442597648
FEi:__ZL68Uri_t19570940_CustomAttributesCacheGenerator_U3CU3Ef__switchU24map15P21CustomAttributesCache
Wef:_ps_dimension_done
Wph:_LayoutRebuilder_MarkLayoutForRebuild_m640589351
ihc:__ZN12ScriptMapperD0Ev
Enh:_PointerEventData_get_pressEventCamera_m724559964
Vz:__Z32TransferEnumWithNameForceIntSizeI14SafeBinaryReadN9Animation11CullingTypeEEvRT_RT0_PKc17TransferMetaFlags
dSb:__ZN14SubstanceInputD2Ev
tcg:_String_IndexOfUnchecked_m3356721554
wGb:__ZN16LightmapSettings8TransferI14SafeBinaryReadEEvRT_
qTa:__ZN17BufferManagerGLES13ReleaseBufferEP14DataBufferGLES
CKd:__ZN5physx6shdfnd5ArrayIPvNS0_19ReflectionAllocatorINS_16NpConnectorArrayEEEE15growAndPushBackERKS2_
NCj:_Mesh_CheckCanAccessSubmesh_m1826512193
Fla:__Z64scripting_unity_engine_object_new_and_invoke_default_constructorP11Il2CppClassP6ObjectPP15Il2CppException
cge:__ZN5physx2Sc5Scene15prepareSimulateEv
DWc:__Z18Transfer_BlittableI8JSONReadLb1EjEvRK29SerializationCommandArgumentsR31RuntimeSerializationCommandInfo
gMd:__ZN5physx6shdfnd5ArrayIPNS_2Sc11InteractionENS0_19ReflectionAllocatorIS4_EEE8recreateEj
VUi:__ZL63ScrollRect_t1199013257_CustomAttributesCacheGenerator_m_InertiaP21CustomAttributesCache
hTl:_PKCS12_Decrypt_m1557069392
yRl:_VertexHelper_AddUIVertexQuad_m280792808
u8i:_WebHeaderCollection_ToString_m1246460752
sMk:__Z37RuntimeInvoker_Enumerator_t2983962278PK10MethodInfoPvPS2_
pHk:__Z56RuntimeInvoker_Boolean_t3825574718_UriScheme_t1876590943PK10MethodInfoPvPS2_
lr:stackSave
T6m:__ZNSt3__213basic_istreamIcNS_11char_traitsIcEEED1Ev
qff:_ps_dimension_end
mIc:__Z41Register_UnityEngine_Mesh_Internal_Createv
aqb:__ZN16MemoryFileSystem5TouchER13FileEntryData
zQb:__ZN14SpriteRenderer23VirtualRedirectTransferER24GenerateTypeTreeTransfer
F7f:_RIPEMD160Managed_JJ_m2933451431
E4e:__Z63Register_UnityEngine_Physics_INTERNAL_CALL_Internal_RaycastTestv
f6f:_MACTripleDES_Initialize_m1318099802
$9h:_MD5SHA1_VerifySignature_m507888141
Zpg:_Byte_System_IConvertible_ToChar_m4188836679
aGh:_NumberFormatter_InitDecHexDigits_m2036076025
I5j:_Enumerator_get_CurrentKey_m3839846791_AdjustorThunk
$Wc:__ZN8JSONRead21TransferSTLStyleArrayI13dynamic_arrayIaLj1EEEEvRT_18MemLabelIdentifier17TransferMetaFlags
Sib:__ZN6Camera9SetAspectEf
zsh:_ColorTween_get_ignoreTimeScale_m641454126_AdjustorThunk
Ga:invoke_viiffiii
mym:__ZN15dense_hashtableINSt3__24pairIK10KeyWrapperINS1_IPK14Il2CppAssemblyP11Il2CppClassEEEjEES9_17ReflectionMapHashIS8_EN14dense_hash_mapIS9_jSD_19ReflectionMapEqualsIS8_ENS0_9allocatorISB_EEE9SelectKeyESG_SI_E4findERSA_
R7c:__ZN8UVModule8TransferI18StreamedBinaryReadILb0EEEEvRT_
p5f:_Mesh_GetAllocArrayFromChannel_TisVector3_t2243707580_m2367580537_gshared
Qzf:__ZN5physx16PxVehicleDrive4WD0Ev
KEb:__ZN12CubemapArray8TransferI18StreamedBinaryReadILb1EEEEvRT_
KRi:__ZL79TouchInputModule_t2561058385_CustomAttributesCacheGenerator_m_ForceModuleActiveP21CustomAttributesCache
ntn:_emscripten_glBindVertexArray__wrapper
MJm:_Firing2__ctor_m3572514930
D9h:_MD4__ctor_m2366413460
Bsl:_Display__ctor_m563295973
ebk:_Dictionary_2_InitArrays_m435313205_gshared
eY:__ZN10ObjectPoolIN4FMOD3DSPENS0_4DSPIEE7GetFreeEi
Ljb:__ZN9Transform37InitializeTransformHierarchyRecursiveER18TransformHierarchyRii
cmi:__ZL80Decimal_t724701077_CustomAttributesCacheGenerator_Decimal_op_Implicit_m233687092P21CustomAttributesCache
rvh:_Graphic_get_useLegacyMeshGeneration_m1366444625
f8i:_ServicePointManager_get_CheckCertificateRevocationList_m4009410230
ETi:__ZL65InputField_t1631627530_CustomAttributesCacheGenerator_m_InputTypeP21CustomAttributesCache
Eim:__ZL24UnresolvedVirtualCall_78P12Il2CppObjectPK10MethodInfo
hXl:_RenderTexture_set_enableRandomWrite_m2106996533
n_h:_ModulusRing_Pow_m1137250399
Z4m:_fscanf
Wel:_InternalEnumerator_1_MoveNext_m2410670600_AdjustorThunk
yXe:__ZN14SphereCollider23VirtualRedirectTransferER24GenerateTypeTreeTransfer
s9a:__ZN17MeshRenderingData4InitEP4MeshS1_iP15SharedGfxBufferS3_
Kbi:_CipherSuite_get_HashAlgorithmType_m3902365773
p6l:_InvokableCall_2_Find_m1763382885_gshared
M$j:_ThirdPersonUserControl_FixedUpdate_m4011010122
cSm:__ZN15dense_hashtableINSt3__24pairIK10KeyWrapperIP14Il2CppIUnknownEjEES5_N6il2cpp5utils11PointerHashIS3_EEN14dense_hash_mapIS5_jSB_NS0_8equal_toIS5_EENS0_9allocatorIS7_EEE9SelectKeyESE_SG_E5clearEv
ueh:_ReadOnlyCollection_1_System_Collections_ICollection_get_SyncRoot_m2779904122_gshared
Zym:__ZN15dense_hashtableINSt3__24pairIK10KeyWrapperINS1_IPK9FieldInfoP11Il2CppClassEEEjEES9_17ReflectionMapHashIS8_EN14dense_hash_mapIS9_jSD_19ReflectionMapEqualsIS8_ENS0_9allocatorISB_EEE9SelectKeyESG_SI_E12resize_deltaEjj
kxa:__ZN19ShaderPropertySheet38CopyTextureWithAuxiliaryPropertiesFromERKN9ShaderLab16FastPropertyNameERKS_
Gcj:_X509ChainStatus__ctor_m3628359961_AdjustorThunk
jDb:__ZN14DirectorPlayer23VirtualRedirectTransferER19StreamedBinaryWriteILb0EE
cXi:__ZL77LayoutUtility_t4076838048_CustomAttributesCacheGenerator_U3CU3Ef__amU24cache4P21CustomAttributesCache
Mcg:_Evidence_get_HostEvidenceList_m2095478124
tOc:__Z57Register_UnityEngine_Transform_INTERNAL_set_localPositionv
fdi:_Context_Clear_m4000337070
hOa:__ZN13GfxDeviceGLES26SetRandomWriteTargetBufferEi15ComputeBufferID
_0j:_MobileInput_MousePosition_m1708674333
sfb:__ZN18BlockRangeInternal16PopLastNodeIndexEP10BlockRangeji
hXd:__ZN5physx6shdfnd4sortIPvNS0_4LessIS2_EENS0_19ReflectionAllocatorINS_2Cm5BlockIhLj256EEEEEEEvPT_jRKT0_RKT1_j
M0l:_TrackedReference_op_Equality_m3491334086
ivh:_FontUpdateTracker_UntrackText_m3827316510
Ssb:__ZN18AssetBundleManager19RegisterAssetBundleEP11AssetBundle
iOe:__ZN5physx20InternalTriangleMesh7releaseEv
ute:__ZN5physx6shdfnd5ArrayINS_16PxsCCDBlockArrayINS_13PxsCCDOverlapELi128EE9BlockInfoENS0_19ReflectionAllocatorIS5_EEE15growAndPushBackERKS5_
vNd:__ZNK5physx7NpShape8getFlagsEv
hGl:_Regex_CreateMachineFactory_m3035817687
KDf:__Z27setPxVehicleWheelDataMWidthPN5physx18PxVehicleWheelDataEf
Qsc:__ZNK11ICallString6ToUTF8Ev
gIl:_CaptureAssertion_get_Alternate_m2729005740
JWm:_GC_number_stack_black_listed
xan:__ZNKSt3__220__time_get_c_storageIwE3__cEv
oLj:_Default_SelectMethod_m3081239996
dza:__ZN18UnityPropertySheet11UnityTexEnvC2Ev
W4d:__ZNK5physx7NpCloth16getContactOffsetEv
eyc:__ZNSt3__214__split_bufferIPN9BlobWrite11TypeContextENS_9allocatorIS3_EEE10push_frontERKS3_
Hna:__ZN12FileAccessor4ReadEyyPvPy
Kxa:__ZN13dynamic_arrayI16ShaderKeywordSetLj4EE6insertEPS0_PKS0_S4_
y8b:__Z29Transfer_Blittable_ArrayFieldI18StreamedBinaryReadILb0EE11QuaternionfEvRT_R9ArrayInfoRK23StaticTransferFieldInfo
bEl:_MethodDictionary_IsOverridenKey_m3922224650
$xg:_SyncHashtable_Contains_m3042906549
rld:__ZN14dense_hash_mapINSt3__24pairIPK10Collider2DS4_EE11Collision2DNS2_23ColliderPairHashFunctorENS0_8equal_toIS5_EE13stl_allocatorINS1_IKS5_S6_EEL18MemLabelIdentifier65ELi16EEE4findERSB_
_vc:__Z21GetSceneHierarchyPathPK6Object
sPf:__Z13RegisterClassI13WheelColliderEvv
t1g:_List_1_System_Collections_IList_set_Item_m4016273526_gshared
cNc:__Z63Register_UnityEngine_RenderTexture_Internal_CreateRenderTexturev
_cj:_X509KeyUsageExtension_CopyFrom_m931530012
Yeh:_ReadOnlyCollection_1_System_Collections_ICollection_get_SyncRoot_m1577944046_gshared
DEf:__Z37setPxVehicleWheelsSimData_ChassisMassPN5physx22PxVehicleWheelsSimDataEf
oib:__ZN13RenderTexture9SetHeightEi
XDh:__ZN21InterfaceFuncInvoker0IP25RectTransform_t3349966182E6InvokeEjP11Il2CppClassPv
E7m:__ZNKSt3__27collateIcE7do_hashEPKcS3_
jbj:_X509Chain_get_CertificateAuthorities_m3325663784
YBb:__ZN16LevelGameManager8TransferI24GenerateTypeTreeTransferEEvRT_
Zvk:__Z53RuntimeInvoker_Void_t1841601450_BoundsU26_t1084128289PK10MethodInfoPvPS2_
zql:_Color32__ctor_m1932627809_AdjustorThunk
Yji:_SslStreamBase_Read_m1036897444
LOm:__ZN15dense_hashtableI10KeyWrapperIP18Il2CppGenericClassES3_N6il2cpp8metadata22Il2CppGenericClassHashEN14dense_hash_setIS3_S6_NS5_25Il2CppGenericClassCompareENSt3__29allocatorIS3_EEE8IdentityES8_SB_E12resize_deltaEjj
Uuf:__ZNSt3__24pairIKN4core12basic_stringIcNS1_20StringStorageDefaultIcEEEEN11UnityEngine7Connect19RemoteSettingsValueEEC2ERKSA_
NPm:__ZNK15dense_hashtableINSt3__24pairIK10KeyWrapperIP12Il2CppObjectEN6il2cpp2gc9CachedCCWEEES5_NS7_5utils11PointerHashIS3_EEN14dense_hash_mapIS5_S9_SD_NS0_8equal_toIS5_EENS0_9allocatorISA_EEE9SelectKeyESG_SI_E12test_deletedERK24dense_hashtable_iteratorISA_S5_SD_SK_SG_SI_E
kLl:_RectMask2D_PerformClipping_m1232012832
pLm:__ZN6il2cpp6icalls8mscorlib6System2IO6MonoIO17GetFileAttributesEP12Il2CppStringPi
Wt:__ZNK15dtProximityGrid10queryItemsEPKfPti
p6j:_Transform_1_Invoke_m4020530914_gshared
Cdf:_tt_cmap8_char_index
Led:__Z45ParticleSystem_CUSTOM_INTERNAL_get_startColorP12Il2CppObjectP10ColorRGBAf
quj:_GUILayoutGroup_ResetCursor_m3160916532
az:__ZNSt3__27__sort4IR17DetailNodeXSorterP16DetailMeshBVNodeEEjT0_S5_S5_S5_T_
Phl:_CustomEventData_AddUInt16_m3349298376
q0b:__Z29Transfer_Blittable_ArrayFieldI14SafeBinaryReadjEvRT_R9ArrayInfoRK23StaticTransferFieldInfo
Knl:_Camera_FireOnPostRender_m94860165
AXb:__ZN23PreloadManagerOperationD0Ev
vOl:_ScrollRect_get_minWidth_m3151814267
kf:_emscripten_set_keydown_callback
wxg:_Enumerator_get_Value_m3684748062
Nxb:__ZN19StreamedBinaryWriteILb0EE21TransferSTLStyleArrayINSt3__26vectorI17SortingLayerEntryNS2_9allocatorIS4_EEEEEEvRT_17TransferMetaFlags
E5c:__ZN18ColorBySpeedModule8TransferI14SafeBinaryReadEEvRT_
Pna:__ZN12FileAccessorC2Ev
MUl:_X509CertificateCollection_Compare_m1014334435
Djb:__ZN9Transform35SetLocalPositionWithoutNotificationERKN4math7_float3E
_Rd:__ZN5physx2Sc15ArticulationSim12applyImpulseERNS0_8BodyCoreERKNS_9PxcFsDataERKNS_6PxVec3ES9_
dce:__ZNK5physx22NpParticleBaseTemplateINS_16PxParticleSystemENS_16NpParticleSystemEE7getTypeEv
mVe:__ZN5Unity5Joint18SetConnectedAnchorERK8Vector3f
UFl:_PatternLinkStack_GetCurrent_m2994645935
Xgd:__ZNK11b2GearJoint16GetReactionForceEf
gjh:_Comparison_1__ctor_m2929820459_gshared
h7f:__ZN16VirtFuncInvoker5IiP22ByteU5BU5D_t3397334013iiS1_iE6InvokeEjPvS1_iiS1_i
lfa:__ZN14StackAllocator10ReallocateEPvji
sS:__ZN4PPtrI13MonoBehaviourE8TransferI18StreamedBinaryReadILb0EEEEvRT_
dEl:_MethodDictionary_set_Item_m3475146889
vsl:_DebugLogHandler_Internal_Log_m3491540823
tRd:__ZNK5physx14NpArticulation26getInternalDriveIterationsEv
OCb:__ZN6SkyboxD2Ev
cJk:__Z54RuntimeInvoker_Void_t1841601450_LabelFixup_t4090909514PK10MethodInfoPvPS2_
Yvi:__ZL62WellKnownObjectMode_t2630225581_CustomAttributesCacheGeneratorP21CustomAttributesCache
ORl:_Toggle_PlayEffect_m3950629415
aUh:_MonoCustomAttrs_GetCustomAttribute_m100274015
r5c:__ZN14VelocityModule8TransferI14SafeBinaryReadEEvRT_
UGk:__Z69RuntimeInvoker_Void_t1841601450_Int32_t2071877448_Vector3_t2243707580PK10MethodInfoPvPS2_
GFa:__ZN13RenderManager18UpdateAllRenderersEv
lS:__ZN18AnimatorController19TransferRuntimeDataI18StreamedBinaryReadILb0EEEEvRT_
AWe:__ZThn24_N14PhysicsManagerD1Ev
Psf:__ZN22BaseUnityConnectClient30OnEnteringStatePausedOrStoppedEv
h9g:_Collection_1_System_Collections_ICollection_get_SyncRoot_m2157752542_gshared
Wqm:__ZN13dynamic_arrayIPK10Il2CppTypeLj4EE6assignEPKS2_S5_
DI:__ZN7mecanim5human12HumanPoseAddERNS0_9HumanPoseERKS1_S4_
BJk:__Z76RuntimeInvoker_Void_t1841601450_Int32_t2071877448_KeyValuePair_2_t3716250094PK10MethodInfoPvPS2_
E6l:_UnityAction_1__ctor_m2836997866_gshared
Ijl:_Animator_ResetTrigger_m865269317
ID:__Z14resize_trimmedINSt3__26vectorI24CompressedAnimationCurve13stl_allocatorIS2_L18MemLabelIdentifier25ELi16EEEEEvRT_j
hAi:__ZL64AssemblyLoadEventArgs_t4233815743_CustomAttributesCacheGeneratorP21CustomAttributesCache
k8g:_Collection_1_IsFixedSize_m218241296_gshared
Fkc:__Z17BuildSmoothCornerjRP10LineVertexRKN4math8float4x4EPK15LineBuilderDataRKfSA_RK11ColorRGBA32
tz:__ZNSt3__26__treeINS_12__value_typeIiN15HeightMeshQuery10HeightDataEEENS_19__map_value_compareIiS4_NS_4lessIiEELb1EEENS_9allocatorIS4_EEE7destroyEPNS_11__tree_nodeIS4_PvEE
Fra:__ZN15dense_hashtableINSt3__24pairIKNS0_12basic_stringIcNS0_11char_traitsIcEE13stl_allocatorIcL18MemLabelIdentifier54ELi16EEEEP11AssetBundleEES8_11djb2_hash_tIS8_EN14dense_hash_mapIS8_SB_SE_NS0_8equal_toIS8_EENS0_9allocatorISC_EEE9SelectKeyESH_SJ_EC2ERKSM_j
tjb:__Z24MergeTransformComponentsR9TransformS0_b
xjm:__ZL25UnresolvedVirtualCall_125P12Il2CppObjectPK10MethodInfo
_Md:__ZThn24_N5physx2Sc20ArticulationJointSimD0Ev
Sw:__ZNSt3__23mapIiN14NavMeshManager9LayerDataENS_4lessIiEENS_9allocatorINS_4pairIKiS2_EEEEEixERS7_
iXe:__ZN14PhysicsManager32AddToTriggerStayStatesIfRequiredEPK9Rigidbody
kQh:_MonoIO_get_PathSeparator_m2635828107
ujj:_TypeInfo_get_TypeName_m1722081275
ngd:__ZN15b2CircleContactD0Ev
FVh:_MonoType_get_Name_m865859211
BNg:_CultureInfo__cctor_m2290268677
R3k:_ArrayReadOnlyList_1_System_Collections_IEnumerable_GetEnumerator_m3039869667_gshared
g4i:__ZL76Wheel_t3431615477_CustomAttributesCacheGenerator_U3CMaxRpmU3Ek__BackingFieldP21CustomAttributesCache
Cgg:_String_Trim_m3982520224
eHd:__ZN5physx14PxsAABBManager12createBPElemEv
pij:_RemotingConfiguration__cctor_m2129988840
P5g:_Collection_1_Insert_m44548038_gshared
W1d:__ZThn12_N5physx7NpShape14onRefCountZeroEv
BLl:_Raycast3DCallback_Invoke_m2271859924
Urd:__ZL26GeomMTDCallback_ConvexMeshRN5physx6PxVec3ERfRKNS_10PxGeometryERKNS_11PxTransformES5_S8_
NGf:__ZN5physx3Pvd17PvdPropertyFilterINS_2Sn17RepXVisitorWriterINS_17PxVehicleTireDataEEEE14handleAccessorILj600ENS_22PxRepXPropertyAccessorILj600ES4_ffEEEEvRKT0_
Umi:__ZL42Il2CppArray_CustomAttributesCacheGeneratorP21CustomAttributesCache
zXd:__ZN5physx15NpActorTemplateINS_18PxArticulationLinkEE22setClientBehaviorFlagsENS_7PxFlagsINS_25PxActorClientBehaviorFlag4EnumEhEE
Sk:_emscripten_glVertexAttribPointer
o1j:_TiltInput_OnDisable_m1437155260
LDa:__ZN14PreloadManager26UpdatePreloadingSingleStepENS_21UpdatePreloadingFlagsEi
DAj:_Material__ctor_m1440882780
$9f:_SHA512Managed_Initialize_m891287980
xJe:__ZN18ScBeforeSolverTask11runInternalEv
CJa:__Z19InitializeGfxDevicej
yyf:__ZNK5physx22PxVehicleWheelsSimData23getSceneQueryFilterDataEj
adg:_SecurityException__ctor_m1484114982
hAl:_SinkProviderData_get_Children_m100594762
rVl:_X509Crl_GetHashName_m183504634
Img:_Array_GetValue_m1507415734
wKc:__Z57Register_UnityEngine_RectTransform_INTERNAL_set_anchorMinv
QEh:_Object_MemberwiseClone_m2655589444
IJd:__ZL33GeomOverlapCallback_CapsuleConvexRKN5physx10PxGeometryERKNS_11PxTransformES2_S5_PNS_2Gu12TriggerCacheE
rdh:_ReadOnlyCollection_1_System_Collections_IList_get_Item_m375043207_gshared
iBa:__ZN6prcoreL25inner_stretch_i8_bilinearEPKNS_9InnerInfoE
p9:__ZN11UnityEngine15CloudWebService13WWWRestClient17GetResponseStatusEv
HNh:_DirectoryInfo_ToString_m4208086799
Cpl:_Collision_get_transform_m4132935520
XUj:_MonoMethod_get_IsGenericMethod_m4276550811
C6j:_Transform_1_BeginInvoke_m3826027984_gshared
ijl:_AnimationEvent_set_time_m2162176572
HBg:_Decimal_op_Implicit_m2149927308
$7l:_UnityEvent_1_RemoveListener_m4000386396_gshared
pOe:__ZN5physx20InternalTriangleMesh9loadRTreeERNS_13PxInputStreamEj
aee:__ZN5physx19NpRigidBodyTemplateINS_14PxRigidDynamicEE25setCMassLocalPoseInternalERKNS_11PxTransformE
pUg:_List_1_set_Capacity_m895816763_gshared
QXj:_LightShafts_InitSpotFrustumMesh_m2799936207
Qee:__ZNK5physx15NpActorTemplateINS_13PxRigidStaticEE14getOwnerClientEv
agn:__ZNSt3__212basic_stringIwNS_11char_traitsIwEENS_9allocatorIwEEE9__grow_byEjjjjjj
EZj:_PlatformerCharacter2D_FixedUpdate_m1870569878
bRm:__ZN6il2cpp6icalls8mscorlib6System9AppDomain22InternalGetProcessGuidEP12Il2CppString
eQ:__ZNK25RuntimeAnimatorController30GetAnimationClipOverrideVectorEv
Eym:__ZN15dense_hashtableINSt3__24pairIK10KeyWrapperINS1_IPK14Il2CppAssemblyP11Il2CppClassEEEjEES9_17ReflectionMapHashIS8_EN14dense_hash_mapIS9_jSD_19ReflectionMapEqualsIS8_ENS0_9allocatorISB_EEE9SelectKeyESG_SI_E9copy_fromERKSL_j
jae:__ZN5physx2Sc18ParticleSystemCore16releaseParticlesEv
A0h:_KeyPairPersistence_get_UseMachineKeyStore_m560802076
Oue:__ZNK5physx2Gu29EPASupportMapPairRelativeImplINS0_8CapsuleVENS0_4BoxVEE6getDirEv
P2g:_Collection_1_CopyTo_m1840908033_gshared
uAd:__ZN5physx2Gu20intersectTriangleBoxERKNS_6shdfnd3aos5Vec3VES5_S5_S5_S5_
b4j:_Enumerator_System_Collections_IDictionaryEnumerator_get_Entry_m345330700_AdjustorThunk
NTk:_AeroplaneController_set_Altitude_m932291272
Wum:__ZNSt3__214__split_bufferIP9FieldInfoRNS_9allocatorIS2_EEEC2EjjS5_
k3j:_ColorCorrectionCurves_Start_m2718594915
Ujh:_AbstractEventData__ctor_m3586111519
v4b:__Z18Transfer_BlittableI24GenerateTypeTreeTransferLb1EjEvRK29SerializationCommandArgumentsR31RuntimeSerializationCommandInfo
BAf:__ZN5physx16PxVehicleNoDrive14setBrakeTorqueEjf
y$c:__ZN16ParticleRenderer23VirtualRedirectTransferER18StreamedBinaryReadILb1EE
y9h:_MD2Managed_Padding_m410163267
iSl:_Toggle_UnityEngine_UI_ICanvasElement_get_transform_m4177274032
k5e:__Z49Register_UnityEngine_Collider_INTERNAL_get_boundsv
AAb:__ZN11ColorRGBA328TransferI14SafeBinaryReadEEvRT_
T_e:__ZN5physx6shdfnd5ArrayIPvNS0_19ReflectionAllocatorINS_24NpPtrTableStorageManager8PtrBlockILi4EEEEEE15growAndPushBackERKS2_
oYb:__ZN24RingBufferMemoryFileData4LockEPPv
Z0g:_List_1_set_Capacity_m1734764639_gshared
ofk:__ZN16VirtFuncInvoker1Ii20TimeSpan_t3430258949E6InvokeEjPvS0_
dgl:_DefaultComparer__ctor_m76117625_gshared
gv:__ZNK14dtNavMeshQuery16moveAlongSurfaceEyPKfS1_PK13dtQueryFilterPfPyPii
$Ga:__Z11IsHDRFormat13TextureFormat
gml:_Bounds__ctor_m1202659404_AdjustorThunk
oYl:_Rigidbody2D_INTERNAL_get_velocity_m3018296454
Pg:_emscripten_glClearDepth
jMc:__Z31Texture_Set_Custom_PropWrapModeP12Il2CppObjecti
MDb:__ZN8Playable12SetPlayStateE9PlayState
qMk:__Z70RuntimeInvoker_Boolean_t3825574718_Il2CppObject_BooleanU26_t3168250738PK10MethodInfoPvPS2_
xJb:__ZN14SafeBinaryRead21TransferSTLStyleArrayINSt3__26vectorIN15QualitySettings14QualitySettingENS1_9allocatorIS4_EEEEEEvRT_17TransferMetaFlags
g2f:_Array_swap_TisVector2_t2243707579_m3359959735_gshared
XNh:_File_OpenText_m4058508963
Kpl:_Collision_get_frictionForceSum_m3438602686
uDf:__ZN5physx18RepXPropertyFilterINS_2Sn17RepXVisitorReaderINS_18PxVehicleWheelDataEEEEclILj574ES3_ffEEvRKNS_14PxPropertyInfoIXT_ET0_T1_T2_EEj
duk:__Z54RuntimeInvoker_Double_t4078015681_Interval_t2354235237PK10MethodInfoPvPS2_
mUb:__ZNSt3__26vectorINS_4pairIPKN5Unity4TypeE7Hash128EENS_9allocatorIS7_EEE8__appendEj
vjj:_WellKnownClientTypeEntry__ctor_m670594074
TSi:__ZL61FontData_t2614388407_CustomAttributesCacheGenerator_m_MinSizeP21CustomAttributesCache
CE:__ZN18StreamedBinaryReadILb1EE8TransferIN7mecanim13ValueConstantEEEvRT_PKc17TransferMetaFlags
bFg:_DateTime_System_IConvertible_ToSingle_m3927769066_AdjustorThunk
gpl:_CapsuleCollider_get_radius_m842698081
Qhf:_cff_font_load
Y1l:_Enumerator_Reset_m950879083
nhi:_RecordProtocol_SendRecord_m2977889250
ixe:__ZN5physx35solveContactPreBlock_ConcludeStaticEPKNS_23PxcSolverConstraintDescEjRNS_16PxcSolverContextE
jHa:__ZL22stbir__encode_scanlineP11stbir__infoiPvPfiii
zPk:_ScreenOverlay_OnRenderImage_m1426095912
nuk:__Z84RuntimeInvoker_Void_t1841601450_Int32_t2071877448_Int32_t2071877448_SByte_t454417549PK10MethodInfoPvPS2_
D5e:__ZN20QuadTreeNodeRenderer13StaticDestroyEPv
b4:__ZN14AudioBehaviourD2Ev
skc:__ZN9Transform12CleanupClassEv
T_m:__ZN6il2cpp6icalls8mscorlib6System9Threading16NativeEventCalls19CloseEvent_internalE12Il2CppIntPtr
ddi:_ClientContext_set_ClientHelloProtocol_m2246603449
WLd:__ZN5physx6shdfnd5ArrayIPvNS0_15InlineAllocatorILj256ENS0_19ReflectionAllocatorINS_2Cm5BlockIS2_Lj32EEEEEEEE15growAndPushBackERKS2_
xIe:__ZN5physx18PxsSolverStartTask13setupDescTaskEv
f9e:_UNITY_FT_Set_Pixel_Sizes
SBh:_U3CMouseDragOutsideRectU3Ec__Iterator1_MoveNext_m2845491958
bec:__ZNSt3__26vectorIN9ShaderLab19SerializedSubShaderENS_9allocatorIS2_EEE26__swap_out_circular_bufferERNS_14__split_bufferIS2_RS4_EE
SOk:_GrayscaleEffect__ctor_m1162473370
qAm:__ZNK15dense_hashtableINSt3__24pairIK10KeyWrapperINS1_IPK10MethodInfoP11Il2CppClassEEEjEES9_17ReflectionMapHashIS8_EN14dense_hash_mapIS9_jSD_19ReflectionMapEqualsIS8_ENS0_9allocatorISB_EEE9SelectKeyESG_SI_E10test_emptyEj
VE:__ZN11UnityEngine9Animation28AnimationClipBindingConstant8TransferI24GenerateTypeTreeTransferEEvRT_
Kxm:_AnalyticsTracker_TriggerEvent_m1494303835
Gui:__ZL59IChannelReceiver_t2788889625_CustomAttributesCacheGeneratorP21CustomAttributesCache
Noh:_StandaloneInputModule_IsModuleSupported_m623598506
uqd:__ZN5physx3Cct13BoxController6resizeEf
Kmk:__Z31RuntimeInvoker_Byte_t3683104436PK10MethodInfoPvPS2_
QWj:_ResourceReader_Close_m3256966401
Unj:_SByte_ToString_m4105923225_AdjustorThunk
uvb:_LZ4_compress_generic
Slj:_StreamingContext_t1417235061_marshal_pinvoke_cleanup
FNg:_CultureInfo_ConstructCurrentUICulture_m3363349599
oGi:__ZL87Component_t3819376471_CustomAttributesCacheGenerator_Component_GetComponent_m3720754210P21CustomAttributesCache
Fog:__ZN21InterfaceFuncInvoker1IxP12Il2CppObjectE6InvokeEjP11Il2CppClassPvS1_
bFc:__Z19GL_CUSTOM_PopMatrixv
ZUh:_MonoType_GetEvent_m4160342003
VKl:_RawImage_set_texture_m2400157626
bKe:__ZN5physx6shdfnd5ArrayINS_2Cm12DelegateTaskINS_2Sc5SceneEXadL_ZNS5_19updateCCDSinglePassEPNS_10PxBaseTaskEEEEENS0_19ReflectionAllocatorIS8_EEE8recreateEj
bem:_PrimeHelper_ToPrime_m1606935350_gshared
Ljf:_Dual_Project
Ofk:_EqualityComparer_1__ctor_m81618677_gshared
rhb:__ZNSt3__27__sort4IRNS_6__lessI11CulledLightS2_EEPS2_EEjT0_S6_S6_S6_T_
qFm:__ZN6il2cpp2vm14TypeNameParser26ParseArrayModifierOptionalEv
JXh:_MSCompatUnicodeTable_Level3_m260824928
rCh:_LayoutElement_OnEnable_m3478706401
BMj:_ConstructorBuilder_get_CallingConvention_m443074051
Axf:__ZN13WheelCollider23VirtualRedirectTransferER19StreamedBinaryWriteILb0EE
_4j:_Enumerator_System_Collections_IDictionaryEnumerator_get_Entry_m487599172_gshared
XXd:__ZN5physx34NpShapeGetScRigidObjectFromScbSLOWERKNS_3Scb5ShapeE
Rxj:_GUIStyle_CalcMinMaxWidth_m2027503105
lAk:__Z135RuntimeInvoker_RaycastHit2D_t4063908774_Vector2_t2243707579_Vector2_t2243707579_Single_t2076509932_Int32_t2071877448_Single_t2076509932PK10MethodInfoPvPS2_
T$l:_Texture2D_SetPixel_m609991514
Ubg:_X509Certificate_Reset_m1676863543
N0h:_KeyPairPersistence_Load_m1355205585
uNl:_ScrollRect_get_horizontalScrollbarVisibility_m4152068235
xKh:_Int32_ToString_m2960866144_AdjustorThunk
wrm:__ZN15dense_hashtableI10KeyWrapperIPK19Il2CppGenericMethodES4_N6il2cpp8metadata23Il2CppGenericMethodHashEN14dense_hash_setIS4_S7_NS6_26Il2CppGenericMethodCompareENSt3__29allocatorIS4_EEE8IdentityES9_SC_E12maybe_shrinkEv
ESb:__ZN14SubstanceValue8TransferI18StreamedBinaryReadILb0EEEEvRT_
pvi:__ZL83MethodDictionary_t1742974787_CustomAttributesCacheGenerator_U3CU3Ef__switchU24map21P21CustomAttributesCache
OPd:__ZNK5physx21PxsBodyTransformVault12getTransformERKNS_11PxsBodyCoreE
IIk:__Z57RuntimeInvoker_Int32_t2071877448_RaycastHit2D_t4063908774PK10MethodInfoPvPS2_
YNf:__Z32getPxVehicleDrive4WMDriveSimDataPKN5physx16PxVehicleDrive4WE
lcc:__ZN9ShaderLab26SerializedShaderDependencyC2ERKS0_
MTl:_PKCS12_get_Keys_m288413492
Uqm:__ZN13dynamic_arrayIPK10Il2CppTypeLj4EE4backEv
Awb:__ZNK5Unity9Component7GetNameEv
PKk:__Z49RuntimeInvoker_Slot_t2267560602_Int32_t2071877448PK10MethodInfoPvPS2_
zvm:__ZNSt3__214__split_bufferIN6il2cpp6icalls8mscorlib6System12PropertyPairERNS_9allocatorIS5_EEEC2EjjS8_
tKa:__ZN13RenderTexture9SetActiveEPS_i11CubemapFaceij
xBi:__ZL79Convert_t2607082565_CustomAttributesCacheGenerator_Convert_ToUInt16_m2130758075P21CustomAttributesCache
psd:__ZN44ConvexVsHeightfieldContactGenerationCallback7onEventEjPj
duh:__ZN18VirtActionInvoker1IP22GameObject_t1756533147E6InvokeEjPvS1_
tCi:__ZL58IFormatProvider_t2849799027_CustomAttributesCacheGeneratorP21CustomAttributesCache
H9l:_ObjectPool_1_Get_m3724675538_gshared
Fia:__Z27LogRepeatingStringWithFlagsRKNSt3__212basic_stringIcNS_11char_traitsIcEENS_9allocatorIcEEEE15LogMessageFlagsi
ymb:__ZN13ScreenManagerD0Ev
S5a:_UNITY_png_set_error_fn
Kp:FUNCTION_TABLE_diiii
Zcn:__ZNKSt3__27codecvtIwc11__mbstate_tE5do_inERS1_PKcS5_RS5_PwS7_RS7_
$hd:__ZNK11b2RopeJoint16GetReactionForceEf
Pv:__ZN22NavMeshProjectSettings23VirtualRedirectTransferER17RemapPPtrTransfer
ZN:__ZN7mecanim8skeleton26SkeletonPoseComputeGlobalQEPKNS0_8SkeletonEPKNS0_13SkeletonPoseTIN4math4trsXEEEPS7_ii
vwh:_Graphic_UnregisterDirtyMaterialCallback_m819829270
LWc:__ZN8JSONRead21TransferSTLStyleArrayI13dynamic_arrayIfLj4EEEEvRT_18MemLabelIdentifier17TransferMetaFlags
Rc:invoke_viiiffii
l8f:_String_CharCopy_m586187774
wRc:__ZN11IMGUIModule18MonoBehaviourDoGUIEiR14ObjectGUIStateN13MonoBehaviour13GUILayoutTypeEi21ScriptingMethodIl2Cpp4PPtrIS2_E
WWg:_List_1_GetEnumerator_m2672519407_gshared
G8c:__ZN13TriggerModule8TransferI19StreamedBinaryWriteILb0EEEEvRT_
wN:__ZN9BlobWrite8TransferI22OffsetPtrArrayTransferIiEEEvRT_PKc17TransferMetaFlags
uXh:_ContractionComparer_Compare_m314873025
SZm:__ZN6il2cpp6icalls8mscorlib6System7Runtime15InteropServices8GCHandle15GetTargetHandleEP12Il2CppObjectii
D4g:_Collection_1_IsFixedSize_m1690655146_gshared
$2b:__Z18Transfer_BlittableI17RemapPPtrTransferLb1EjEvRK29SerializationCommandArgumentsR31RuntimeSerializationCommandInfo
Hyj:_GUIUtility_EndGUIFromException_m2091524531
xQd:__ZN5physx6shdfnd5ArrayIPvNS0_15InlineAllocatorILj256ENS0_19ReflectionAllocatorINS_11NpAggregateEEEEEE15growAndPushBackERKS2_
PKh:_Int64_System_IConvertible_ToDouble_m638786774
jdg:_SecurityElement_ToXml_m1070777098
St:__ZNK24dtObstacleAvoidanceQuery13processSampleEPKfS1_S1_S1_f
G0:__ZN4FMOD6System7releaseEv
ore:__ZN5physx6shdfnd8PoolBaseINS_2Sc18TriggerInteractionENS0_19ReflectionAllocatorIS3_EEE15disposeElementsEv
Axg:_HashKeys_get_IsSynchronized_m4207641174
pYj:_LightShafts_RenderInterpolationTexture_m2929494141
_5b:__Z18Transfer_BlittableI19StreamedBinaryWriteILb0EELb1E8BitFieldEvRK29SerializationCommandArgumentsR31RuntimeSerializationCommandInfo
$Og:_Enumerator_MoveNext_m3078170540_AdjustorThunk
Y$e:__ZN5physx28PxcContactCapsuleHeightFieldERKNS_2Gu13GeometryUnionES3_RKNS_11PxTransformES6_RKfRNS_10PxcNpCacheERNS0_13ContactBufferE
Dag:_SymmetricAlgorithm_get_Padding_m718051685
iha:__ZN26RecursivePlayableTraverser8TraverseER9FrameDataP8PlayableS3_P14DirectorPlayeriPvf
Erf:__ZN21UnityAnalyticsManager15ThreadedCleanupEv
BDb:__ZN15DirectorManager18ScheduleForRemovalEP18PlayableController
ksd:__ZL31PointInConvexPolygon2D_OutCodesPKfjffffRh
Cbe:__ZN5physx22NpParticleBaseTemplateINS_16PxParticleSystemENS_16NpParticleSystemEE18setDynamicFrictionEf
fIc:__Z22Mesh_CUSTOM_HasChannelP12Il2CppObject30InternalScriptingShaderChannel
u2i:__ZL108AeroplaneController_t967620215_CustomAttributesCacheGenerator_AeroplaneController_get_PitchInput_m2861483557P21CustomAttributesCache
F2c:__ZL15AccumulateNoiseILb1ELi1EEN4math8floatNx2ERKNS0_8floatNx3ERKfiS6_S6_
wCa:__ZN6prcoreL17RemapGenericFloatI18TexFormatRGBAFloat17TexFormatRGBFloatEEvPKNS_9InnerInfoE
KDb:__ZN8Playable11SetDurationEd
KTd:__ZN5physx2Sc21ArticulationJointCore21setInternalComplianceEf
uAi:__ZL76Convert_t2607082565_CustomAttributesCacheGenerator_Convert_ToChar_m541258017P21CustomAttributesCache
U2e:__ZN9Rigidbody12MoveRotationERK11Quaternionf
fSe:__ZNK5physx6shdfnd10Foundation13getErrorLevelEv
KHc:__Z50Register_UnityEngine_Quaternion_INTERNAL_CALL_Lerpv
I_:__ZN11AudioSource31UpdateEffectVirtualizationStateEb
vxj:_GUIUtility_Internal_GetHotControl_m2510727642
H_:__ZN12AudioManager29ShutdownReinitializeAndReloadEv
CBf:__ZN5physx18RepXSerializerImplINS_16PxVehicleNoDriveEE12objectToFileERKNS_12PxRepXObjectEPNS_12PxCollectionERNS_9XmlWriterERNS_12MemoryBufferERNS_23PxRepXInstantiationArgsE
TSl:_NetscapeCertTypeExtension_Decode_m2210025005
_Ci:__ZL59StringComparison_t2376310518_CustomAttributesCacheGeneratorP21CustomAttributesCache
LLk:__Z32RuntimeInvoker_Plane_t3727654732PK10MethodInfoPvPS2_
lLe:__ZN5physx2Cm12DelegateTaskINS_2Sc5SceneEXadL_ZNS3_15postNarrowPhaseEPNS_10PxBaseTaskEEEE11runInternalEv
CXj:_Joystick_OnPointerDown_m101935171
n1e:__Z20ConvertContactToMonoP9Collision
Vll:_AudioSource_PlayOneShot_m4118899740
Dbd:__ZN17RemapPPtrTransfer8TransferI22ParticleSystemRendererEEvRT_PKc17TransferMetaFlags
JJj:_RectTransform_GetLocalCorners_m1836626405
iyi:__ZL61ISecurityEncodable_t2815109328_CustomAttributesCacheGeneratorP21CustomAttributesCache
GOf:__ZN5physx50solveDriveNWInternalDynamicsEnginePlusDrivenWheelsERKNS_19ImplicitSolverInputEPNS_20ImplicitSolverOutputE
aOh:_FileLoadException__ctor_m1356374414
jci:_TlsStream_Reset_m1504601050
Rcl:_InternalEnumerator_1_System_Collections_IEnumerator_get_Current_m1810411564_AdjustorThunk
jyc:__Z29GetGlobalAllowNameConversionsv
jsd:__ZL17transformVerticesRfS_S_S_PfjPKN5physx6PxVec3EPKhRKNS1_7PxMat33E
b0e:__ZNK5physx2Gu15HeightFieldUtil31getFaceIndexAtShapePointNoTest2Ejff
Epc:__ZN8Material8SetColorEN9ShaderLab16FastPropertyNameERK10ColorRGBAf
E4:__ZN9AudioClip27IsFormatSupportedByPlatformERKNSt3__212basic_stringIcNS0_11char_traitsIcEENS0_9allocatorIcEEEE
IEe:__ZN5physx6shdfnd5ArrayIPNS_14PxLightCpuTaskENS0_13TempAllocatorEE6resizeEjRKS3_
fTj:_Module_GetCustomAttributes_m3581287913
noi:__ZL67Type_t_CustomAttributesCacheGenerator_Type_IsSubclassOf_m2450899481P21CustomAttributesCache
B2:__ZN11AudioSource23VirtualRedirectTransferER18StreamedBinaryReadILb0EE
U9e:__ZN20TextRenderingPrivate17TextMeshGenerator24GetCursorIndexAtPositionERK5RectTIfERK8Vector2f
uKm:__ZN13dynamic_arrayIP12Il2CppObjectLj4EE20resize_uninitializedEjb
YCj:_Mesh_set_normals_m2674236682
G0j:_InputAxisScrollbar__ctor_m290444913
pse:__ZNK5physx2Sq10AABBPruner5sweepERKNS0_9ShapeDataERKNS_6PxVec3ERfRNS0_14PrunerCallbackE
F5b:__ZN10RectOffset8TransferI19StreamedBinaryWriteILb0EEEEvRT_
Vja:__ZL41AssemblyNameMatchesWithOrWithoutExtensionPKcS0_
evb:__ZN21ArchiveStorageCreatorC2Ev
nne:__ZN5physx2Sc5Scene21fireCallBacksPostSyncEv
Ukl:_AssemblyIsEditorAssembly__ctor_m2639706522
RUa:__ZN14GfxContextGLES43AddRenderSurfaceToDeferredFBOInvalidateListEPK17RenderSurfaceGLES
Bpm:__ZN15dense_hashtableINSt3__24pairIK10KeyWrapperINS0_12basic_stringIcNS0_11char_traitsIcEENS0_9allocatorIcEEEEEP11Il2CppClassEES9_N6il2cpp5utils11StringUtils12StringHasherIS8_EEN14dense_hash_mapIS9_SC_SI_NS0_8equal_toIS9_EENS6_ISD_EEE9SelectKeyESL_SM_EC2EjRKSI_RKSL_RKSO_
Vte:__ZN5physx17PxsCCDAdvanceTask11runInternalEv
Uwa:__ZN11NamedObject23VirtualRedirectTransferER14SafeBinaryRead
c7k:_InternalEnumerator_1_get_Current_m4279678504_gshared
U8e:__ZNSt3__26vectorIN20TextRenderingPrivate8FontImpl13CharacterInfoE13stl_allocatorIS3_L18MemLabelIdentifier1ELi16EEE6insertENS_11__wrap_iterIPKS3_EERS9_
YDa:__ZN23PreloadManagerOperation6IsDoneEv
ysb:__ZN15SerializeTraitsINSt3__24pairI8UnityStrN11AssetBundle9AssetInfoEEEE8TransferI19StreamedBinaryWriteILb0EEEEvRS5_RT_
v4h:_X509Certificate_get_RawData_m3000055075
Qmm:__ZNSt3__26vectorIPK10Il2CppTypeNS_9allocatorIS3_EEE21__push_back_slow_pathIRKS3_EEvOT_
$qc:__Z33GetHasChangedDeprecatedSystemMaskv
nOf:__ZN5physx3Pvd17PvdPropertyFilterINS_2Sn17RepXVisitorWriterINS_27PxVehicleDifferential4WDataEEEE14handleAccessorILj543ENS_22PxRepXPropertyAccessorILj543ES4_ffEEEEvRKT0_
vQm:__ZN6il2cpp5utils11StringUtils11Utf16ToUtf8ERKNSt3__212basic_stringIDsNS2_11char_traitsIDsEENS2_9allocatorIDsEEEE
nNh:_MonoIO_GetException_m2577367044
CCd:__ZN5physx3Cct26CharacterControllerManagerD2Ev
P4j:_Enumerator_VerifyState_m1165543189_AdjustorThunk
JFg:_DateTime_AddSeconds_m722082155_AdjustorThunk
Pug:_SynchronizedArrayListWrapper_CopyTo_m956887031
lhk:__Z57RuntimeInvoker_Void_t1841601450_Il2CppObject_Il2CppObjectPK10MethodInfoPvPS2_
WHa:__ZN21LightProbeProxyVolume18HasHardwareSupportEv
jmd:__ZNK20b2SeparationFunction17FindMinSeparationEPiS0_f
dBa:__ZN6prcoreL31inner_stretch_argb8888_bilinearEPKNS_9InnerInfoE
I9b:__Z18Transfer_BlittableI18StreamedBinaryReadILb1EELb1E8BitFieldEvRK29SerializationCommandArgumentsR31RuntimeSerializationCommandInfo
Sbf:_UNITY_FT_Outline_Decompose
ohm:__ZL23UnresolvedVirtualCall_8P12Il2CppObjectS0_S0_PK10MethodInfo
rfi:_TlsClientCertificate_get_ClientCertificate_m3062440489
Ccg:_StrongNamePublicKeyBlob_ToString_m3721281223
iPi:__ZL80UnityEvent_t408735097_CustomAttributesCacheGenerator_UnityEvent__ctor_m588741179P21CustomAttributesCache
P6k:_InternalEnumerator_1_get_Current_m198513457_AdjustorThunk
wte:__ZN5physx6shdfnd8internal8HashBaseINS0_4PairIKNS3_IPKNS_12PxsRigidCoreEPKNS_12PxsShapeCoreEEEPNS_11PxsCCDShapeEEESA_NS0_4HashISA_EENS1_11HashMapBaseISA_SD_SG_NS0_9AllocatorEE6GetKeyESI_Lb1EE15reserveInternalEj
Lal:_InternalEnumerator_1__ctor_m1240086835_AdjustorThunk
d9:__ZN11UnityEngine15CloudWebService10RestClientINS0_16WWWRestHeaderMapEED2Ev
LCc:__Z31Display_CUSTOM_GetSystemExtImpl13Il2Cpp_IntPtrPiS0_
aDm:__ZN6il2cpp2gc19AppendOnlyGCHashMapINSt3__24pairIPK11Il2CppImageP11Il2CppClassEEP22Il2CppReflectionModule17ReflectionMapHashIS9_E19ReflectionMapEqualsIS9_EEC2Ev
jPc:__Z58Register_UnityEngine_Object_Internal_CloneSingleWithParentv
RHh:_TextInfo_ToUpper_m299550697
X5j:_ShimEnumerator_get_Entry_m2332479818_gshared
doe:__ZN5physx2Sc5Scene21setDominanceGroupPairEhhRKNS_20PxDominanceGroupPairE
RPj:_MethodBuilder_get_DeclaringType_m2734207591
Mih:_ReadOnlyCollection_1_System_Collections_IList_Contains_m4073811941_gshared
yfb:__ZN18ShadowMapJobHeaderD0Ev
xvh:_Graphic_OnRectTransformDimensionsChange_m1610753363
fx:__ZN14NavMeshManager23RemoveOffMeshConnectionEy
VFg:_DateTime_CheckDateTimeKind_m329345155_AdjustorThunk
FDg:_Convert_ToUInt16_m3265369225
O:Math_exp
zUh:_MonoEnumInfo_get_Cache_m3551569711
Eq:FUNCTION_TABLE_iiifi
kRm:__ZN6il2cpp2os5posix13PosixAutoLockD2Ev
FRf:_Array_InternalArray__ICollection_Contains_TisVector3_t2243707580_m3625701788_gshared
$Ja:__ZNSt3__26vectorINS_4pairIyP17VertexDeclarationEENS_9allocatorIS4_EEE6insertENS_11__wrap_iterIPKS4_EERS9_
ixm:_il2cpp_object_get_virtual_method
hzf:__ZN5physx22PxVehicleWheelsSimData20setWheelShapeMappingEji
_ff:_cff_get_advances
U8a:__ZNK17MeshRenderingData30ExtractMeshBuffersAndDrawRangeEjiR11MeshBuffersR16DrawBuffersRangeb
ybf:_UNITY_FT_Create_Class_sfnt_module_class
WOk:_ImageEffects__ctor_m2339405407
xJi:__ZL87Object_t1021602117_CustomAttributesCacheGenerator_Object_DestroyObject_m282495858____t1P21CustomAttributesCache
mSm:__ZNSt3__218uninitialized_copyIPNS_4pairIK10KeyWrapperIP14Il2CppIUnknownEjEES8_EET0_T_SA_S9_
oXg:_List_1__ctor_m3261706538_gshared
Dfe:__ZN5physx7NpScene12loadFromDescERKNS_11PxSceneDescE
bIg:_Decimal_IsZero_m3557909184_AdjustorThunk
msg:_Char_ToString_m1401375624
o6f:_MD5CryptoServiceProvider__cctor_m3309191799
Vea:__ZNK10FileSystem16LastErrorMessageEv
mZj:_Camera2DFollow_Update_m1039954717
F_g:__ZN21InterfaceFuncInvoker0I20UIVertex_t1204258818E6InvokeEjP11Il2CppClassPv
Rej:_InterpreterFactory_get_NamesMapping_m3186583301
yAl:_ConfigHandler_ReadCustomProviderData_m784203316
MQg:_Enumerator_System_Collections_IEnumerator_Reset_m3052395060_gshared
Uwf:__ZN22UnityWebRequestManager10InitializeEv
Psb:__ZN17PersistentManager24GetTypeFromPathAndFileIDERKNSt3__212basic_stringIcNS0_11char_traitsIcEENS0_9allocatorIcEEEEx
D7h:_Kernel_DwordDivMod_m3728402123
mZb:__ZN13MonoBehaviour13AwakeFromLoadE17AwakeFromLoadMode
kld:__ZN16CircleCollider2D14CreateInternalEP11Rigidbody2D
T2b:__ZL26Transfer_SimpleNativeClassI17RemapPPtrTransfer8GradientLb1EEvRK29SerializationCommandArgumentsR31RuntimeSerializationCommandInfo
nrc:__ZN12CachedWriter9InitWriteER15CacheWriterBase
GPc:__Z21UnsignedInt64ToStringy
$Pk:_Vignetting_CheckResources_m1196379802
dVk:_UTF7Decoder__ctor_m549434986
boe:__ZN5physx14PxsAABBManager15createAggregateEPvb
Rdl:_InternalEnumerator_1_get_Current_m1025321669_AdjustorThunk
NXl:_Rigidbody_set_isKinematic_m738793415
rEj:_Object_t1021602117_marshal_pinvoke
HTk:_AdvancedSetttings__ctor_m1758063854
FIc:__Z36MonoBehaviour_CUSTOM_InvokeRepeatingP12Il2CppObjectP12Il2CppStringff
gon:_emscripten_glTexCoordPointer__wrapper
f4l:_WaitForSecondsRealtime_get_keepWaiting_m741039114
JOc:__Z66Register_UnityEngine_Transform_INTERNAL_CALL_InverseTransformPointv
l8k:_InternalEnumerator_1_MoveNext_m2720582493_gshared
$Ug:_List_1_IndexOf_m1434084853_gshared
pXj:_Displace_Awake_m1953225425
rb:invoke_iiiiifiiiif
GUm:__ZN15dense_hashtableINSt3__24pairIK10KeyWrapperIPK19Il2CppGenericMethodEP10MethodInfoEES6_N6il2cpp8metadata23Il2CppGenericMethodHashEN14dense_hash_mapIS6_S9_SD_NSC_26Il2CppGenericMethodCompareENS0_9allocatorISA_EEE9SelectKeyESF_SH_E5clearEv
Ldj:_Group__ctor_m4103922028
b6a:__ZN6Camera26ClearIntermediateRenderersEj
Otm:__ZNSt3__214__split_bufferI6pollfdRNS_9allocatorIS1_EEEC2EjjS4_
uHf:__ZN5physx2Sn17readAllPropertiesINS_23PxVehicleDriveSimData4WEEEbNS_23PxRepXInstantiationArgsERNS_9XmlReaderEPT_RNS_18XmlMemoryAllocatorERNS_12PxCollectionE
t5a:_UNITY_png_write_pCAL
Ysn:_glLinkProgram__wrapper
KBa:__ZN6prcoreL12RemapGenericI17TexFormatARGB888815TexFormatBGR888EEvPKNS_9InnerInfoE
u6f:_MD5CryptoServiceProvider_ProcessFinalBlock_m1052610785
dvg:_BitArray_Set_m2878881714
A9g:_Collection_1_get_Item_m4215988522_gshared
R1d:__ZN5physx7NpShape8requiresERNS_23PxProcessPxBaseCallbackE
cKm:__ZN6il2cpp6icalls8mscorlib6System13Globalization11CultureInfo35construct_internal_locale_from_nameEP17Il2CppCultureInfoP12Il2CppString
_Ff:__ZN5physx2Sn21RepXVisitorWriterBaseINS_22PxVehicleWheelsDynDataEE23extendedIndexedPropertyINS_3Pvd36PxPvdExtendedIndexedPropertyAccessorILj632ES2_KjfEEKNS_18PxUnknownClassInfoEEEvPjRKT_RT0_
J4g:__ZN18VirtActionInvoker2Ii40CustomAttributeTypedArgument_t1498197914E6InvokeEjPviS0_
_3b:__ZL22Transfer_ManagedObjectI24GenerateTypeTreeTransferLb1EEvRK29SerializationCommandArgumentsR31RuntimeSerializationCommandInfo
Ati:__ZL55COMException_t1790481504_CustomAttributesCacheGeneratorP21CustomAttributesCache
LVe:__ZN11JointSpring8TransferI18StreamedBinaryReadILb1EEEEvRT_
h$h:_ASN1_get_Count_m404940548
TBl:_ContextAttribute_Equals_m53324298
WAh:_InputField_MoveLeft_m688575903
bl:_emscripten_set_main_loop_timing
MCc:__Z34Display_CUSTOM_GetRenderingExtImpl13Il2Cpp_IntPtrPiS0_
txf:__ZN13WheelColliderD0Ev
rqm:__ZN15dense_hashtableINSt3__24pairIK10KeyWrapperI13dynamic_arrayIPK10Il2CppTypeLj4EEEPFvvEEES8_N6il2cpp8metadata19Il2CppSignatureHashEN14dense_hash_mapIS8_SB_SF_NSE_22Il2CppSignatureCompareENS0_9allocatorISC_EEE9SelectKeyESH_SJ_E12resize_deltaEjj
_2k:_WeakReference_AllocateHandle_m1783929473
HTd:__ZN5physx2Sc21ArticulationJointCore22setTangentialStiffnessEf
oBf:__ZZNK5physx26PxSerializerDefaultAdapterINS_18PxVehicleDriveTankEE18registerReferencesERNS_6PxBaseERNS_22PxSerializationContextEEN16RequiresCallback7processES4_
aHc:__Z27Light_Get_Custom_PropCookieP12Il2CppObject
sAe:__ZNK5physx20SingleAABBUpdateTask7getNameEv
Tkb:__ZN14ImageReference10FlipImageYEv
jll:_AsyncOperation_get_allowSceneActivation_m2825451182
s7c:__ZN21InheritVelocityModule8TransferI17RemapPPtrTransferEEvRT_
pFf:__Z45getNbPxVehicleWheelsSimData_WheelEnabledStatePKN5physx22PxVehicleWheelsSimDataE
Ayb:__Z32TransferEnumWithNameForceIntSizeI14SafeBinaryRead13TargetEyeMaskEvRT_RT0_PKc17TransferMetaFlags
ydc:__ZNSt3__26vectorIN9ShaderLab20SerializedSubProgram15VectorParameterENS_9allocatorIS3_EEE8__appendEj
HNg:_CultureInfo_get_Name_m3316229893
zFg:_DateTime_get_Ticks_m310281298_AdjustorThunk
bY:__ZN4FMOD3DSP9setBypassEb
Jah:_Collection_1_System_Collections_IList_get_Item_m287847793_gshared
srb:__Z19NormalizeWheelInputf
xdj:_CaptureCollection_CopyTo_m1982767892
rob:__Z29StdTemplateConversionFunctionIsaEbPvR14SafeBinaryRead
NRf:_Array_InternalArray__ICollection_Remove_TisLink_t865133271_m1984184141_gshared
YWc:__Z29Transfer_Blittable_ArrayFieldI8JSONReadhEvRT_R9ArrayInfoRK23StaticTransferFieldInfo
_Ch:_LayoutRebuilder_IsDestroyed_m3442208294
Zvc:__ZN11MonoManager25GetImageFromAssemblyIndexEi
q6d:__ZN5physx2Sc9ClothCore17addCollisionPlaneERKNS_21PxClothCollisionPlaneE
AGg:_DateTimeOffset_Equals_m3467127074
c7i:__ZN21InterfaceFuncInvoker1IP13Uri_t19570940S1_E6InvokeEjP11Il2CppClassPvS1_
_2a:__ZZ23InitPlayerLoopCallbacksvEN43PostLateUpdateClearImmediateRenderersstruct7ForwardEv
xZc:__Z18Transfer_BlittableI9JSONWriteLb1EtEvRK29SerializationCommandArgumentsR31RuntimeSerializationCommandInfo
bOh:_FileLoadException__ctor_m918124939
tl:___syscall85
hQk:_U3CGenerateCloudsU3Ec__Iterator0_MoveNext_m3271026647
CNe:__ZNK5physx13PxHeightField8isKindOfEPKc
Qkm:__ZL25UnresolvedVirtualCall_198P12Il2CppObjectfPK10MethodInfo
Asg:__ZN18VirtActionInvoker1IP12Il2CppObjectE6InvokeEjPvS1_
N9a:__ZNSt3__26__sortIRPFbP10GUIElementS2_EPS2_EEvT0_S7_T_
l8h:_SequentialSearchPrimeGeneratorBase_GenerateSearchBase_m2930465198
Y8e:__Z14ValidateFormatR13dynamic_arrayIN20TextRenderingPrivate16TextFormatChangeELj4EE
z2:__ZNK11AudioSource26GetTypeInfoVirtualInternalEv
W4i:__ZN23InterfaceActionInvoker2IP12Il2CppObjectS1_E6InvokeEjP11Il2CppClassPvS1_S1_
Fmm:__ZN6il2cpp2vmL21SetupInterfacesLockedEP11Il2CppClassRKNS_2os12FastAutoLockE
R7d:__ZNK5physx15NpActorTemplateINS_15PxParticleFluidEE12getAggregateEv
dLe:__ZNK5physx2Sc18ParticleSystemCore16getInternalFlagsEv
ldj:_Capture__ctor_m885749277
Vwj:_GUIStyle_set_clipOffset_m3871613343
Syh:_SubmitEvent__ctor_m222860306
hBd:__ZN16ControllerFilter9preFilterERKN5physx12PxFilterDataEPKNS0_7PxShapeEPKNS0_12PxRigidActorERNS0_7PxFlagsINS0_9PxHitFlag4EnumEtEE
r8:__ZN11UnityEngine15CloudWebService14DataDispatcher15SetupWebRequestEv
_pk:__Z94RuntimeInvoker_Int32_t2071877448_Il2CppObject_Int32_t2071877448_Il2CppObject_Int32_t2071877448PK10MethodInfoPvPS2_
qSh:_TextWriter__cctor_m4047845042
wkc:__ZN13TrailRenderer26RendererCullingOutputReadyEPP12BaseRendererjPK6CameraRK10Matrix4x4f
Mhi:_ReceiveRecordAsyncResult_get_Record_m1336421357
Ntf:__ZN11UnityEngine15PlatformWrapper13GetShaderCapsEv
GVf:__ZN16VirtFuncInvoker2IbP12Il2CppObjectS1_E6InvokeEjPvS1_S1_
oze:__ZN16MBPOS_TmpBuffers16allocateSleepingEjj
LDf:__Z26getPxVehicleWheelDataMMassPKN5physx18PxVehicleWheelDataE
rAi:__ZL76Convert_t2607082565_CustomAttributesCacheGenerator_Convert_ToByte_m509311047P21CustomAttributesCache
RWf:_Array_InternalArray__IndexOf_TisParticleCollisionEvent_t248228720_m3828434286_gshared
kzh:_InputField_CaretBlink_m3960486606
Z3b:__Z65EmitSerializationCommandsForLinearCollectionOfManagedObjectsFieldI24GenerateTypeTreeTransferEvRK23TransferArrayField_InfoR20SerializationCommandR32SerializationCommandQueueBuilderRP20AllowNameConversions
oBl:__ZN23InterfaceActionInvoker3IP12Il2CppObjectbbE6InvokeEjP11Il2CppClassPvS1_bb
l1h:_SmallXmlParser_ReadCharacters_m1966365555
uji:_InternalAsyncResult_get_CompletedWithError_m3993955322
KUe:__ZN19CharacterController23VirtualRedirectTransferER19StreamedBinaryWriteILb0EE
Yoc:__ZN21FixedBehaviourManager6UpdateEv
Atc:__ZN9Transform9SetParentEPS_NS_15SetParentOptionE
Kdh:_ReadOnlyCollection_1_System_Collections_IList_Add_m527174473_gshared
$7c:__ZN15CollisionModule8TransferI18StreamedBinaryReadILb0EEEEvRT_
a8e:__ZNK20TextRenderingPrivate7FontRefltERKS0_
lFa:__ZN19RuntimeSceneManager24BeginIntegrateMainThreadEP10UnityScene
lvk:__Z42RuntimeInvoker_RuntimePlatform_t1869584967PK10MethodInfoPvPS2_
uRd:__ZN5physx14NpArticulation26setExternalDriveIterationsEj
Nsd:__ZN16RayRTreeCallbackILi0ELb0EED0Ev
Ouk:__Z80RuntimeInvoker_Void_t1841601450_Il2CppObject_Int32_t2071877448_Int16_t4041245914PK10MethodInfoPvPS2_
MEe:__ZN5physx20PxsParticleSystemSim23scheduleCollisionUpdateERNS_10PxBaseTaskE
PVm:__ZNSt3__2plIcNS_11char_traitsIcEENS_9allocatorIcEEEENS_12basic_stringIT_T0_T1_EERKS9_S6_
sok:__Z53RuntimeInvoker_MonoEventInfo_t2190036573_Il2CppObjectPK10MethodInfoPvPS2_
hTh:_LocalDataStoreSlot__cctor_m1192669356
Hdc:__ZN9ShaderLab20SerializedSubProgramaSERKS0_
Hhn:_roundf
gig:_String_CreateString_m2556700934
Kxb:__ZN18StreamedBinaryReadILb0EE21TransferSTLStyleArrayINSt3__26vectorI17SortingLayerEntryNS2_9allocatorIS4_EEEEEEvRT_17TransferMetaFlags
$Kf:__Z36setPxVehicleDriveDynData_AnalogInputPN5physx21PxVehicleDriveDynDataEjf
_2f:__ZN23InterfaceActionInvoker1IP12Il2CppObjectE6InvokeEjP11Il2CppClassPvS1_
aLi:__ZL80Physics_t634932869_CustomAttributesCacheGenerator_Physics_RaycastAll_m3650851272P21CustomAttributesCache
ZDd:__ZN5physx15PxBoxControllerD0Ev
cH:__ZN8Animator15SetPrepareStageEv
o_m:__ZN6il2cpp6icalls8mscorlib6System4Text8Encoding16InternalCodePageEPi
lQl:_Slider_get_axis_m162140813
XTj:_MonoEventInfo_t2190036573_marshal_pinvoke
Gmm:__ZN6il2cpp2vmL24SetupTypeHierarchyLockedEP11Il2CppClassRKNS_2os12FastAutoLockE
Azm:__ZN15dense_hashtableINSt3__24pairIK10KeyWrapperIPK10Il2CppTypeEjEES6_N6il2cpp8metadata14Il2CppTypeHashEN14dense_hash_mapIS6_jSB_NSA_17Il2CppTypeCompareENS0_9allocatorIS8_EEE9SelectKeyESD_SF_E4findERS7_
wdb:__Z20CalculateLightMatrixRK15SharedLightDataP10Matrix4x4f
COl:_ScrollRect_SetLayoutHorizontal_m3486408020
w8e:_destroy_face
Ldm:_GenericEqualityComparer_1_GetHashCode_m116190842_gshared
lri:__ZL55StreamWriter_t3858580635_CustomAttributesCacheGeneratorP21CustomAttributesCache
wEd:__ZN5physx19PxAllocatorCallbackD2Ev
r_m:__ZN6il2cpp6icalls8mscorlib6System8Security12Cryptography24RNGCryptoServiceProvider13RngInitializeEP11Il2CppArray
s$g:_List_1_System_Collections_ICollection_get_IsSynchronized_m227393674_gshared
$_j:_AICharacterControl_set_agent_m148830213
Ocd:__ZN21RotationBySpeedModuleD0Ev
k7i:_IPAddress__cctor_m3624830012
cbe:__ZNK5physx15NpActorTemplateINS_16PxParticleSystemEE17getDominanceGroupEv
t3:__ZN20SoundChannelInstance7setMuteEb
dQl:_Slider_Rebuild_m3442875945
GCb:__ZN4PPtrI5LightE8TransferI19StreamedBinaryWriteILb0EEEEvRT_
vCd:__ZN5physx3Cct26CharacterControllerManager21createObstacleContextEv
iMi:__ZL115AnimatorStateInfo_t2577870592_CustomAttributesCacheGenerator_AnimatorStateInfo_t2577870592____nameHash_PropertyInfoP21CustomAttributesCache
e9i:_AsnEncodedData_EnhancedKeyUsageExtension_m1452131166
abn:__ZNSt3__210moneypunctIcLb0EED2Ev
HUi:__ZL69Scrollbar_t3248359358_CustomAttributesCacheGenerator_m_OnValueChangedP21CustomAttributesCache
cAk:__Z126RuntimeInvoker_Void_t1841601450_Single_t2076509932_Vector3_t2243707580_Single_t2076509932_Single_t2076509932_Int32_t2071877448PK10MethodInfoPvPS2_
nac:__Z19TransferField_ArrayI18StreamedBinaryReadILb1EE27Converter_SimpleNativeClassI17AnimationCurveTplIfEEEvRK23StaticTransferFieldInfoR31RuntimeSerializationCommandInfoRT0_
dOg:_KeyValuePair_2__ctor_m3201181706_gshared
Iod:__ZN7b2World18SetContactListenerEP17b2ContactListener
xae:__ZN5physx15NpActorTemplateINS_15PxParticleFluidEE7releaseEv
Yz:__ZNSt3__26vectorI4PPtrI13AnimationClipE13stl_allocatorIS3_L18MemLabelIdentifier25ELi16EEE8__appendEj
Sdj:_GroupCollection_get_IsSynchronized_m1100663675
ZQa:__ZN18GfxFramebufferGLES22MakeCurrentFramebufferENS_7BuiltinE
n_m:__ZN6il2cpp2vm12MarshalAlloc4FreeEPv
rej:_Interpreter_Close_m1500459069
Phe:__ZN5physx6shdfnd5ArrayIPNS_2Sc19ShapeInstancePairLLENS0_19ReflectionAllocatorIS4_EEE15growAndPushBackERKS4_
bRk:_U3CDragObjectU3Ec__Iterator0_Dispose_m355530854
BXg:_List_1_System_Collections_ICollection_get_SyncRoot_m690028787_gshared
kWb:__ZN30RuntimeInitializeOnLoadManager23VirtualRedirectTransferER18StreamedBinaryReadILb1EE
y4l:_WheelFrictionCurve_set_stiffness_m122672056
dwa:__ZN12CachedReader4ReadEPvj
zye:__ZN5physx21MBPPostUpdateWorkTaskD0Ev
cZj:_SSAOEffect_OnRenderImage_m2096640684
gHd:__ZN5physx14PxsAABBManager19createAggregateElemEv
IVd:__ZN5physx2Sc8BodyCore24clearSpatialAccelerationEbb
G_i:__ZL92Tonemapping_t4130158214_CustomAttributesCacheGenerator_Tonemapping_OnRenderImage_m2696180074P21CustomAttributesCache
T6k:_InternalEnumerator_1_System_Collections_IEnumerator_get_Current_m3600601141_gshared
p9f:_SHA1Internal_HashFinal_m3188468925
DSb:__ZN14SubstanceInput8TransferI18StreamedBinaryReadILb0EEEEvRT_
y3l:_Vector3_op_Inequality_m799191452
sHm:__ZN30dense_hashtable_const_iteratorINSt3__24pairIK10KeyWrapperIP11Il2CppClassES4_EES5_N6il2cpp8metadata16SZArrayClassHashEN14dense_hash_mapIS5_S4_SA_NS9_19SZArrayClassCompareENS0_9allocatorIS7_EEE9SelectKeyESC_SE_E30advance_past_empty_and_deletedEv
zdb:__Z24CalculateLightShadowFadeRK6CamerafffR8Vector4f
$ja:__ZN19RuntimeSceneManagerD2Ev
qDi:__ZL55HeaderHandler_t324204131_CustomAttributesCacheGeneratorP21CustomAttributesCache
Ezl:_ChannelData_get_CustomProperties_m1470957369
Hzm:__ZNK15dense_hashtableINSt3__24pairIK10KeyWrapperIPK10Il2CppTypeEjEES6_N6il2cpp8metadata14Il2CppTypeHashEN14dense_hash_mapIS6_jSB_NSA_17Il2CppTypeCompareENS0_9allocatorIS8_EEE9SelectKeyESD_SF_E12test_deletedEj
cBa:__ZN6prcore17GetIntegerBlitterE13TextureFormatS0_N14ImageReference8BlitModeE
Ihe:__ZN5physx10PxsContext20createContactManagerERKNS_24PxvManagerDescRigidRigidEPNS_18PxsMaterialManagerE
izf:__ZN13WheelCollider8TransferI14SafeBinaryReadEEvRT_
Ejd:__ZN13BoxCollider2DD0Ev
m5j:_Enumerator_VerifyState_m3173176371_AdjustorThunk
Vfe:__ZN5physx2Cm12DelegateTaskINS_7NpSceneEXadL_ZNS2_12executeSolveEPNS_10PxBaseTaskEEEED0Ev
utd:__ZN5physx2GuL18gPCMHullPrefetchCBEjPKNS_6PxVec3E
DLd:__ZN5physx2Sc5Scene31removeActiveBreakableConstraintEPNS0_13ConstraintSimE
CLh:_Int64_ToString_m1275187741
uli:__ZL47Char_t3454481338_CustomAttributesCacheGeneratorP21CustomAttributesCache
Zjg:_Encoding_get_IsReadOnly_m3729101432
iyc:__ZN9BlobWrite14ReduceCopyImplERK14ReduceCopyDataj
B2k:_ValueType_t3507792607_marshal_pinvoke_back
xgl:_Comparer_1_System_Collections_IComparer_Compare_m1790257529_gshared
RMk:__Z37RuntimeInvoker_Enumerator_t3220004478PK10MethodInfoPvPS2_
_Sj:_MethodInfo_get_ContainsGenericParameters_m572340060
rid:__ZNK12b2WheelJoint10GetAnchorAEv
eme:__ZN5physx6shdfnd5ArrayINS_12PxActorShapeENS0_19ReflectionAllocatorIS2_EEE15growAndPushBackERKS2_
q0a:__ZN25MultiBlocksMemoryFileData17AdjustBlocksCountEj
uta:__ZNK22BuiltinResourceManager11GetResourceEPKN5Unity4TypeERKNSt3__212basic_stringIcNS4_11char_traitsIcEENS4_9allocatorIcEEEE
FTb:__ZNK11TimeManager26GetTypeInfoVirtualInternalEv
kdi:_TlsClientHello__ctor_m1699671541
z6e:__ZN13TextRendering4Font8TransferI24GenerateTypeTreeTransferEEvRT_
Eqa:__ZN17CommonStringTableC2Ev
mBl:_Context_NotifyGlobalDynamicSinks_m2916447645
vCc:__Z27CullingGroup_CUSTOM_DisposeP12Il2CppObject
sHj:_Random_Range_m2884721203
BJm:__ZN6il2cpp6icalls8mscorlib6SystemL23CheckWideningConversionEjjj
cam:_CarController_ConvertInputToAccelerationAndBraking_m596056684
O$c:__ZN15SerializeTraitsIN16ParticleRenderer11UVAnimationEE8TransferI14SafeBinaryReadEEvRS1_RT_
iJk:__Z48RuntimeInvoker_Void_t1841601450_Mark_t2724874473PK10MethodInfoPvPS2_
Utj:_GUILayoutEntry_ApplyStyleSettings_m371609721
r_d:__ZN5physx2Sc14ConstraintCore8setFlagsENS_7PxFlagsINS_16PxConstraintFlag4EnumEtEE
$7g:_Collection_1_Remove_m1798559666_gshared
En:_glStencilMask
LRm:__ZN6il2cpp2os10ThreadImpl16GetCurrentThreadEv
wMe:__ZNK5physx2Sc15ClothFabricCore20getNbParticleIndicesEv
urb:__ZN15GUIEventManager10QueueEventERK10InputEvent
T4j:_Enumerator_System_Collections_IEnumerator_get_Current_m2010873149_gshared
DKf:__ZN5physx2Sn21RepXVisitorReaderBaseINS_16PxVehicleDriveNWEE15complexPropertyINS_22PxRepXPropertyAccessorILj674ENS_14PxVehicleDriveENS_21PxVehicleDriveDynDataES7_EEKNS_34PxVehicleDriveDynDataGeneratedInfoEEEvPjRKT_RT0_
jjl:_AnimationEvent_get_messageOptions_m3547411650
ITg:_List_1_System_Collections_ICollection_get_IsSynchronized_m42432439_gshared
FVi:__ZL74SpriteState_t1353336012_CustomAttributesCacheGenerator_m_HighlightedSpriteP21CustomAttributesCache
Whj:_RealProxy__ctor_m2505535530
WXm:_GC_push_conditional_with_exclusions
r0k:_UInt32_System_IConvertible_ToUInt16_m2798641702_AdjustorThunk
bkj:_BinaryFormatter_get_DefaultSurrogateSelector_m219714691
XTe:__ZN8Collider23VirtualRedirectTransferER18StreamedBinaryReadILb1EE
QI:__ZN21AnimationPosePlayableD0Ev
X8:__ZN11UnityEngine15CloudWebService10RestClientINS0_16WWWRestHeaderMapEE6SetUrlERK8UnityStr
Gjf:_Compute_Point_Displacement
dNj:_ILGenerator_label_fixup_m1325994348
M9h:_MD4Managed_Encode_m2097839378
Hah:_Collection_1_System_Collections_IList_get_IsFixedSize_m3252091801_gshared
hHk:__Z57RuntimeInvoker_Boolean_t3825574718_LabelFixup_t4090909514PK10MethodInfoPvPS2_
Vsh:_FloatTween_get_ignoreTimeScale_m4161298485_AdjustorThunk
lNc:__Z44Register_UnityEngine_RenderTexture_set_depthv
DWj:__ZN16VirtFuncInvoker0IP18Stream_t3255436806E6InvokeEjPv
Bfh:_ReadOnlyCollection_1_System_Collections_IList_get_IsFixedSize_m993752291_gshared
VTk:_AeroplaneController_set_PitchAngle_m4225810285
VKd:__ZN5physx2Sc7BodySim6wakeUpEv
ual:_InternalEnumerator_1_get_Current_m1550231132_gshared
oV:__ZN11UnityEngine9Animation28GenericAnimationBindingCache25RegisterIAnimationBindingE11ClassIDTypeiP17IAnimationBinding
pam:_CarAudio_StartSound_m1770429795
Jwh:__ZN21InterfaceFuncInvoker1IP19Graphic_t2426225576iE6InvokeEjP11Il2CppClassPvi
pYh:_SimpleCollator_GetSortKey_m2188419329
yhe:__ZN5physx6shdfnd8PoolBaseINS_2Gu30LargePersistentContactManifoldENS0_19ReflectionAllocatorIS3_EEE17releaseEmptySlabsEv
qLd:__ZN5physx2Sc21ConstraintInteraction7destroyEv
CXe:__ZN14SphereCollider6CreateEPK9Rigidbody
wWi:__ZL56LayoutElement_t2808691390_CustomAttributesCacheGeneratorP21CustomAttributesCache
ULl:_Scrollbar_Set_m244028386
dKc:__Z33Register_UnityEngine_Random_Rangev
dPc:__Z27Object_CUSTOM_DestroyObjectP12Il2CppObjectf
Lam:_CarController_set_AvgSkid_m1364125303
Wve:__ZN5physx13PxsSolverCoreD2Ev
oQe:__ZN5physx11AdjacenciesD2Ev
Ipb:__ZN16MemoryFileSystem6ParentERK13FileEntryDataRNSt3__212basic_stringIcNS3_11char_traitsIcEENS3_9allocatorIcEEEE
L9g:_Collection_1_System_Collections_IEnumerable_GetEnumerator_m2964241726_gshared
bVb:__ZN14PlayerSettings8TransferI18StreamedBinaryReadILb0EEEEvRT_
Ixf:__ZNK13WheelCollider12GetRigidbodyEv
Kul:_AnimationPlayable_op_Implicit_m408821639
Ipm:__ZN15dense_hashtableI10KeyWrapperIPK19Il2CppGenericMethodES4_N6il2cpp8metadata23Il2CppGenericMethodHashEN14dense_hash_setIS4_S7_NS6_26Il2CppGenericMethodCompareENSt3__29allocatorIS4_EEE8IdentityES9_SC_E4swapERSF_
cje:__ZNK5physx7NpScene16getNbConstraintsEv
r3f:_LayoutGroup_SetProperty_TisAxis_t1431825778_m2174054513_gshared
$4d:__ZN5physx7NpCloth14setWakeCounterEf
BIb:__ZN4PPtrI10GameObjectE8TransferI14SafeBinaryReadEEvRT_
WJc:__Z26Random_Set_Custom_PropSeedi
HDh:_Mask_IsRaycastLocationValid_m62488857
EKi:__ZL105Physics_t634932869_CustomAttributesCacheGenerator_Physics_Raycast_m2036777053____queryTriggerInteraction5P21CustomAttributesCache
m_e:__ZN5physx7profile11EventBufferINS_24PxDefaultContextProviderENS_6shdfnd6MutexTINS0_26WrapperReflectionAllocatorIhEEEENS0_14ScopedLockImplIS7_EENS_24PxProfileNullEventFilterEE17doAddProfileEventINS0_10StartEventEEEvtRKT_
Nfl:_DefaultComparer_Compare_m3472472212_gshared
j2i:__ZL107AeroplaneController_t967620215_CustomAttributesCacheGenerator_AeroplaneController_set_AirBrakes_m3113375320P21CustomAttributesCache
COh:_MonoIO_GetLength_m2812344043
cff:_ps_hints_t2mask
DPi:__ZL68UsedByNativeCodeAttribute_t3212052468_CustomAttributesCacheGeneratorP21CustomAttributesCache
Amg:_Array_SetValue_m3301692024
yOf:__ZN5physx43PxVehicleDrivableSurfaceToTireFrictionPairs5setupEjjPPKNS_10PxMaterialEPKNS_28PxVehicleDrivableSurfaceTypeE
aFf:__Z46setPxVehicleWheelsSimData_SceneQueryFilterDataPN5physx22PxVehicleWheelsSimDataEjNS_12PxFilterDataE
wPb:__ZN10BlendShape8TransferI19StreamedBinaryWriteILb0EEEEvRT_
flm:__ZL25UnresolvedVirtualCall_215P12Il2CppObject40CustomAttributeTypedArgument_t1498197914PK10MethodInfo
sva:__ZL4WalkRK16TypeTreeIteratorR12CachedReaderPib
NNe:__ZNK5physx2Gu11HeightField17getReferenceCountEv
T1l:_Transform_IsChildOf_m10844547
JY:__Z32TransferEnumWithNameForceIntSizeI14SafeBinaryReadN10SampleClip8LoadTypeEEvRT_RT0_PKc17TransferMetaFlags
Xsa:__Z19GetTimeSinceStartupv
_wa:__ZN7Texture23VirtualRedirectTransferER17RemapPPtrTransfer
zeg:_SecurityFrame_get_Assembly_m2816566490
uSj:_FieldInfo_GetPseudoCustomAttributes_m2500972355
pbg:_X509Certificate_GetEffectiveDateString_m644894317
tkf:_TT_Load_Composite_Glyph
ylm:__ZL25UnresolvedVirtualCall_234P12Il2CppObjecti19Vector3_t2243707580PK10MethodInfo
G4l:_NetFxCoreExtensions_CreateDelegate_m2492743074
Ulb:__Z33MultiplyMatrixArrayWithBase4x4REFPK10Matrix4x4fS1_S1_PS_j
Xhk:__Z51RuntimeInvoker_Boolean_t3825574718_Int64_t909078037PK10MethodInfoPvPS2_
gng:_Array_Sort_m2994254654
sz:__ZN15HeightMeshQueryD0Ev
d1g:_List_1__ctor_m593058937_gshared
gUf:_Array_InternalArray__IEnumerable_GetEnumerator_TisColor32_t874517518_m2198639025_gshared
ofb:__ZN29RenderNodeQueuePrepareContextC2Ev
dp:FUNCTION_TABLE_vifiiiii
$ec:__ZN9ShaderLab20SerializedSubProgram16TextureParameter8TransferI24GenerateTypeTreeTransferEEvRT_
Vt:__ZN15dtLocalBoundary6updateEyPKffPK14dtNavMeshQueryPK13dtQueryFilter
$Wk:_Thread_set_Name_m1343706609
F0m:__ZN6il2cpp2os11MutexHandle4WaitEj
kxc:__ZL34GetComponentsImplementationRecurseILb1ELi1ELi1EEbR10GameObjectbRK17CompareParametersRK39GetComponentsImplementation_ReturnValue
E0m:__ZN6il2cpp2os11MutexHandle4WaitEv
Jsg:_ArrayList_set_Capacity_m592558035
TCa:__ZN6prcoreL17RemapGenericFloatI15TexFormatRGHalf18TexFormatARGBFloatEEvPKNS_9InnerInfoE
DUh:_MonoEnumInfo_t2335995564_marshal_pinvoke_cleanup
Vua:__ZNK13RenderTexture13GetDataHeightEv
OKh:_Int64_System_IConvertible_ToDecimal_m3390697048_AdjustorThunk
W5a:__ZN13RenderManager23AddRemoveCamerasDelayedEv
v5a:_UNITY_png_write_pHYs
_Da:__ZN23PreloadManagerOperation11GetPriorityEv
cMg:_Exception_get_InnerException_m3722561235
DYj:_NoiseEffect_OnRenderImage_m2005309272
fSf:_Array_InternalArray__ICollection_Remove_TisILTokenInfo_t149559338_m1523907845_gshared
Irf:__ZN11UnityEngine9Analytics15AnalyticsConfigC2Ev
QZg:_List_1_GetEnumerator_m4053501645_gshared
j1e:__ZNK5Unity5Joint16GetCurrentForcesER8Vector3fS2_
kMf:__ZN5physx3Pvd17PvdPropertyFilterINS_2Sn17RepXVisitorWriterINS_18PxVehicleGearsDataEEEE15indexedPropertyILj530ES4_NS4_4EnumEfEEvjRKNS_21PxIndexedPropertyInfoIXT_ET0_T1_T2_EEPKNS_11PxU32ToNameERKNS_18PxUnknownClassInfoE
Pdm:_Enumerator_CheckState_m1761755727_gshared
$wg:_Hashtable_Rehash_m2877670513
KKm:__ZN6il2cpp2vm8Liveness3EndEPv
IEf:__Z35getPxVehicleWheelsSimData_WheelDataPKN5physx22PxVehicleWheelsSimDataEj
zU:__ZN18StreamedBinaryReadILb1EE21TransferSTLStyleArrayI22OffsetPtrArrayTransferIN4math4AxesEEEEvRT_17TransferMetaFlags
nib:__ZN13RenderTexture8SetWidthEi
iBh:_InputField_Insert_m1593238693
ekc:__ZNK28RectTransformPropertyBinding12SetPPtrValueERKN11UnityEngine9Animation10BoundCurveEi
ddd:__ZN11ColorModuleD0Ev
Cjk:__Z69RuntimeInvoker_Boolean_t3825574718_Il2CppObject_DoubleU26_t1208767207PK10MethodInfoPvPS2_
vkf:_UNITY_FT_GlyphLoader_CheckSubGlyphs
iqk:__Z132RuntimeInvoker_Int32_t2071877448_Il2CppObject_Int32_t2071877448_Int32_t2071877448_Il2CppObject_Int32_t2071877448_Int32U26_t455636984PK10MethodInfoPvPS2_
utm:__ZN6il2cpp2vm21ThreadPoolCompartment20SpawnNewWorkerThreadEv
MXf:_Array_InternalArray__ICollection_Add_TisCustomAttributeTypedArgument_t1498197914_m3260005285_gshared
Owl:_Playable_get_state_m2895939980_AdjustorThunk
Qxg:_SyncHashtable_GetObjectData_m3774367030
hp:FUNCTION_TABLE_fiffifi
Yw:__ZN14NavMeshManager13RestoreTileAtEiii
iIh:_Guid_GetHashCode_m1401300871
v9l:_ListPool_1_U3Cs_ListPoolU3Em__0_m1243609651_gshared
Kyf:__ZN5physx15PxVehicleWheels14setToRestStateEv
$Tc:__Z42Register_UnityEngine_GUIStyle_set_fontSizev
usi:__ZL61CallingConventions_t1097349142_CustomAttributesCacheGeneratorP21CustomAttributesCache
_0d:__ZNK5physx9NpFactory11getNbShapesEv
Guh:_FontData__ctor_m3822008992
_hk:__Z140RuntimeInvoker_Boolean_t3825574718_Il2CppObject_Int32_t2071877448_Il2CppObject_SByte_t454417549_Int64U26_t763825331_ExceptionU26_t1467204777PK10MethodInfoPvPS2_
lhm:__ZL23UnresolvedVirtualCall_5P12Il2CppObjectsPK10MethodInfo
yP:__ZN4PPtrI6AvatarE8TransferI19StreamedBinaryWriteILb0EEEEvRT_
IEk:__Z42RuntimeInvoker_ScreenMatchMode_t1916789528PK10MethodInfoPvPS2_
Gha:__ZN9ShaderLab16FastPropertyName4InitEPKc
_gd:__ZN11b2GearJointD0Ev
rna:__Z18PathToAbsolutePathRKNSt3__212basic_stringIcNS_11char_traitsIcEENS_9allocatorIcEEEE
BBm:__ZN15dense_hashtableINSt3__24pairIK10KeyWrapperINS1_IPK12PropertyInfoP11Il2CppClassEEEjEES9_17ReflectionMapHashIS8_EN14dense_hash_mapIS9_jSD_19ReflectionMapEqualsIS8_ENS0_9allocatorISB_EEE9SelectKeyESG_SI_E13clear_deletedER30dense_hashtable_const_iteratorISB_S9_SD_SK_SG_SI_E
qjc:__Z13RegisterClassIN2UI13RectTransformEEvv
NXh:_MSCompatUnicodeTable_ToWidthCompat_m2299599532
tWh:_NumberFormatter_get_IsFloatingSource_m2830957202
ROb:__ZN10VertexData8TransferI17RemapPPtrTransferEEvRT_
rib:__ZN13RenderTexture9SetMipMapEb
G8m:__ZNKSt3__27num_getIwNS_19istreambuf_iteratorIwNS_11char_traitsIwEEEEE6do_getES4_S4_RNS_8ios_baseERjRl
K8m:__ZNKSt3__27num_getIwNS_19istreambuf_iteratorIwNS_11char_traitsIwEEEEE6do_getES4_S4_RNS_8ios_baseERjRm
CNl:_ScrollRect_set_verticalScrollbarSpacing_m2356851539
R3l:_Vector4_op_Multiply_m2598404284
F8m:__ZNKSt3__27num_getIwNS_19istreambuf_iteratorIwNS_11char_traitsIwEEEEE6do_getES4_S4_RNS_8ios_baseERjRb
ADb:__Z18GetDirectorManagerv
O8m:__ZNKSt3__27num_getIwNS_19istreambuf_iteratorIwNS_11char_traitsIwEEEEE6do_getES4_S4_RNS_8ios_baseERjRe
aXh:_OperatingSystem_GetObjectData_m2276196875
Uwb:__ZNK10TagManager26GetTypeInfoVirtualInternalEv
H8m:__ZNKSt3__27num_getIwNS_19istreambuf_iteratorIwNS_11char_traitsIwEEEEE6do_getES4_S4_RNS_8ios_baseERjRx
L8m:__ZNKSt3__27num_getIwNS_19istreambuf_iteratorIwNS_11char_traitsIwEEEEE6do_getES4_S4_RNS_8ios_baseERjRy
wXl:_ResourceRequest_t2560315377_marshal_pinvoke_back
CQi:__ZL92PointerEventData_t1599784723_CustomAttributesCacheGenerator_U3CpointerDragU3Ek__BackingFieldP21CustomAttributesCache
VNc:__Z38Transform_CUSTOM_INTERNAL_get_rotationP12Il2CppObjectP11Quaternionf
At:__ZN7dtCrowd26UpdateTopologyOptimizationEf
eFf:__Z44setPxVehicleWheelsSimData_TireLoadFilterDataPN5physx22PxVehicleWheelsSimDataERKNS_27PxVehicleTireLoadFilterDataE
UFm:__ZNSt3__26vectorIN6il2cpp2vm17TypeNameParseInfoENS_9allocatorIS3_EEE8allocateEj
wnd:__ZN16b2StackAllocator4FreeEPv
cLf:__Z31getPxVehicleDriveDynData_GearUpPKN5physx21PxVehicleDriveDynDataE
vti:__ZL66CriticalFinalizerObject_t1920899984_CustomAttributesCacheGeneratorP21CustomAttributesCache
PLi:__ZL88Physics2D_t2540166467_CustomAttributesCacheGenerator_Physics2D_OverlapCircle_m2103889365P21CustomAttributesCache
pTa:__ZN7ApiGLES19UploadBufferSubDataEjN2gl12BufferTargetEllPKv
lRk:_FOVKick_ChangeCamera_m3707030795
fte:__ZN5physx2Sc5Scene17createClothSolverEv
$fg:_String_System_IConvertible_ToInt32_m1927223638
HSf:_Array_InternalArray__ICollection_Remove_TisContentType_t1028629049_m3085152315_gshared
f9d:__ZNK5physx15PxsParticleData16getMaxParticlesVEv
zoj:_CryptographicException__ctor_m406825529
HAk:__Z62RuntimeInvoker_AnimatorStateInfo_t2577870592_Int32_t2071877448PK10MethodInfoPvPS2_
UFi:__ZL104Application_t354826772_CustomAttributesCacheGenerator_Application_t354826772____loadedLevel_PropertyInfoP21CustomAttributesCache
FQ:__ZN7mecanim12statemachine20StateMachineConstant8TransferI14SafeBinaryReadEEvRT_
hol:_Canvas_set_sortingOrder_m2922819993
CZe:__ZThn116_N5physx7profile8ZoneImplINS_28PxProfileNameProviderForwardEE12removeClientERNS_19PxProfileZoneClientE
OPk:_Tonemapping_UpdateCurve_m1537024032
Dye:__ZN15MBP_PairManager17removeMarkedPairsEPK10MBP_ObjectPN5physx16PxsBroadPhaseMBPERK8BitArrayS8_
bsm:__ZNSt3__26__treeINS_12__value_typeIP11Il2CppClassS3_EENS_19__map_value_compareIS3_S4_NS_4lessIS3_EELb1EEENS_9allocatorIS4_EEE25__emplace_unique_key_argsIS3_JNS_4pairIS3_S3_EEEEENSD_INS_15__tree_iteratorIS4_PNS_11__tree_nodeIS4_PvEEiEEbEERKT_DpOT0_
aig:_ASCIIEncoding__ctor_m4127831672
x1b:__Z19TransferField_ArrayI14SafeBinaryRead27Converter_SimpleNativeClassI8GUIStyleEEvRK23StaticTransferFieldInfoR31RuntimeSerializationCommandInfoRT0_
_Yb:__ZN9TextAsset23VirtualRedirectTransferER19StreamedBinaryWriteILb0EE
mVk:_UTF8Encoding__ctor_m3336862259
x_m:__ZN6il2cpp5utils10MemoryPoolC2Ej
wCk:__Z54RuntimeInvoker_Boolean_t3825574718_HitInfo_t1761367055PK10MethodInfoPvPS2_
Abj:_X509Chain_GetAuthorityKeyIdentifier_m2607407678
t_m:__ZN6il2cpp5utils10MemoryPoolC2Ev
tue:__ZN5physx21PxcUnimplementedSweepERKNS_11PxsCCDShapeES2_PKNS_12PxsRigidBodyES5_RKNS_11PxTransformES8_S8_S8_fRNS_6PxVec3ESA_RNS_10PxcNpCacheERNS_18PxcNpThreadContextEf
x0d:__ZN5physx9NpPhysics33unregisterDeletionListenerObjectsERNS_18PxDeletionListenerEPKPKNS_6PxBaseEj
Z6d:__ZNK5physx2Sc9ClothCore22getAngularInertiaScaleEv
gan:__ZNKSt3__28time_getIcNS_19istreambuf_iteratorIcNS_11char_traitsIcEEEEE13__get_weekdayERiRS4_S4_RjRKNS_5ctypeIcEE
ooh:_RaycastResult_set_gameObject_m1138581891_AdjustorThunk
MDm:__ZN14dense_hash_mapI10KeyWrapperINSt3__24pairIPK12PropertyInfoP11Il2CppClassEEEj17ReflectionMapHashIS8_E19ReflectionMapEqualsIS8_ENS1_9allocatorINS2_IKS9_jEEEEE15set_deleted_keyERSF_
uml:_Bounds_get_extents_m4077324178_AdjustorThunk
Zlk:__Z117RuntimeInvoker_Int32_t2071877448_Il2CppObject_Il2CppObject_Int32_t2071877448_Int32_t2071877448_BooleanU26_t3168250738PK10MethodInfoPvPS2_
Duc:__ZN12InputManager10GetAxisRawERKNSt3__212basic_stringIcNS0_11char_traitsIcEENS0_9allocatorIcEEEE
lT:__ZN19StreamedBinaryWriteILb0EE21TransferSTLStyleArrayI22OffsetPtrArrayTransferIN7mecanim8skeleton19SkeletonMaskElementEEEEvRT_17TransferMetaFlags
fUd:__ZN5physx20NpRigidActorTemplateINS_18PxArticulationLinkEE12setActorFlagENS_11PxActorFlag4EnumEb
bDj:_Mesh_set_uv2_m1074156186
G2f:_Dictionary_2_Do_ICollectionCopyTo_TisKeyValuePair_2_t3716250094_m1740410536_gshared
vRm:__ZN6il2cpp2os10ThreadImplD2Ev
r2h:_RSAManaged_Dispose_m3018788098
shd:__ZN12b2MouseJoint23InitVelocityConstraintsERK12b2SolverData
AYc:__ZN8Gradient8TransferI9JSONWriteEEvRT_
Iei:_Context_get_ReceivedConnectionEnd_m3369356276
CTl:_X509CertificateEnumerator_MoveNext_m1422952050
L5i:_NameObjectCollectionBase_get_Count_m2353593692
kHm:__ZN15dense_hashtableINSt3__24pairIK10KeyWrapperIP11Il2CppClassES4_EES5_N6il2cpp8metadata16SZArrayClassHashEN14dense_hash_mapIS5_S4_SA_NS9_19SZArrayClassCompareENS0_9allocatorIS7_EEE9SelectKeyESC_SE_E9copy_fromERKSH_j
eSi:__ZL73U3COnFinishSubmitU3Ec__Iterator0_t99135383_CustomAttributesCacheGeneratorP21CustomAttributesCache
Cqb:__ZNK12TLSAllocatorI14StackAllocatorE22GetAllocatedMemorySizeEv
HG:__ZN7mecanim6memory16ChainedAllocator8AllocateEjj
SDg:_Convert_ToUInt32_m3394039268
bwc:__Z32GetSceneHierarchyPathDescriptivePK6Object
lOb:__ZNSt3__26vectorI7SubMesh13stl_allocatorIS1_L18MemLabelIdentifier16ELi16EEEC2ERKS5_
X2:__ZNK7WeakPtrI20SoundChannelInstanceE10SharedData9GetRawPtrEv
C_a:__ZN12HandlerChain4NameEv
Tn:FUNCTION_TABLE_fiiiiiifiiiiiif
tTb:__ZNSt3__26vectorI9InputAxisNS_9allocatorIS1_EEE10deallocateEv
SHe:__ZN5physx37setupFinalizeSolverConstraintsCoulombERNS_13PxcNpWorkUnitERKNS_2Gu13ContactBufferERKNS_27PxcCorrelationBufferCoulombERKNS_11PxTransformESB_bPhRKNS_13PxcSolverBodyESF_RKNS_17PxcSolverBodyDataESI_ffjffff
eJh:_Int16_Equals_m3925135434_AdjustorThunk
C_:__ZN12AudioManager8TransferI18StreamedBinaryReadILb1EEEEvRT_
Vpf:__Z44Register_UnityEngine_CanvasRenderer_get_cullv
L7j:_Enumerator_Dispose_m2532362830_AdjustorThunk
cqi:__ZL60IHashCodeProvider_t1980576455_CustomAttributesCacheGeneratorP21CustomAttributesCache
RPg:_Enumerator_VerifyState_m1677639504_AdjustorThunk
Tob:__Z29StdTemplateConversionFunctionIbbEbPvR14SafeBinaryRead
uci:_CipherSuiteCollection_get_Item_m280627160
DAg:_DateTime__ParseString_m2623687350
mhj:_SerializationInfoEnumerator_MoveNext_m1876990879
GYk:_TimeSpan_Duration_m4205681645
kmb:__ZN14UnityWebStream24UpdateAllUnityWebStreamsEv
fYj:_LightShafts_SetKeyword_m1072300966
S4g:_Collection_1_System_Collections_IList_get_IsReadOnly_m2329986891_gshared
wQ:__ZN15SerializeTraitsINSt3__24pairIj8UnityStrEEE8TransferI14SafeBinaryReadEEvRS3_RT_
Goi:__ZL60ObsoleteAttribute_t3878847927_CustomAttributesCacheGeneratorP21CustomAttributesCache
Ffj:_CostDelegate_BeginInvoke_m1628968398
sZf:_Array_InternalArray__ICollection_CopyTo_TisRaycastHit2D_t4063908774_m3837098618_gshared
Exe:__ZN5physx31ComputeCreatedDeletedPairsListsEPKjS1_jRPNS_17PxcBroadPhasePairERjS5_S4_S5_S5_RNS_14SapPairManagerE
iFa:__ZN18LoadSceneOperation21MustCompleteNextFrameEv
j1:__ZNK12AudioManager16GetAudioListenerEv
bUj:_MonoField_get_FieldType_m598011426
awc:__ZNSt3__2plIcNS_11char_traitsIcEE13stl_allocatorIcL18MemLabelIdentifier1ELi16EEEENS_12basic_stringIT_T0_T1_EERKSA_SC_
R4g:_Collection_1_System_Collections_IList_get_IsFixedSize_m1624702704_gshared
Asb:__ZN18AssetBundleManager30CollectPreloadDataDependenciesER4PPtrI11AssetBundleEbR13dynamic_arrayIiLj4EE
hGi:__ZL48Camera_t189460977_CustomAttributesCacheGeneratorP21CustomAttributesCache
YJk:__Z73RuntimeInvoker_Void_t1841601450_Int32_t2071877448_RaycastResult_t21186376PK10MethodInfoPvPS2_
WIm:__ZNSt3__212basic_stringIcNS_11char_traitsIcEENS_9allocatorIcEEE6__initINS_11__wrap_iterIPcEEEENS_9enable_ifIXsr21__is_forward_iteratorIT_EE5valueEvE4typeESB_SB_
ujd:__ZNK11Rigidbody2D20GetAttachedCollidersER13dynamic_arrayIP10Collider2DLj4EE
GCe:__ZN5physx2Gu16pcmContactBoxBoxERKNS0_13GeometryUnionES3_RKNS_11PxTransformES6_RKfRNS0_5CacheERNS0_13ContactBufferE
rAh:_InputField_OnDisable_m1865339380
mxm:_il2cpp_monitor_exit
o0k:_UInt32_System_IConvertible_ToType_m747769316
kI:__ZN7mecanim9animation12GetHumanPoseERKNS0_18ClipMuscleConstantEPKNS0_10ValueDeltaERNS_5human9HumanPoseE
qBm:__ZN6il2cpp2vm10Reflection17GetPropertyObjectEP11Il2CppClassPK12PropertyInfo
rrf:__ZN11UnityEngine9Analytics15UserCustomEvent12CustomParams6InsertEPKcRNS1_11CustomValueE
Q3f:_Array_InternalArray__get_Item_TisInt16_t4041245914_m2533263979_gshared
gpn:_glDeleteVertexArrays__wrapper
r6b:__Z29Transfer_Blittable_ArrayFieldI19StreamedBinaryWriteILb0EEjEvRT_R9ArrayInfoRK23StaticTransferFieldInfo
Jea:__Z13GetFileSystemv
mJa:__ZNK5Unity4Type21FindAllDerivedClassesER13dynamic_arrayIPKS0_Lj4EENS0_17TypeFilterOptionsE
WQb:__ZN14SafeBinaryRead8TransferIfEEvRT_PKc17TransferMetaFlags
I6b:__ZL12InvokeMethodI18StreamedBinaryReadILb0EEEvRK29SerializationCommandArgumentsR31RuntimeSerializationCommandInfo
LGh:_DaylightTime_get_Delta_m2316831491
Fmd:__ZNSt3__27__sort5IR24RayHitsByDepthComparitorP12RaycastHit2DEEjT0_S5_S5_S5_S5_T_
CRf:_Array_InternalArray__ICollection_Contains_TisUILineInfo_t3621277874_m1175659630_gshared
xFj:_Physics_INTERNAL_get_gravity_m3802008392
WXk:_WaitHandle_WaitOne_m370363697
_Qi:__ZL114PointerEventData_t1599784723_CustomAttributesCacheGenerator_PointerEventData_set_pointerCurrentRaycast_m2431897513P21CustomAttributesCache
Gdj:_FactoryCache_Lookup_m1681894361
E6m:__ZNSt3__215basic_streambufIcNS_11char_traitsIcEEED2Ev
bGg:_DateTime_Subtract_m698282245_AdjustorThunk
fgl:_DefaultComparer__ctor_m2470932885_gshared
_Oe:__ZN5physx2Gu5RTree15exportExtraDataERNS_22PxSerializationContextE
owa:__Z23scripting_gchandle_freej
mcn:__ZNSt3__211__money_putIcE13__gather_infoEbbRKNS_6localeERNS_10money_base7patternERcS8_RNS_12basic_stringIcNS_11char_traitsIcEENS_9allocatorIcEEEESF_SF_Ri
xac:__Z29Transfer_Blittable_ArrayFieldI18StreamedBinaryReadILb1EE5RectTIfEEvRT_R9ArrayInfoRK23StaticTransferFieldInfo
$Bi:__ZL79Convert_t2607082565_CustomAttributesCacheGenerator_Convert_ToUInt64_m1896191125P21CustomAttributesCache
u7f:_RIPEMD160Managed_Initialize_m3365407578
Xrc:__Z29GetTextureSizeAllowedMultiple13TextureFormat
scn:__ZNSt3__211__money_putIwE13__gather_infoEbbRKNS_6localeERNS_10money_base7patternERwS8_RNS_12basic_stringIcNS_11char_traitsIcEENS_9allocatorIcEEEERNS9_IwNSA_IwEENSC_IwEEEESJ_Ri
j7i:_IPAddress_HostToNetworkOrder_m1092199707
ose:__ZNK5physx2Sq10AABBPruner7overlapERKNS0_9ShapeDataERNS0_14PrunerCallbackE
rYl:_Rigidbody2D_AddForce_m3200488178
qTf:_SetPropertyUtility_SetStruct_TisSpriteState_t1353336012_m2898060836_gshared
mAj:_Logger__ctor_m3834134587
ecg:_SecurityAttribute__ctor_m3425755778
Hpc:__ZN21IntermediateRenderers3AddEP20IntermediateRenderer
mCb:__ZN14RenderSettings23VirtualRedirectTransferER18StreamedBinaryReadILb1EE
zhe:__ZN5physx6shdfnd5ArrayIPvNS0_19ReflectionAllocatorINS_2Gu30LargePersistentContactManifoldEEEE4copyINS0_15InlineAllocatorILj256ES6_EEEEvRKNS1_IS2_T_EE
fGf:__ZN5physx3Pvd17PvdPropertyFilterINS_2Sn17RepXVisitorWriterINS_22PxVehicleWheelsSimDataEEEE27handleExtendedIndexPropertyILj618ES4_NS_6PxVec3EKjNS_18PxUnknownClassInfoEEEvjRKNS_29PxExtendedIndexedPropertyInfoIXT_ET0_T2_T1_EERKT3_
N5l:_InvokableCall_1_add_Delegate_m3068046591_gshared
ah:_glCheckFramebufferStatus
CMi:__ZL55TextGenerator_t647235000_CustomAttributesCacheGeneratorP21CustomAttributesCache
XUf:_Array_compare_TisInt32_t2071877448_m840310202_gshared
tpk:__Z57RuntimeInvoker_Il2CppObject_Il2CppObject_Byte_t3683104436PK10MethodInfoPvPS2_
lfl:_InternalEnumerator_1_System_Collections_IEnumerator_get_Current_m442726479_AdjustorThunk
cpj:_DESTransform_ECB_m2629024873
$cl:_InternalEnumerator_1_System_Collections_IEnumerator_get_Current_m790514740_AdjustorThunk
qKe:__ZN5physx2Cm12DelegateTaskINS_2Sc5SceneEXadL_ZNS3_19updateCCDSinglePassEPNS_10PxBaseTaskEEEE11runInternalEv
mEd:__ZN5physx6string9sprintf_sEPcjPKcz
TD:__ZNSt3__26vectorI24CompressedAnimationCurve13stl_allocatorIS1_L18MemLabelIdentifier25ELi16EEE6resizeEj
URe:__ZThn8_N5physx19TriangleMeshBuilderD1Ev
CPc:__Z19ConcatWithSeparatorRKNSt3__212basic_stringIcNS_11char_traitsIcEE13stl_allocatorIcL18MemLabelIdentifier1ELi16EEEES8_S8_
p8h:__ZN16VirtFuncInvoker2IbP21BigInteger_t925946153P12Il2CppObjectE6InvokeEjPvS1_S3_
qxd:__ZN5physx2Gu16intersectRayAABBERKNS_6PxVec3ES3_S3_S3_RfS4_
YKb:__ZN9Transform23VirtualRedirectTransferER17RemapPPtrTransfer
LHk:__Z87RuntimeInvoker_Int32_t2071877448_Playable_t3667545548_Playable_t3667545548_Il2CppObjectPK10MethodInfoPvPS2_
GYg:_List_1_AddCollection_m2221063383_gshared
BH:__ZN21AnimationClipPlayable7SetTimeEd
byg:_SyncHashtable_Remove_m694556812
Z6f:_RijndaelManaged_CreateDecryptor_m3253408643
Oll:_AudioSource_get_pitch_m4220572439
$Vf:_Array_InternalArray__IndexOf_TisByte_t3683104436_m3605266236_gshared
pJf:__ZN5physx2Sn21RepXVisitorReaderBaseINS_19PxVehicleEngineDataEE12readPropertyIfEEbRT_
nbh:_Collection_1_System_Collections_IList_Insert_m435904526_gshared
Pcl:_InternalEnumerator_1_System_Collections_IEnumerator_get_Current_m1810411564_gshared
Lvj:_GUISkin_get_horizontalScrollbarThumb_m4062590908
FLl:_RaycastAllCallback_Invoke_m981876639
b8m:__ZNKSt3__26locale5__imp9use_facetEl
oeg:_UnicodeEncoding__ctor_m72484327
_He:__ZN5physx30setupFinalizeSolverConstraintsERNS_13PxcNpWorkUnitERKNS_2Gu13ContactBufferERKNS_20PxcCorrelationBufferERKNS_11PxTransformESB_bPhRKNS_13PxcSolverBodyESF_RKNS_17PxcSolverBodyDataESI_ffffff
bni:__ZL74Il2CppArray_CustomAttributesCacheGenerator_Array_GetUpperBound_m1352329707P21CustomAttributesCache
_oa:__ZN22BuiltinResourceManager16StaticInitializeEPv
Sml:_Camera_get_hdr_m3267784575
nG:__ZN7mecanim4hand8HandPose8TransferI19StreamedBinaryWriteILb0EEEEvRT_
lZd:__ZN5physx7NpScene17releaseBatchQueryEPNS_12PxBatchQueryE
LEm:__ZN6il2cpp2gc9AllocatorIP12Il2CppThreadE10deallocateEPvj
ufh:_ReadOnlyCollection_1_System_Collections_IList_Contains_m1838328308_gshared
Gy:__ZN12VertexWelderILi64EE4PushERK8Vector3f
Xee:__ZN5physx20NpRigidActorTemplateINS_13PxRigidStaticEE11attachShapeERNS_7PxShapeE
W7l:_UnityEvent_1_GetDelegate_m2720691419_gshared
rHe:__ZN5physx26solveVBlockDefaultFrictionEPNS_13PxsSolverCoreEfjjPNS_13PxcSolverBodyEPNS_17PxcSolverBodyDataEjjPNS_25PxcArticulationSolverDescEjPNS_23PxcSolverConstraintDescEjS9_jRNS_6shdfnd5ArrayINS_24PxsConstraintBatchHeaderENSA_19ReflectionAllocatorISC_EEEESG_PNS_2Cm13SpatialVectorEPNS_25PxcThresholdStreamElementEjRj
aSm:__ZN15dense_hashtableINSt3__24pairIK10KeyWrapperIP14Il2CppIUnknownEjEES5_N6il2cpp5utils11PointerHashIS3_EEN14dense_hash_mapIS5_jSB_NS0_8equal_toIS5_EENS0_9allocatorIS7_EEE9SelectKeyESE_SG_E16reset_thresholdsEv
rHl:_Alternation_get_Alternatives_m1445219249
rei:_ClientSessionInfo_SetContext_m2649357891
ppb:__ZNSt3__26__treeINS_12__value_typeINS_12basic_stringIcNS_11char_traitsIcEE13stl_allocatorIcL18MemLabelIdentifier54ELi16EEEEPN16MemoryFileSystem4NodeEEENS_19__map_value_compareIS8_SC_NS_4lessIS8_EELb1EEES5_ISC_LS6_54ELi16EEE12__find_equalIS8_EERPNS_16__tree_node_baseIPvEESO_RKT_
BXd:__ZN5physx15NpActorTemplateINS_18PxArticulationLinkEE17resolveReferencesERNS_24PxDeserializationContextE
MXj:_LightShafts_ReleaseShadowmap_m904625499
pC:__ZN14AnimationEvent8TransferI14SafeBinaryReadEEvRT_
qam:_CarAudio_SetUpEngineAudioSource_m1501628256
vlh:_RaycasterManager_GetRaycasters_m1154876874
Nji:_SslStreamBase_InternalReadCallback_m2524917586
ioa:__ZN8Remapper6RemoveEi
dVg:_List_1_CheckCollection_m2608305187_gshared
Voe:__ZN5physx19NpRigidBodyTemplateINS_18PxArticulationLinkEE9visualizeERNS_2Cm12RenderOutputEPNS_7NpSceneE
zwe:__ZN5physx11writeBack1DERKNS_23PxcSolverConstraintDescERNS_16PxcSolverContextERNS_17PxcSolverBodyDataES6_
B_k:_Type_get_ContainsGenericParameters_m505913180
a9e:__ZL36CleanupTextRenderingScriptingClassesv
Ssd:__ZThn4_N16RayRTreeCallbackILi0ELb0EED0Ev
dib:__ZN15ReflectionProbe17UseRendererResultEP13ProbeRenderer
xig:_ASCIIEncoding_GetBytes_m819071568
dIc:__Z34Mesh_CUSTOM_SetArrayForChannelImplP12Il2CppObject30InternalScriptingShaderChannel34InternalScriptingVertexChannelTypeiP11Il2CppArrayi
NNh:_MonoIO_DeleteFile_m3273821223
gwh:__ZN16VirtFuncInvoker0I17Color_t2020392075E6InvokeEjPv
xZh:_BigInteger_GenerateRandom_m2507308768
TEg:_DateTime_System_IConvertible_ToDouble_m1431748426_AdjustorThunk
Skj:__ZN16VirtFuncInvoker0IdE6InvokeEjPv
XJk:__Z76RuntimeInvoker_Void_t1841601450_Int32_t2071877448_ContactPoint2D_t3659330976PK10MethodInfoPvPS2_
iRf:_Array_InternalArray__ICollection_Contains_TisUInt16_t986882611_m510319131_gshared
Nne:__ZNK5physx2Sc5Scene20getNbParticleSystemsEv
rIg:_Decimal_ToString_m541380585
tej:_RepeatContext_get_Previous_m808449037
Qqk:__Z60RuntimeInvoker_DateTime_t693205669_Il2CppObject_Il2CppObjectPK10MethodInfoPvPS2_
wSj:_MemberFilter__ctor_m1775909550
uwm:_il2cpp_class_is_valuetype
oHc:__Z37Quaternion_CUSTOM_INTERNAL_CALL_SlerpRK11QuaternionfS1_fRS_
ure:__ZN5physx2Gu17GetGeomSweepFuncsEv
Ntl:_InvokableCall_Find_m932898921
Zpf:__Z70RectTransformUtility_CUSTOM_INTERNAL_CALL_RectangleContainsScreenPointP12Il2CppObjectRK13Vector2fIcallS0_
xLg:_Enum_ToObject_m2601523252
vin:dynCall_viiffiii
lji:_InternalAsyncResult_get_FromWrite_m2893408424
xmm:__ZN6il2cpp2vm5Class15GetElementClassEP11Il2CppClass
RCh:_U3CDelayedSetDirtyU3Ec__Iterator0_System_Collections_IEnumerator_get_Current_m851854792
PIg:_Delegate_CreateDelegate_m1706525923
V1i:__ZL91AeroplaneController_t967620215_CustomAttributesCacheGenerator_U3CAltitudeU3Ek__BackingFieldP21CustomAttributesCache
aen:__ZNKSt3__25ctypeIwE10do_tolowerEPwPKw
C8d:__ZN5physx22NpParticleBaseTemplateINS_15PxParticleFluidENS_15NpParticleFluidEE23setParticleReadDataFlagENS_22PxParticleReadDataFlag4EnumEb
Tqf:__ZN14UnityAnalytics25UnregisterGlobalCallbacksEv
CDk:__Z42RuntimeInvoker_BlockingObjects_t2548930813PK10MethodInfoPvPS2_
Dt:__ZNK7dtCrowd35InsertActiveAgentsIntoProximityGridEP15dtProximityGridii
pAb:__ZN16GraphicsSettings8TransferI17RemapPPtrTransferEEvRT_
e8h:_BigInteger_op_LessThanOrEqual_m3528380540
ZQh:_StreamReader__ctor_m2654332332
xnf:__ZN2UI6Canvas13UpdateBatchesEb
Wla:__Z28scripting_method_is_instance21ScriptingMethodIl2Cpp
Xcc:__ZNSt3__26vectorIN9ShaderLab20SerializedSubProgram14ConstantBufferENS_9allocatorIS3_EEE18__construct_at_endINS_11__wrap_iterIPS3_EEEENS_9enable_ifIXsr21__is_forward_iteratorIT_EE5valueEvE4typeESC_SC_j
TQi:__ZL105PointerEventData_t1599784723_CustomAttributesCacheGenerator_PointerEventData_set_pointerEnter_m1440587006P21CustomAttributesCache
cYi:__ZL65AutoCam_t1268445464_CustomAttributesCacheGenerator_followVelocityP21CustomAttributesCache
hTg:_List_1_CheckCollection_m3968030679_gshared
Bfm:_Predicate_1_BeginInvoke_m3556950370_gshared
e2d:__ZN5physx2Gu5Debug9visualizeERKNS_13PxBoxGeometryERNS_2Cm12RenderOutputERKNS5_8Matrix34ERKNS_9PxBounds3Eyfj
Ykg:_StringBuilder_ToString_m617673931
lLa:__ZNK13GfxDeviceGLES12GetWireframeEv
gsm:__ZN15dense_hashtableINSt3__24pairIK10KeyWrapperIPK19Il2CppGenericMethodEPK26Il2CppGenericMethodIndicesEES6_N6il2cpp8metadata23Il2CppGenericMethodHashEN14dense_hash_mapIS6_SA_SE_NSD_26Il2CppGenericMethodCompareENS0_9allocatorISB_EEE9SelectKeyESG_SI_E4findERS7_
nrd:__ZN5physx6shdfnd5ArrayIPKvNS0_19ReflectionAllocatorIS3_EEE6resizeEjRKS3_
NEc:__Z47Graphics_CUSTOM_Internal_SetRandomWriteTargetRTiP12Il2CppObject
qUk:_AeroplaneUserControl2Axis_AdjustInputForMobileControls_m3781638982
BMa:__ZN9GfxDevice18AllocRenderSurfaceEb
Hyf:__ZN5physx23PxVehicleWheels4SimData11setTireDataEjRKNS_17PxVehicleTireDataE
eIe:__ZN5physx31setupFinalizeSolverConstraints4EPNS_21PxcSolverContact4DescERNS_18PxcNpThreadContextEPhffRKNS_6shdfnd3aos5Vec4VES9_S9_S9_
Nje:__ZN5physx7NpScene5flushEb
HHl:_AnchorInfo_get_IsComplete_m1247624133
Uth:_Dropdown_Show_m324374589
Fja:__ZL27CleanupCoreScriptingClassesv
EGi:__ZL85Component_t3819376471_CustomAttributesCacheGenerator_Component_SendMessage_m913946877P21CustomAttributesCache
Zbl:_InternalEnumerator_1_get_Current_m4290564662_AdjustorThunk
dzf:__ZN5physx22PxVehicleWheelsSimData11enableWheelEj
Wrd:__ZN5physx2Gu13GeometryUnion3setERKNS_10PxGeometryE
fCd:__ZThn8_N5physx3Cct17CapsuleController15getPxControllerEv
Xcm:_GenericComparer_1__ctor_m3575096182_gshared
Jnh:_RaycastResult_get_isValid_m2482925612
jyf:__ZN5physx22PxVehicleWheelsSimData12disableWheelEj
FHc:__Z26AnimationCurve_CUSTOM_InitP12Il2CppObjectP11Il2CppArray
pfd:__ZNK14b2PolygonShape5CloneEP16b2BlockAllocator
RCm:__ZN6il2cpp2vm10Reflection7IsEventEP12Il2CppObject
Trm:__ZNSt3__26__treeINS_12__value_typeIPFvvEPK10MethodInfoEENS_19__map_value_compareIS3_S7_NS_4lessIS3_EELb1EEENS_9allocatorIS7_EEE16__insert_node_atEPNS_16__tree_node_baseIPvEERSI_SI_
Lka:__ZN17PersistentManager26GetStreamNameSpaceInternalEi
dAm:__ZN6il2cpp2gc19AppendOnlyGCHashMapINSt3__24pairIPK10MethodInfoP11Il2CppClassEEP22Il2CppReflectionMethod17ReflectionMapHashIS9_E19ReflectionMapEqualsIS9_EE11TryGetValueERKS9_PSB_
SY:__ZN4FMOD6System11createSoundEPKcjP22FMOD_CREATESOUNDEXINFOPPNS_5SoundE
zfh:_ReadOnlyCollection_1_System_Collections_ICollection_get_IsSynchronized_m4056631538_gshared
Lp:FUNCTION_TABLE_iiifiiii
S7h:__ZN16VirtFuncInvoker1IP21BigInteger_t925946153iE6InvokeEjPvi
wBk:__Z66RuntimeInvoker_Void_t1841601450_Int32_t2071877448_Rect_t3681755626PK10MethodInfoPvPS2_
SDj:_Object_Destroy_m4145850038
era:__ZNSt3__26__treeINS_12__value_typeINS_12basic_stringIcNS_11char_traitsIcEENS_9allocatorIcEEEEiEENS_19__map_value_compareIS7_S8_NS_4lessIS7_EELb1EEENS5_IS8_EEE7destroyEPNS_11__tree_nodeIS8_PvEE
uGm:__ZN6il2cpp2vm4Type14IsSystemDBNullEPK10Il2CppType
Oxc:__ZN9Scripting28CreateEngineScriptableObjectEP12Il2CppObject
WZe:__ZThn128_N5physx7profile8ZoneImplINS_28PxProfileNameProviderForwardEED1Ev
ria:__ZN9ShaderLab19CommonPropertyNames13StaticCleanupEPv
yXg:_List_1_System_Collections_IList_Remove_m3137919634_gshared
KNl:_ScrollRect_UpdateBounds_m3266596336
Kse:__ZN5physx2Sq17AABBTreeUpdateMap10invalidateEjjRNS0_8AABBTreeE
b5a:_unity_z_zcfree
M2e:__ZN9Rigidbody7PRODUCEE18MemLabelIdentifier18ObjectCreationMode
tHe:__ZN5physx28solveParallelDefaultFrictionERNS_18PxsDynamicsContextEjjPNS_13PxcSolverBodyEPNS_17PxcSolverBodyDataEjjPNS_25PxcArticulationSolverDescEjPNS_23PxcSolverConstraintDescEjS9_jPiSA_SA_SA_SA_SA_PNS_25PxcThresholdStreamElementEjSA_PNS_2Cm13SpatialVectorEPKPNS_11PxsBodyCoreERNSD_10BitMapBaseINS_6shdfnd9AllocatorEEEPKPNS_15PxsArticulationEjPViRNSL_5ArrayINS_24PxsConstraintBatchHeaderENSL_19ReflectionAllocatorISW_EEEES10_RNSV_IjNSX_IjEEEES13_PPNS_12PxsRigidBodyEj
e1i:__ZL117WaypointProgressTracker_t2749171610_CustomAttributesCacheGenerator_WaypointProgressTracker_get_speedPoint_m1454485316P21CustomAttributesCache
osc:__ZN4Mesh5SetUvEiPKfjj
JFa:__ZN7Texture13SetAnisoLimitENS_20AnisotropicFilteringE
ZFa:__ZN28LightProbeProxyVolumeManager25UpdateSHCoeffsTextureDataER21LightProbeProxyVolume
e$a:__Z18CreateDecompressor15CompressionType18MemLabelIdentifier
o5:__ZN11AudioModule16SetListenerPauseEb
Vi:_emscripten_glCompressedTexSubImage2D
HUa:__ZN13GfxDeviceGLES22MemoryBarrierImmediateEyN2gl17MemoryBarrierTypeE
Qml:_Camera_set_renderingPath_m3568603828
yHf:__ZN5physx18RepXPropertyFilterINS_2Sn17RepXVisitorReaderINS_23PxVehicleDriveSimData4WEEEEclILj664ENS_21PxVehicleDriveSimDataERKNS_18PxVehicleGearsDataES8_EEvRKNS_14PxPropertyInfoIXT_ET0_T1_T2_EEj
Azd:__ZN5physx6shdfnd5ArrayIjNS0_19ReflectionAllocatorIjEEE8recreateEj
$Km:__ZN6il2cpp6icalls8mscorlib6System4Type18internal_from_nameEP12Il2CppStringbb
gDa:__ZN6prcoreL26RemapGenericFloatToIntegerI18TexFormatARGBFloat17TexFormatARGB8888EEvPKNS_9InnerInfoE
nVm:__ZN6il2cpp6icalls8mscorlib6System10Reflection9MonoField16GetValueInternalEP21Il2CppReflectionFieldP12Il2CppObject
sBf:__ZNK5physx26PxSerializerDefaultAdapterINS_16PxVehicleDrive4WEE15exportExtraDataERNS_6PxBaseERNS_22PxSerializationContextE
uic:__ZN6Object27GetOffsetOfInstanceIdMemberEv
Cif:_cff_ps_has_glyph_names
h6l:_InvokableCall_1__ctor_m2837611051_gshared
ZRe:__ZN5physx15writeWordBufferEPKtjbRNS_14PxOutputStreamE
wek:_EqualityComparer_1__ctor_m1389939323_gshared
kzf:__ZN13WheelCollider8TransferI18StreamedBinaryReadILb1EEEEvRT_
x_i:__ZL56ScreenOverlay_t3784827672_CustomAttributesCacheGeneratorP21CustomAttributesCache
$mi:__ZL81Il2CppArray_CustomAttributesCacheGenerator_Array_GetValue_m3550694941____indices0P21CustomAttributesCache
Zgh:_ReadOnlyCollection_1_System_Collections_Generic_ICollectionU3CTU3E_get_IsReadOnly_m2873538493_gshared
rFl:_PatternCompiler_EmitPosition_m3013268572
cdj:_X509SubjectKeyIdentifierExtension__ctor_m1109455121
tMk:__Z70RuntimeInvoker_Boolean_t3825574718_Int16_t4041245914_Int16_t4041245914PK10MethodInfoPvPS2_
n7c:__ZN10SizeModule8TransferI17RemapPPtrTransferEEvRT_
C9g:_Collection_1_SetItem_m2707773254_gshared
Zhm:__ZL24UnresolvedVirtualCall_45P12Il2CppObject19DateTime_t693205669PK10MethodInfo
owh:_Graphic_CreateColorFromAlpha_m2614574534
Blg:_UnicodeEncoding_GetHashCode_m2443440683
Ilk:__Z49RuntimeInvoker_Byte_t3683104436_Int32_t2071877448PK10MethodInfoPvPS2_
lUc:__Z44Register_UnityEngine_GUIStyle_SetDefaultFontv
vPj:_GenericTypeParameterBuilder_GetPropertyImpl_m3566422383
sRm:__GLOBAL__sub_I_ThreadImpl_cpp
R9b:__Z18Transfer_BlittableI18StreamedBinaryReadILb1EELb1EiEvRK29SerializationCommandArgumentsR31RuntimeSerializationCommandInfo
uN:__ZN9BlobWrite8TransferI22OffsetPtrArrayTransferIKN4math7_float3EEEEvRT_PKc17TransferMetaFlags
Vag:_TripleDES_IsWeakKey_m483013953
R7j:_Enumerator__ctor_m3819430617_AdjustorThunk
XKd:__ZN5physx2Sc7BodySim37checkSleepReadinessBesidesWakeCounterEv
P9b:__Z18Transfer_BlittableI18StreamedBinaryReadILb1EELb1EsEvRK29SerializationCommandArgumentsR31RuntimeSerializationCommandInfo
hCm:__ZN15dense_hashtableINSt3__24pairIK10KeyWrapperINS1_IPK9EventInfoP11Il2CppClassEEEjEES9_17ReflectionMapHashIS8_EN14dense_hash_mapIS9_jSD_19ReflectionMapEqualsIS8_ENS0_9allocatorISB_EEE9SelectKeyESG_SI_E13clear_deletedER30dense_hashtable_const_iteratorISB_S9_SD_SK_SG_SI_E
PK:__ZN26AnimatorControllerPlayable17IsMultithreadableEv
uyf:__ZN5physx22PxVehicleWheelsSimData21setTireLoadFilterDataERKNS_27PxVehicleTireLoadFilterDataE
oEg:__ZN16VirtFuncInvoker0IP27NumberFormatInfo_t104580544E6InvokeEjPv
gfg:_Single_System_IConvertible_ToSByte_m3757385387
cHk:__Z51RuntimeInvoker_Boolean_t3825574718_Slot_t2022531261PK10MethodInfoPvPS2_
ROh:_StreamAsyncResult_SetComplete_m2141125667
OFa:__ZL21SetAnisoLimitEnumImplN7Texture20AnisotropicFilteringEb
Msf:__ZN22BaseUnityConnectClient17OnEnterStateReadyEv
Kbe:__ZNK5physx22NpParticleBaseTemplateINS_16PxParticleSystemENS_16NpParticleSystemEE15getMaxParticlesEv
BYd:__ZN5physx2Sc16ArticulationCore14setWakeCounterEf
Xge:__ZN5physx2Sc10NPhaseCore24createTriggerInteractionERNS0_8ShapeSimES3_NS_7PxFlagsINS_10PxPairFlag4EnumEtEE
$Vc:__ZN8JSONRead18TransferStringDataI8UnityStrEEvRT_
T0a:__ZN15dense_hashtableINSt3__24pairIKNS0_12basic_stringIcNS0_11char_traitsIcEE13stl_allocatorIcL18MemLabelIdentifier54ELi16EEEEP20ArchiveStorageReaderEES8_11djb2_hash_tIS8_EN14dense_hash_mapIS8_SB_SE_NS0_8equal_toIS8_EES5_ISC_LS6_54ELi16EEE9SelectKeyESH_SI_E13set_empty_keyERKSC_
Xbm:_Water_GetWaterMode_m2039179587
tbn:__ZNKSt3__210moneypunctIcLb1EE14do_frac_digitsEv
dsd:__ZN5physx2Gu9ContainerD2Ev
Wzj:_Keyframe_get_tangentMode_m1869200796_AdjustorThunk
iGc:__Z29Input_CUSTOM_GetMouseButtonUpi
Vtd:__ZN5physx2Gu12selectNormalEhff
Fvm:__ZN6il2cpp6icalls8mscorlib6System8MonoType16InternalGetEventEP20Il2CppReflectionTypeP12Il2CppStringi
_Gj:_Quaternion_INTERNAL_CALL_Internal_ToEulerRad_m1077217777
s0k:_UInt32_System_IConvertible_ToUInt32_m1257480358_AdjustorThunk
TDg:_Convert_ToUInt32_m3085255294
lcf:_UNITY_tt_face_load_maxp
uGc:__Z46Input_CUSTOM_INTERNAL_set_compositionCursorPosRK13Vector2fIcall
bJ:__ZN7mecanim5human12FullBodyMaskEv
kae:__ZN5physx3Scb14ParticleSystem16releaseParticlesEjRKNS_16PxStrideIteratorIKjEE
Tzi:__ZL98Activator_t1850728717_CustomAttributesCacheGenerator_Activator_CreateInstance_m1465989661____args1P21CustomAttributesCache
_s:__ZN7dtCrowd5purgeEv
Oha:__ZN19ShaderPropertySheet11ComputeHashEv
wAj:__ZN23InterfaceActionInvoker4IiP18Object_t1021602117P8String_tP24ObjectU5BU5D_t3614634134E6InvokeEjP11Il2CppClassPviS1_S3_S5_
Xme:__ZN5physx2Sc5Scene21processLostTouchPairsEv
lgd:__ZN12b2EPCollider24ComputePolygonSeparationEv
sv:__ZN4PPtrI6ObjectE8TransferI18StreamedBinaryReadILb1EEEEvRT_
KLk:__Z48RuntimeInvoker_ParticleCollisionEvent_t248228720PK10MethodInfoPvPS2_
tsh:_ColorTween_get_tweenMode_m2919867230_AdjustorThunk
Pj:_llvm_fabs_f32
erh:_CanvasScaler_HandleScaleWithScreenSize_m80056230
sHi:__ZL89GameObject_t1756533147_CustomAttributesCacheGenerator_GameObject_AddComponent_m3757565614P21CustomAttributesCache
Oum:__ZNK6il2cpp5utils10functional6FilterINSt3__212basic_stringIcNS3_11char_traitsIcEENS3_9allocatorIcEEEENS0_11StringUtils21CaseSensitiveComparerEEclIPKcEEbRKT_
AC:__ZN7mecanim9animation18ClipMuscleConstant8TransferI14SafeBinaryReadEEvRT_
IPj:_GenericTypeParameterBuilder_get_AssemblyQualifiedName_m902593295
mBe:__ZN5physx22PxcContactConvexConvexERKNS_2Gu13GeometryUnionES3_RKNS_11PxTransformES6_RKfRNS_10PxcNpCacheERNS0_13ContactBufferE
WUk:_UTF7Encoding_InternalGetBytes_m2772055844
ggk:_EqualityComparer_1__ctor_m831468288_gshared
ltd:__ZNK5physx2Gu11ConvexHullV12HillClimbingERKNS_6shdfnd3aos5Vec3VE
i_b:__ZL29CanTransferTypeAsNestedObjectI18TransferField_InfoEbRKT_
Qge:__ZNK5physx2Sc17ParticleSystemSim7getCoreEv
ZXh:_SimpleCollator__cctor_m2693747668
kIg:_Decimal_CompareTo_m2454501434_AdjustorThunk
_ka:__ZN14SafeBinaryReadD2Ev
$_k:_UInt16_System_IConvertible_ToChar_m4055364664
_9d:__ZN5physx2Sc18ParticleSystemCore10setDampingEf
ijc:__Z13RegisterClassI7TextureEvv
LIl:_ExpressionCollection_OnValidate_m1703610065
cwl:_Playable_INTERNAL_CALL_GetPlayStateInternal_m3560305748
CH:__ZNK21AnimationClipPlayable7GetTimeEv
cJb:__ZN8Gradient8TransferI18StreamedBinaryReadILb1EEEEvRT_
p7j:_Enumerator_Dispose_m2369319718_AdjustorThunk
Vu:__ZNK14dtNavMeshQuery13getPolyHeightEyPKfPf
vBi:__ZL79Convert_t2607082565_CustomAttributesCacheGenerator_Convert_ToUInt16_m3991499696P21CustomAttributesCache
kji:_InternalAsyncResult_get_ProceedAfterHandshake_m552962842
oLl:_RectMask2D_OnCanvasHierarchyChanged_m2610677147
HHd:__ZN5physx2Sc10NPhaseCore16deleteFilterPairEPNS0_10FilterPairE
XTc:__Z45Register_UnityEngine_GUIStyle_SetFontInternalv
nld:__ZN19CollisionListener2DD0Ev
LOh:__ZN16VirtFuncInvoker5IP12Il2CppObjectP22ByteU5BU5D_t3397334013iiP24AsyncCallback_t163412349S1_E6InvokeEjPvS3_iiS5_S1_
f2g:_Enumerator_Dispose_m1520016780_AdjustorThunk
eub:__ZN15dense_hashtableINSt3__24pairIKNS0_12basic_stringIcNS0_11char_traitsIcEENS0_9allocatorIcEEEES7_EES7_11djb2_hash_tIS7_EN14dense_hash_mapIS7_S7_SB_NS0_8equal_toIS7_EE13stl_allocatorIS9_L18MemLabelIdentifier54ELi16EEE9SelectKeyESE_SH_ED2Ev
cLm:__ZN6il2cpp6icalls8mscorlib6System4Type15MakeGenericTypeEP20Il2CppReflectionTypeP11Il2CppArray
Kbc:__ZN6ShaderD2Ev
ok:_SDL_PauseAudio
zwm:_il2cpp_class_from_type
ung:_Array_Sort_m2323017822
JXm:_GC_clear_mark_bit
lMl:_Scrollbar_UpdateDrag_m3839695926
qDf:__ZN5physx23SetMFrictionVsSlipGraphEPNS_17PxVehicleTireDataEjjf
mBc:__Z48Register_UnityEngine_Camera_set_orthographicSizev
HLd:__ZN5physx2Sc5Scene28addActiveBreakableConstraintEPNS0_13ConstraintSimE
qia:__ZN9ShaderLab19CommonPropertyNames16StaticInitializeEPv
G_d:__ZN5physx6shdfnd8PoolBaseINS_16NpParticleSystemENS0_19ReflectionAllocatorIS2_EEE15disposeElementsEv
XJa:__ZN17ShaderPassContext8CopyFromERKS_
vEa:__ZN13MemoryManager31DisallowAllocationsOnThisThreadEv
fHj:_Quaternion_Euler_m3586339259
_O:__ZN7mecanim9animation18CreateAvatarOutputEPKNS0_14AvatarConstantEbbRNS_6memory9AllocatorE
q_e:__ZN5physx7profile11EventBufferINS_24PxDefaultContextProviderENS_6shdfnd6MutexTINS0_26WrapperReflectionAllocatorIhEEEENS0_14ScopedLockImplIS7_EENS_24PxProfileNullEventFilterEE10eventValueEtyx
Eoj:_CspParameters__ctor_m2546931874
D2:__ZN11AudioSource23VirtualRedirectTransferER24GenerateTypeTreeTransfer
mxd:__ZN5physx2Gu11getBoxEdgesEv
YFd:__ZThn12_NK5physx3Ext5JointINS_15PxDistanceJointENS_30PxDistanceJointGeneratedValuesEE19updatePvdPropertiesERNS_8debugger4comm13PvdDataStreamEPKNS_12PxConstraintENS_15PxPvdUpdateType4EnumE
EEj:_EmissionModule_SetEnabled_m1102718738
Mrf:__ZN14UnityAnalytics15SendCustomEventERN11UnityEngine9Analytics15UserCustomEventE
WLb:__ZN14Texture2DArray23VirtualRedirectTransferER14SafeBinaryRead
Lcb:__ZNK6Camera21CalculateCanDoShadowsEv
vle:__ZNK5physx2Sc5Scene17getBroadPhaseCapsERNS_16PxBroadPhaseCapsE
Xbk:_Dictionary_2_make_pair_m2631942124_gshared
tXd:__ZN5physx9NpFactory14onActorReleaseEPNS_7PxActorE
Zom:__ZN14dense_hash_mapI10KeyWrapperINSt3__212basic_stringIcNS1_11char_traitsIcEENS1_9allocatorIcEEEEEP11Il2CppClassN6il2cpp5utils11StringUtils12StringHasherIS7_EENS1_8equal_toIS8_EENS5_INS1_4pairIKS8_SA_EEEEEC2EjRKSF_RKSH_
wwh:_Graphic__cctor_m1643894470
bUm:__ZN6il2cpp2os6Thread12SetStackSizeEj
Naj:_X509ChainElementEnumerator_get_Current_m2232618221
JNd:__ZN5physx2Sc5Actor15onElementAttachERNS0_7ElementE
j4g:_Collection_1_Clear_m3860339101_gshared
tXb:__ZNK20ArchiveStorageReader15HasStreamBlocksEv
etc:__ZNK8Renderer16IsVisibleInSceneEv
rbm:_SkidTrail__ctor_m471002489
CAk:__Z44RuntimeInvoker_AnimatorStateInfo_t2577870592PK10MethodInfoPvPS2_
hhl:_Comparer_1_get_Default_m4282764954_gshared
hfa:__Z13VFormatBufferPciPKcz
L9d:__ZN5physx2Sc18ParticleSystemCore23setSimulationFilterDataERKNS_12PxFilterDataE
P7b:__Z18Transfer_BlittableI18StreamedBinaryReadILb0EELb1EhEvRK29SerializationCommandArgumentsR31RuntimeSerializationCommandInfo
Zti:__ZL90SafeHandle_t2733794115_CustomAttributesCacheGenerator_SafeHandle_get_IsInvalid_m3910183075P21CustomAttributesCache
vyh:_Image_GenerateSimpleSprite_m4275440988
Hsl:_Display_get_systemHeight_m3377672024
Q$k:_UInt16_ToString_m3280699191
YBg:_Convert_ToDouble_m2956884076
kDa:__ZN6prcoreL27StretchGenericFloatBilinearI15TexFormatRFloatEEvPKNS_9InnerInfoE
Ere:__ZN5physx6shdfnd8internal8HashBaseINS0_4PairIKNS_2Sq13PrunerPayloadEjEES5_NS0_4HashIS5_EENS1_11HashMapBaseIS5_jS9_NS0_9AllocatorEE6GetKeyESB_Lb1EE15reserveInternalEj
Uui:__ZL62IDynamicMessageSink_t3056162262_CustomAttributesCacheGeneratorP21CustomAttributesCache
vkk:__Z33RuntimeInvoker_UInt32_t2149682021PK10MethodInfoPvPS2_
$ik:__Z130RuntimeInvoker_Int32_t2071877448_Il2CppObject_Int32_t2071877448_Int32_t2071877448_Il2CppObject_Int32_t2071877448_Int32_t2071877448PK10MethodInfoPvPS2_
vTf:_Array_InternalArray__IEnumerable_GetEnumerator_TisBoolean_t3825574718_m798244337_gshared
K_g:_List_1_CopyTo_m158925060_gshared
exb:__ZN4core20StringStorageDefaultIcE6assignERKS1_
sxf:__ZN13WheelColliderD2Ev
ctc:__ZN13RenderTexture20SetEnableRandomWriteEb
xYb:__ZN39AssetBundleLoadFromStreamAsyncOperationC2ERKNSt3__212basic_stringIcNS0_11char_traitsIcEENS0_9allocatorIcEEEE
HVf:_Array_IndexOf_TisCustomAttributeNamedArgument_t94157543_m745056346_gshared
LEa:__Z33scripting_unity_engine_object_newP11Il2CppClassP6Object
Ksm:__ZN6il2cpp2vm13MetadataCache28GetFieldDefaultValueForFieldEPK9FieldInfo
egl:_DefaultComparer_Compare_m3277849110_gshared
P3k:_ArrayReadOnlyList_1_ReadOnlyError_m2289309720_gshared
GJ:__ZN27AnimationLayerMixerPlayableD2Ev
$tm:__ZN6il2cpp2vm8basepathEPKc
pve:__ZN5physx2Gu22gjkRelativePenetrationINS0_9TriangleVENS0_8CapsuleVEEEjRKT_RKT0_RKNS_6shdfnd3aos15PsMatTransformVERKNSB_6FloatVERNSB_5Vec3VESJ_SJ_RSF_PhSL_Rh
Bma:__ZNSt3__212basic_stringIcNS_11char_traitsIcEE13stl_allocatorIcL18MemLabelIdentifier1ELi16EEE9push_backEc
pTe:__ZN9Rigidbody14SetIsKinematicEb
Jdk:_DefaultComparer_GetHashCode_m320514092_gshared
lai:_PKCS1_Verify_v15_m478274703
R_:__ZN12AudioManager39HandlePendingAudioConfigurationCallbackEv
IEa:__ZNK8Material16MarkDependenciesER27GarbageCollectorThreadState
Yjb:__Z20RequiredComponentsOfP11Il2CppClass
Awl:_GenericMixerPlayable_InternalCreate_m559491731
nl:_emscripten_glIsFramebuffer
KVa:__ZNK13TranslateGLES9GetFormatE13TextureFormat17TextureColorSpace
XMb:__ZN12_GLOBAL__N_16qAtan2Eff
W2e:__Z13RegisterClassI9RigidbodyEvv
n8m:__ZNSt3__215__num_get_floatIfEET_PKcS3_Rj
$Cg:_Convert_ToInt64_m954367741
ql:_JS_Sound_SetLoopPoints
Bsg:_ArrayList__ctor_m1467563650
c3:__ZN12AudioManager17ShouldSourcePauseEb
K_m:__ZN6il2cpp2vm26MetadataAllocGenericMethodEv
iXa:__ZN19ConstantBuffersGLES12RecordRenderEv
gre:__ZN5physx13ActorAABBTaskD2Ev
_0l:_Transform_INTERNAL_set_rotation_m3703763817
UFb:__ZN18AsyncUploadManager22UploadStreamingTextureEP28FileTextureUploadInstruction
xYc:__ZN9JSONWrite8TransferI10RectOffsetEEvRT_PKc17TransferMetaFlags
oSa:__ZN4crnd12symbol_codec11decode_bitsEj
nEc:__Z46QualitySettings_Get_Custom_PropPixelLightCountv
mgd:__ZN15b2CircleContact8EvaluateEP10b2ManifoldRK11b2TransformS4_
qx:__ZN22NavMeshProjectSettings7PRODUCEE18MemLabelIdentifier18ObjectCreationMode
m1f:_Array_Sort_TisRaycastResult_t21186376_TisRaycastResult_t21186376_m38820193_gshared
Jjl:_Animator_ResetTriggerString_m1445965342
E_k:_Type_GetGenericTypeDefinition_m2658530753
U$c:__ZN16ParticleRenderer16GenerateUVFramesEv
Xoc:__ZN21FixedBehaviourManagerD0Ev
BLi:__ZL55RaycastHit2D_t4063908774_CustomAttributesCacheGeneratorP21CustomAttributesCache
YNh:_StreamReader__ctor_m3454466728
OJf:__Z35setPxVehicleDriveSimData_EngineDataPN5physx21PxVehicleDriveSimDataERKNS_19PxVehicleEngineDataE
PXc:__ZL17Transfer_GUIStyleI9JSONWriteLb0EEvRK29SerializationCommandArgumentsR31RuntimeSerializationCommandInfo
rPa:__ZNK18GfxFramebufferGLES15GetSamplesCountEv
tdc:__ZNSt3__26vectorIN9ShaderLab20SerializedSubProgram15MatrixParameterENS_9allocatorIS3_EEE26__swap_out_circular_bufferERNS_14__split_bufferIS3_RS5_EE
mWl:_Vector2_get_Item_m2792130561
u6c:__ZN15CollisionModule8TransferI18StreamedBinaryReadILb1EEEEvRT_
xEa:__Z16MarkDependenciesR27GarbageCollectorThreadStatej
u9m:__ZNSt3__27num_putIwNS_19ostreambuf_iteratorIwNS_11char_traitsIwEEEEED0Ev
Fcj:_X509ChainElementEnumerator_Reset_m3832280427
XPi:__ZL75EventSystem_t3466835263_CustomAttributesCacheGenerator_U3CU3Ef__mgU24cache0P21CustomAttributesCache
YVh:_MulticastDelegate_RemoveImpl_m2024746777
nrh:_CanvasUpdateRegistry_ParentCount_m2367607495
SVh:_MulticastDelegate_Equals_m3064081489
pEk:__Z54RuntimeInvoker_Void_t1841601450_ColorBlock_t2652774230PK10MethodInfoPvPS2_
$5h:_Activator_CreateInstance_m1465989661
hia:__ZNK9Transform11GetPositionEv
l_d:__ZN5physx12NpConstraint8requiresERNS_23PxProcessPxBaseCallbackE
DAl:__ZN21InterfaceFuncInvoker1IP8String_tS1_E6InvokeEjP11Il2CppClassPvS1_
hJl:_PositionAssertion_GetWidth_m2294218483
owl:_Playable_INTERNAL_CALL_GetDurationInternal_m2061318387
z9a:__ZN23SharedMeshRenderingData18UnloadVertexStreamEi
E3l:_Vector4_set_Item_m3077071044
Kvh:__ZN16VirtFuncInvoker0IP19Material_t193706927E6InvokeEjPv
fDd:__ZN5physx3Cct13HandleManager3AddEPv
Gpc:__ZN31CanvasBatchIntermediateRenderer11AddSubBatchERK16DrawBuffersRangePK19ShaderPropertySheet
f4i:__ZL73Wheel_t3431615477_CustomAttributesCacheGenerator_U3CRpmU3Ek__BackingFieldP21CustomAttributesCache
qRi:__ZL104PointerEventData_t1599784723_CustomAttributesCacheGenerator_PointerEventData_set_scrollDelta_m4002219844P21CustomAttributesCache
_nc:__ZN19RenderEventsContextC2Ei
c7:__Z6simd4fRKf
s6l:_InvokableCall_3_Find_m3470456112_gshared
jZf:_Array_InternalArray__ICollection_CopyTo_TisColor32_t874517518_m379086718_gshared
jQl:_Slider_ClampValue_m2851810895
Tl:_emscripten_glEnable
lvj:_GUISkin_set_font_m4009958323
O7l:_UnityEvent_1_FindMethod_Impl_m3813546_gshared
IPm:__ZN6il2cpp2gc16GarbageCollector29RegisterFinalizerForNewObjectEP12Il2CppObject
$wb:__ZN10TagManager23VirtualRedirectTransferER14SafeBinaryRead
xMe:__ZNK5physx2Sc15ClothFabricCore9getNbSetsEv
Myl:_MarshalAsAttribute__ctor_m1892084128
Hbf:_UNITY_FT_Init_Class_ft_grays_raster
bGd:__ZThn12_N5physx3Ext5JointINS_15PxDistanceJointENS_30PxDistanceJointGeneratedValuesEE15getSerializableEv
dYl:_Rigidbody_INTERNAL_set_position_m447802091
Jwk:__Z53RuntimeInvoker_Void_t1841601450_Vector3U26_t425862308PK10MethodInfoPvPS2_
Tfb:__Z15InitLightMeshesv
DPf:__ZNK13WheelCollider13GetSteerAngleEv
Ozi:__ZL97WaitHandle_t677569169_CustomAttributesCacheGenerator_WaitHandle_t677569169____Handle_PropertyInfoP21CustomAttributesCache
Cke:__ZNK5physx7NpScene26getNbContactDataBlocksUsedEv
mOg:_KeyValuePair_2_ToString_m1391611625_AdjustorThunk
$o:FUNCTION_TABLE_iifiii
mPm:__ZNK10KeyWrapperIP12Il2CppObjectEeqERKS2_
Ryd:__ZN5physx2Gu29computeCapsule_HeightFieldMTDERKNS_21PxHeightFieldGeometryERKNS_11PxTransformERNS0_8CapsuleVEffbjRNS_10PxSweepHitE
$fe:__ZNK5physx2Cm12DelegateTaskINS_7NpSceneEXadL_ZNS2_14executeCollideEPNS_10PxBaseTaskEEEE7getNameEv
QNe:__ZN5physx2Gu11HeightField15exportExtraDataERNS_22PxSerializationContextE
OJb:__ZN15QualitySettings8TransferI19StreamedBinaryWriteILb0EEEEvRT_
xUg:_List_1_System_Collections_Generic_IEnumerableU3CTU3E_GetEnumerator_m1503548298_gshared
Pzk:__Z138RuntimeInvoker_Boolean_t3825574718_Vector3_t2243707580_Single_t2076509932_Vector3_t2243707580_RaycastHitU26_t1969197280_Single_t2076509932PK10MethodInfoPvPS2_
S5b:__Z18Transfer_BlittableI19StreamedBinaryWriteILb0EELb1E8Vector2fEvRK29SerializationCommandArgumentsR31RuntimeSerializationCommandInfo
Cgf:_cf2_arrstack_init
Ylm:__ZN30dense_hashtable_const_iteratorINSt3__24pairIK10KeyWrapperIPK22Il2CppGenericParameterEP11Il2CppClassEES6_N6il2cpp5utils11PointerHashIS4_EEN14dense_hash_mapIS6_S9_SE_NS0_8equal_toIS6_EENS0_9allocatorISA_EEE9SelectKeyESH_SJ_EppEv
Dti:__ZL65ClassInterfaceAttribute_t910653559_CustomAttributesCacheGeneratorP21CustomAttributesCache
K3j:__ZN16VirtFuncInvoker2Ii19Vector2_t2243707579S0_E6InvokeEjPvS0_S0_
WTk:_AeroplaneController_get_RollInput_m2565253898
_3i:__ZL66U3CStartU3Ec__Iterator0_t3264741940_CustomAttributesCacheGeneratorP21CustomAttributesCache
Vca:__Z15CleanLogHandler7LogTypePKcz
Hfc:__ZN9ShaderLab19SerializedSubShader8TransferI19StreamedBinaryWriteILb0EEEEvRT_
H0d:__ZN5physx10NpMaterialC2ERKNS_2Sc12MaterialCoreE
DFf:__Z31setPxVehicleNoDrive_BrakeTorquePN5physx16PxVehicleNoDriveEjf
a4:__ZN14AudioBehaviour15ThreadedCleanupEv
hEe:__ZN5physx9PxTaskMgr10resolveRowEjb
zUk:_UTF32Encoding_GetBytes_m2290150495
JZb:__ZN6Camera17RemoveImageFilterERK11ImageFilter
fUa:__ZNSt3__218__insertion_sort_3IR25ValueParameterArraySorterPN20GpuProgramParameters14ValueParameterEEEvT0_S6_T_
rFc:__Z40Register_UnityEngine_Skybox_get_materialv
wvg:_CaseInsensitiveHashCodeProvider_AreEqual_m2456617355
rA:__ZN14AnimationState11SetWrapModeEi
iMf:__ZN5physx18RepXPropertyFilterINS_2Sn17RepXVisitorWriterINS_19PxVehicleClutchDataEEEEclILj561ES3_jjEEvRKNS_14PxPropertyInfoIXT_ET0_T1_T2_EEj
k8i:_WebHeaderCollection__ctor_m4088938710
jsh:_LayoutUtility_GetLayoutProperty_m4052007472
l6l:_InvokableCall_1_Invoke_m3239892614_gshared
Dad:__ZN11ShapeModule17MainThreadCleanupEv
HEf:__Z35setPxVehicleWheelsSimData_WheelDataPN5physx22PxVehicleWheelsSimDataEjNS_18PxVehicleWheelDataE
j9c:__ZN9SubModule5ResetEv
RSe:__ZN8Collider12GetIsTriggerEv
Ygk:_EqualityComparer_1_get_Default_m1806515335_gshared
Xim:__ZL24UnresolvedVirtualCall_97P12Il2CppObjectS0_iS0_iPK10MethodInfo
Mbn:__ZNKSt3__210moneypunctIwLb1EE14do_curr_symbolEv
aE:__ZN17AnimationCurveTplI11QuaternionfE8TransferI14SafeBinaryReadEEvRT_
Pei:_Context_set_WriteSequenceNumber_m3356252710
TLe:__ZNK5physx13NpClothFabric13getRestvaluesEPfj
GIm:__ZN6il2cpp6icalls8mscorlib6System9ThreadingL20GetSerializedCultureERPhRj
gwd:__ZN5physx2Gu16_gjkLocalRayCastINS0_9TriangleVENS0_11ConvexHullVEEEbRT_RT0_RKNS_6shdfnd3aos6FloatVERKNS9_5Vec3VESF_RSA_RSD_SH_f
AH:__ZNK8Playable11GetDurationEv
RXg:_List_1_Find_m928286154_gshared
SH:__ZN17AnimationPlayable28ComputeNeedsBindingRebuildedEv
Kbn:__ZNKSt3__210moneypunctIwLb1EE16do_thousands_sepEv
SLd:__ZN5physx6shdfnd8PoolBaseINS_2Cm5BlockIPvLj32EEENS0_19ReflectionAllocatorIS5_EEE17releaseEmptySlabsEv
Qfl:_DefaultComparer__ctor_m2859550749_gshared
YPk:_TwirlEffect__ctor_m3418134587
fjl:_AnimationEvent_get_functionName_m4178006856
uxe:__ZN5physx23PxsBroadPhaseContextSap21batchUpdateFewUpdatesEjRPNS_17PxcBroadPhasePairERjS4_
wzd:__ZN5physx3Cct17getSceneTimestampEPKNS0_30InternalCBData_FindTouchedGeomE
RRd:__ZN5physx14NpArticulation12applyImpulseEPNS_18PxArticulationLinkERKNS_24PxArticulationDriveCacheERKNS_6PxVec3ES8_
maj:_X509ExtensionCollection__ctor_m1324282194
yFj:_Physics_Raycast_m2874007225
Huf:__ZN18UnityConnectClient33OnPlayerSessionStateChangedStaticEPS_jyy
KV:__ZN25RuntimeAnimatorController12CleanupClassEv
Ipi:__ZL74CaseInsensitiveHashCodeProvider_t2307530285_CustomAttributesCacheGeneratorP21CustomAttributesCache
K1k:_UIntPtr__ctor_m3900568171_AdjustorThunk
JCf:__Z56setPxVehicleTireLoadFilterDataMMinFilteredNormalisedLoadPN5physx27PxVehicleTireLoadFilterDataEf
S4k:_InternalEnumerator_1_get_Current_m1943362081_gshared
UPa:__ZN7ApiGLES4LoadE16GfxDeviceLevelGL
pHb:__ZN18StreamedBinaryReadILb0EE21TransferSTLStyleArrayI13dynamic_arrayI31EnlightenSystemAtlasInformationLj8EEEEvRT_17TransferMetaFlags
Q$d:__ZN5physx9NpPhysics15createAggregateEjb
AEd:__ZN5physx15PxErrorCallbackD2Ev
Ldh:_ReadOnlyCollection_1_System_Collections_IList_Clear_m3006875897_gshared
ZWe:__ZN9Rigidbody5ResetEv
uRg:_Enumerator_System_Collections_IEnumerator_get_Current_m3866069145_gshared
Gq:FUNCTION_TABLE_viiffffi
HFj:_Physics_Raycast_m2994111303
lZh:_PreviousInfo_t581002487_marshal_pinvoke_cleanup
J8m:__ZNKSt3__27num_getIwNS_19istreambuf_iteratorIwNS_11char_traitsIwEEEEE6do_getES4_S4_RNS_8ios_baseERjS8_
vta:__ZN8Material11SetPassFastEPN9ShaderLab4PassER17ShaderPassContextP6Shaderib
vDf:__ZN5physx18RepXPropertyFilterINS_2Sn17RepXVisitorReaderINS_18PxVehicleWheelDataEEEEclILj575ES3_ffEEvRKNS_14PxPropertyInfoIXT_ET0_T1_T2_EEj
L9c:__ZN20ExternalForcesModule5CacheERK27ParticleSystemReadOnlyStateR19ParticleSystemState
Dmb:__ZNK13ScreenManager13GetLockCursorEv
Puf:__ZN11UnityEngine7Connect20BasePersistentValues10SaveValuesER9JSONWrite
R5c:__ZN15PolynomialCurve12IsValidCurveERK17AnimationCurveTplIfE
sEc:__Z31Renderer_Set_Custom_PropEnabledP12Il2CppObjecth
BIj:_Rect_get_max_m96665935_AdjustorThunk
TRb:__ZN14SafeBinaryRead21TransferSTLStyleArrayINSt3__26vectorI17SubstanceEnumItemNS1_9allocatorIS3_EEEEEEvRT_17TransferMetaFlags
xmh:_ExecuteEvents_get_pointerDownHandler_m1172742772
_De:__ZN5physx9PxTaskMgr12addReferenceEj
Emd:__ZNSt3__27__sort4IR24RayHitsByDepthComparitorP12RaycastHit2DEEjT0_S5_S5_S5_T_
acj:_X509CertificateEnumerator_System_Collections_IEnumerator_MoveNext_m3708362145
rbb:__Z12SetupLODFadeR9GfxDeviceR17ShaderPassContextf
KIf:__ZN5physx18RepXPropertyFilterINS_2Sn17RepXVisitorReaderINS_19PxVehicleClutchDataEEEEclILj561ES3_jjEEvRKNS_14PxPropertyInfoIXT_ET0_T1_T2_EEj
hjd:__ZN26b2PolygonAndCapsuleContact6CreateEP9b2FixtureiS1_iP16b2BlockAllocator
Uy:__ZNSt3__27__sort4IR17DetailNodeZSorterP16DetailMeshBVNodeEEjT0_S5_S5_S5_T_
Gfb:__ZL24CollectForwardObjectsJobP27CollectForwardObjectsHeader
a4j:_Enumerator_System_Collections_IDictionaryEnumerator_get_Entry_m345330700_gshared
cxi:__ZL53HMACSHA256_t2622794722_CustomAttributesCacheGeneratorP21CustomAttributesCache
R6a:__Z13IsNodeVisibleRK9SceneNodeRK4AABBRK22SceneCullingParameters
tTk:_AeroplaneController_AutoLevel_m1706038903
g8:__ZN11UnityEngine15CloudWebService16SessionContainer7RestoreERK8UnityStrPvy
bSj:_EventInfo__ctor_m1190141300
H5k:_InternalEnumerator_1_MoveNext_m3585886944_gshared
nZi:__ZL185U3CBlendLookWeightU3Ec__Iterator0_t1192586871_CustomAttributesCacheGenerator_U3CBlendLookWeightU3Ec__Iterator0_System_Collections_Generic_IEnumeratorU3CobjectU3E_get_Current_m3277832064P21CustomAttributesCache
$pf:__Z57RectTransformUtility_CUSTOM_INTERNAL_CALL_PixelAdjustRectP12Il2CppObjectS0_R5RectTIfE
W4e:__Z52Register_UnityEngine_Rigidbody_INTERNAL_get_positionv
Jjj:_DelayedFixupRecord_FixupImpl_m4249966635
Atn:_emscripten_glStencilMask__wrapper
K9e:__ZZ29InitializeTextRenderingModulevEN40CleanUpTextRenderingGarbageCollectstruct7ForwardEv
XZh:_BigInteger_op_Implicit_m4032862257
Xag:_TripleDES_Create_m424764907
JZh:_BigInteger_ToString_m3837784224
P8a:__ZN15RenderNodeQueue7CleanupEv
b1a:__ZNK17ArchiveFileSystem8PositionERK13FileEntryData
hGd:__ZN5physx6shdfnd5ArrayINS_2Sn20ReaderNameStackEntryENS_7profile26WrapperReflectionAllocatorIS3_EEE15growAndPushBackERKS3_
yEd:__ZN16NovodexAllocator8allocateEjPKcS1_i
RJg:_DllNotFoundException__ctor_m267198482
p7m:__ZNSt3__215basic_streambufIcNS_11char_traitsIcEEEC2Ev
eUi:__ZL81U3CMouseDragOutsideRectU3Ec__Iterator1_t2599668326_CustomAttributesCacheGeneratorP21CustomAttributesCache
aWk:_NativeEventCalls_CreateEvent_internal_m1605829321
A1f:_Array_Sort_TisUIVertex_t1204258818_TisUIVertex_t1204258818_m1327748421_gshared
mOi:__ZL73RuntimePlatform_t1869584967_CustomAttributesCacheGenerator_MetroPlayerX64P21CustomAttributesCache
thm:__ZL24UnresolvedVirtualCall_13P12Il2CppObjectaPK10MethodInfo
pFj:_Particle_set_lifetime_m995439650_AdjustorThunk
njk:__Z65RuntimeInvoker_Int32_t2071877448_Il2CppObject_Int32U26_t455636984PK10MethodInfoPvPS2_
YCf:__ZN5physx18RepXPropertyFilterINS_2Sn17RepXVisitorReaderINS_17PxVehicleTireDataEEEEclILj603ES3_ffEEvRKNS_14PxPropertyInfoIXT_ET0_T1_T2_EEj
Cfb:__ZN9ShaderLab10GrabPassesD2Ev
_wj:_GUIStyle_set_font_m312124587
dMb:__ZN14Texture2DArray13UploadTextureEv
BEk:__Z69RuntimeInvoker_TextGenerationSettings_t2543476768_Vector2_t2243707579PK10MethodInfoPvPS2_
Geg:_SecurityFrame_t1002202659_marshal_pinvoke
Vdf:_tt_cmap14_done
mFa:__ZN18AwakeFromLoadQueue25RegisterObjectInstanceIDsEv
oy:__ZNK14NavMeshCarving28CollectCarveDataAndOperationER15CarveDataArraysRK10MinMaxAABBRK13dynamic_arrayIS2_Lj4EE
uSe:__ZN5physx21PxProfileNameProviderD2Ev
Rpg:_Buffer_BlockCopy_m1586717258
cqm:__ZN15dense_hashtableI10KeyWrapperIPK17Il2CppGenericInstES4_N6il2cpp8metadata21Il2CppGenericInstHashEN14dense_hash_setIS4_S7_NS6_24Il2CppGenericInstCompareENSt3__29allocatorIS4_EEE8IdentityES9_SC_E12maybe_shrinkEv
Cwi:__ZL93X509Certificate_t283079845_CustomAttributesCacheGenerator_X509Certificate_GetName_m2354987368P21CustomAttributesCache
vni:__ZL65Il2CppArray_CustomAttributesCacheGenerator_Array_Copy_m1969461849P21CustomAttributesCache
l7e:__ZN20TextRenderingPrivate19NativeTextGenerator15InsertCharacterEiPj
nle:__ZN5physx2Sc5Scene22removeBroadPhaseRegionEj
rvk:__Z52RuntimeInvoker_Void_t1841601450_ColorU26_t3402129837PK10MethodInfoPvPS2_
xDd:__ZN5physx2Cm12RenderBuffer5clearEv
mNg:_CompareInfo_GetSortKey_m3691382873
$6d:__ZNK5physx2Sc9ClothCore21getStiffnessFrequencyEv
eid:__ZN11b2RopeJoint24SolveVelocityConstraintsERK12b2SolverData
eHg:_DBNull_ToString_m3228904745
a_a:__ZN14GfxDeviceStats15SetScreenParamsEiiiiii
iYi:__ZL64FreeLookCam_t3928264390_CustomAttributesCacheGenerator_turnSpeedP21CustomAttributesCache
q8i:_WebHeaderCollection_AddWithoutValidate_m1479880592
v9f:_SHA1Managed_HashCore_m2658295635
q0c:__ZN24OptimizedPolynomialCurve19BuildOptimizedCurveERK17AnimationCurveTplIfEf
Fte:__ZN5physx13PxsCCDContext14postCCDAdvanceEPNS_10PxBaseTaskE
OPm:__ZNK15dense_hashtableINSt3__24pairIK10KeyWrapperIP12Il2CppObjectEN6il2cpp2gc9CachedCCWEEES5_NS7_5utils11PointerHashIS3_EEN14dense_hash_mapIS5_S9_SD_NS0_8equal_toIS5_EENS0_9allocatorISA_EEE9SelectKeyESG_SI_E13find_positionERS6_
Cai:_RC4_get_IV_m506011366
mVl:_X509Crl__ctor_m2469408229
A5b:__Z18Transfer_BlittableI19StreamedBinaryWriteILb0EELb0EyEvRK29SerializationCommandArgumentsR31RuntimeSerializationCommandInfo
Rti:__ZL82SafeHandle_t2733794115_CustomAttributesCacheGenerator_SafeHandle_Close_m1146946803P21CustomAttributesCache
n4j:_Enumerator_get_CurrentValue_m3562053380_AdjustorThunk
kgm:_Predicate_1_EndInvoke_m3406729927_gshared
xHf:__ZN5physx18RepXPropertyFilterINS_2Sn17RepXVisitorReaderINS_23PxVehicleDriveSimData4WEEEEclILj663ENS_21PxVehicleDriveSimDataERKNS_19PxVehicleEngineDataES8_EEvRKNS_14PxPropertyInfoIXT_ET0_T1_T2_EEj
Zha:__Z12MurmurHash2APKvij
rPg:_Enumerator_System_Collections_IEnumerator_Reset_m610822832_AdjustorThunk
F8h:_ASN1_get_Length_m778823697
BLm:__ZN6il2cpp6icalls8mscorlib6System2IO6MonoIO20GetFileSystemEntriesEP12Il2CppStringS6_iiPi
BNl:_ScrollRect_get_verticalScrollbarSpacing_m793718754
WIc:__Z41MonoBehaviour_Set_Custom_PropUseGUILayoutP12Il2CppObjecth
g8e:_UNITY_FT_Open_Face
_on:_glGenRenderbuffers__wrapper
Iml:_Bounds_ToString_m1966597703
F_h:_BigInteger_op_Division_m1581119694
xbc:__ZN16ScriptingManagerD0Ev
HRl:_Text_get_layoutPriority_m1088242691
GSm:__ZNK15dense_hashtableINSt3__24pairIK10KeyWrapperIP14Il2CppIUnknownEjEES5_N6il2cpp5utils11PointerHashIS3_EEN14dense_hash_mapIS5_jSB_NS0_8equal_toIS5_EENS0_9allocatorIS7_EEE9SelectKeyESE_SG_E12test_deletedERK24dense_hashtable_iteratorIS7_S5_SB_SI_SE_SG_E
_hl:_UnityAnalyticsHandler_CustomEvent_m2884790978
klj:_CallbackHandler_Invoke_m1498072969
jpj:_DSACryptoServiceProvider__ctor_m701823690
Vze:__ZNK5physx10BPWorkTask7getNameEv
Duj:_Mathf_Clamp_m2354025655
LLj:_CustomAttributeData_GetCustomAttributes_m2421330738
$Xd:__ZN5physx2Sc8ShapeSim16onResetFilteringEv
DZk:_Type_get_IsEnum_m313908919
eCc:__Z44Register_UnityEngine_Component_get_transformv
_jm:__ZL25UnresolvedVirtualCall_154P12Il2CppObject38CustomAttributeNamedArgument_t94157543PK10MethodInfo
X_g:_List_1_Reverse_m3395936565_gshared
BDc:__Z39GameObject_CUSTOM_FindGameObjectWithTagP12Il2CppString
s5g:_Collection_1_System_Collections_ICollection_CopyTo_m1335644572_gshared
ss:__ZN4PPtrI9TransformE8TransferI18StreamedBinaryReadILb1EEEEvRT_
cPk:_NoiseAndGrain__ctor_m2033666350
QYg:_List_1_CheckMatch_m2830747427_gshared
CLd:__ZN5physx2Sc16ActorInteractionD2Ev
j_a:__ZN17ArchiveFileSystem12MountArchiveEPKcS1_
HEc:__Z34Graphics_CUSTOM_Internal_SetNullRTv
yJg:_StackFrame_GetMethod_m72881026
lFk:__Z112RuntimeInvoker_Void_t1841601450_Il2CppObject_Il2CppObject_Int32_t2071877448_Int32_t2071877448_Single_t2076509932PK10MethodInfoPvPS2_
mOm:__ZN15dense_hashtableI10KeyWrapperIP18Il2CppGenericClassES3_N6il2cpp8metadata22Il2CppGenericClassHashEN14dense_hash_setIS3_S6_NS5_25Il2CppGenericClassCompareENSt3__29allocatorIS3_EEE8IdentityES8_SB_E15set_deleted_keyERKS3_
iZc:__Z18Transfer_BlittableI9JSONWriteLb1E8Vector4fEvRK29SerializationCommandArgumentsR31RuntimeSerializationCommandInfo
mPf:__ZN13WheelCollider7PRODUCEE18MemLabelIdentifier18ObjectCreationMode
Ija:__Z11RequireTypePKcS0_S0_
c7m:__ZThn8_NSt3__214basic_iostreamIcNS_11char_traitsIcEEED0Ev
y4j:_Enumerator_System_Collections_IEnumerator_Reset_m70453843_gshared
HYd:__ZN5physx2Sc16ArticulationCore26setExternalDriveIterationsEj
Erj:_GL_Clear_m154870981
Uyb:__ZN4PPtrI13RenderTextureE8TransferI19StreamedBinaryWriteILb0EEEEvRT_
Y2l:_Vector3_get_Item_m3616014016
AVi:__ZL59Slider_t297367283_CustomAttributesCacheGenerator_m_MinValueP21CustomAttributesCache
qNa:__ZN9GfxDevice15ImmediateVertexEfff
Ric:__Z13RegisterClassI8MaterialEvv
Uxi:__ZL51Evidence_t1407710183_CustomAttributesCacheGeneratorP21CustomAttributesCache
_ce:__ZN5physx14NpRigidDynamic10clearForceENS_11PxForceMode4EnumE
Lzb:__ZN16GraphicsSettings13AwakeFromLoadE17AwakeFromLoadMode
rMg:_FieldAccessException__ctor_m3893881490
HBk:__Z82RuntimeInvoker_Int32_t2071877448_Rect_t3681755626_Il2CppObject_Vector2_t2243707579PK10MethodInfoPvPS2_
cs:__ZN6Object13AwakeFromLoadE17AwakeFromLoadMode
eLa:__ZN13GfxDeviceGLES15SetStencilStateEPK18DeviceStencilStatei
qmf:__ZN2UI11CanvasGroup8TransferI18StreamedBinaryReadILb1EEEEvRT_
d4m:_cycle
ZVm:__ZN6il2cpp2vm8Profiler7GCEventE13Il2CppGCEvent
EIk:__Z53RuntimeInvoker_Int32_t2071877448_Keyframe_t1449471340PK10MethodInfoPvPS2_
smj:_StreamingContext__ctor_m3756336578_AdjustorThunk
_Ei:__ZL72PKCS12_t1362584795_CustomAttributesCacheGenerator_U3CU3Ef__switchU24map5P21CustomAttributesCache
Je:_emscripten_glUniform1iv
arj:_GeometryUtility_Internal_ExtractPlanes_m1465139830
zam:_CarController__ctor_m3647140578
Zld:__ZN15b2DistanceProxy3SetEPK7b2Shapei
Zfg:_String_System_IConvertible_ToDouble_m3860911722
qpb:__ZN16MemoryFileSystemD2Ev
dak:_Dictionary_2_System_Collections_Generic_ICollectionU3CSystem_Collections_Generic_KeyValuePairU3CTKeyU2CTValueU3EU3E_Contains_m842343255_gshared
V8h:_ARC4Managed__ctor_m2922048522
x7e:__Z17dynamic_pptr_castIP9Texture2D7TextureET_RK4PPtrIT0_E
sI:__ZN7mecanim14ValueArrayLoopERKNS_10ValueArrayES2_RS0_fRKNS_14ValueArrayMaskE
yeh:_ReadOnlyCollection_1_System_Collections_IList_set_Item_m1272038804_gshared
T4k:_InternalEnumerator_1_System_Collections_IEnumerator_get_Current_m1931522460_AdjustorThunk
iWa:__ZN14DrawBufferGLESI12VertexBuffer27VertexBufferUsageMapperGLESE12EnsureBufferEj
acg:_SecurityPermission_IsEmpty_m1869313067
mpa:__ZN13RuntimeStaticI23MeshVertexFormatManagerE13StaticDestroyEPv
JVa:__ZN7ApiGLES15TextureSubImageEj16TextureDimensionN2gl9TexFormatEiiiiiiiiPKv
pBc:__Z37Register_UnityEngine_Camera_get_depthv
W1h:_EncryptedPrivateKeyInfo_get_Salt_m2734354394
vKb:__ZN12ImmediatePtrI9TransformE8TransferI18StreamedBinaryReadILb1EEEEvRT_
pnc:__ZN12MeshRenderer7PRODUCEE18MemLabelIdentifier18ObjectCreationMode
Ygh:_ReadOnlyCollection_1_System_Collections_Generic_IListU3CTU3E_set_Item_m1918537449_gshared
G4g:_Collection_1_System_Collections_ICollection_CopyTo_m3896480607_gshared
anh:_PointerEventData_set_position_m794507622
aze:__ZNK5physx16PxsBroadPhaseMBP18getNumDeletedPairsEv
sZe:__ZN5physx7profile8ZoneImplINS_28PxProfileNameProviderForwardEE10startEventEty
pra:__ZN15dense_hashtableINSt3__24pairIKPKcPK4RTTIEES3_N11TypeManager23ConstCharPtrHashFunctorEN14dense_hash_mapIS3_S7_SA_NS9_19ConstCharPtrEqualToE13stl_allocatorIS8_L18MemLabelIdentifier6ELi16EEE9SelectKeyESC_SF_E12resize_deltaEjj
Zte:__ZN5physx10PxsCCDPair17sweepAdvanceToToiEfb
hic:__ZN15ApplicationInfo16GetInstallerNameEv
Vob:__Z23ConvertIntegerToTypePtrItEbPvR14SafeBinaryRead
iLf:__Z36getPxVehicleDriveDynData_CurrentGearPKN5physx21PxVehicleDriveDynDataE
JO:__ZN7mecanim5human29HumanGetGoalOrientationOffsetENS0_4GoalE
_e:_emscripten_glStencilFunc
nok:__Z101RuntimeInvoker_Void_t1841601450_Il2CppObject_Il2CppObject_Il2CppObject_Il2CppObject_Int32_t2071877448PK10MethodInfoPvPS2_
bXd:__ZN5physx6shdfnd8PoolBaseINS_2Cm5BlockIhLj384EEENS0_19ReflectionAllocatorIS4_EEE17releaseEmptySlabsEv
_Je:__ZN5physx16PxsIslandManager11freeBuffersEv
mhm:__ZL23UnresolvedVirtualCall_6P12Il2CppObjectiPK10MethodInfo
xka:__ZN18AwakeFromLoadQueueD2Ev
UUj:_MonoMethod_MakeGenericMethod_impl_m2063853616
MPd:__ZN5physx2Cm12DelegateTaskINS_2Sc17ParticleSystemSimEXadL_ZNS3_21prepareCollisionInputEPNS_10PxBaseTaskEEEE11runInternalEv
Heg:__Z46il2cpp_codegen_get_marshal_directive_exceptionPKc
Kgc:__ZN9ShaderLab20SerializedSubProgram14AddMatrixParamEPKcii15ShaderParamTypei
ef:_glGetActiveUniformBlockName
dGd:__ZThn12_N5physx3Ext13DistanceJointD0Ev
Oun:b183
bvh:_FontData_set_verticalOverflow_m4211463083
Pni:__ZL65Il2CppArray_CustomAttributesCacheGenerator_Array_Sort_m2090966156P21CustomAttributesCache
oIh:_Guid_AppendByte_m2890893073
Dub:__ZNK17FileSystemHandler8IsHiddenERK13FileEntryData
o3c:__ZN31CollisionModulePropertyBindings13GetFloatValueERK14ParticleSystemi
brg:_Char_System_IConvertible_ToType_m3106771703_AdjustorThunk
ifj:_Interval_Intersects_m3480157390_AdjustorThunk
qHc:__Z39Quaternion_CUSTOM_INTERNAL_CALL_InverseRK11QuaternionfRS_
wRj:_OpCodeNames__cctor_m2437275178
vyl:_GCHandle_Alloc_m1063472408
O$:__ZN4FMOD7Channel20set3DConeOrientationEP11FMOD_VECTOR
DRi:__ZL86StandaloneInputModule_t70867863_CustomAttributesCacheGenerator_m_InputActionsPerSecondP21CustomAttributesCache
Oo:FUNCTION_TABLE_iiifii
Q3j:_Comparer_1__ctor_m4052560291_gshared
DZi:__ZL108VirtualButton_t1481111999_CustomAttributesCacheGenerator_VirtualButton_set_matchWithInputManager_m2276098816P21CustomAttributesCache
Cpi:__ZL52ArrayList_t4252133567_CustomAttributesCacheGeneratorP21CustomAttributesCache
vMi:__ZL54SkeletonBone_t345082847_CustomAttributesCacheGeneratorP21CustomAttributesCache
roj:_CryptoConfig_CreateFromName_m391442950
Qun:b184
WNm:__ZN6il2cpp2vm12GenericClass11SetupEventsEP11Il2CppClass
bkf:_tt_delta_interpolate
Odf:_tt_cmap12_get_info
hyg:_SortedList__ctor_m3698381356
uLk:__Z31RuntimeInvoker_Slot_t2022531261PK10MethodInfoPvPS2_
cIi:__ZL86Quaternion_t4030073918_CustomAttributesCacheGenerator_Quaternion_AngleAxis_m2806222563P21CustomAttributesCache
CRh:_StreamWriter_LowLevelWrite_m4205372900
nmg:_SimpleEnumerator__ctor_m2272112645
Rgm:__ZN6il2cpp6icalls8mscorlib6System7Decimal14decimalCompareEP19il2cpp_decimal_reprS5_
jSd:__ZN5physx26PxcFsComputeJointLoadsSimdERKNS_9PxcFsDataEPKNS_12PxcFsInertiaEPNS_6shdfnd3aos6Mat33VEPKfjjNS_21PxcFsScratchAllocatorE
cTj:_Module__ctor_m3853650010
Ovg:_CollectionBase_System_Collections_IList_get_Item_m2370387510
Sdl:_InternalEnumerator_1__ctor_m147829362_gshared
zV:__ZN29AnimationStateNetworkProvider24GetNetworkAnimationStateER9AnimationP24AnimationStateForNetworki
Sfe:__ZN5physx6shdfnd8SyncImpl7getSizeEv
p0c:__Z11BuildCurvesR25MinMaxOptimizedPolyCurvesRK21MinMaxAnimationCurvesfs
Rea:__Z15CreateDirectoryRKNSt3__212basic_stringIcNS_11char_traitsIcEENS_9allocatorIcEEEE
GAa:__ZNSt3__26__treeINS_12__value_typeIN9ShaderLab16FastPropertyNameE10ColorRGBAfEENS_19__map_value_compareIS3_S5_NS_4lessIS3_EELb1EEENS_9allocatorIS5_EEE12__find_equalIS3_EERPNS_16__tree_node_baseIPvEENS_21__tree_const_iteratorIS5_PNS_11__tree_nodeIS5_SF_EEiEESI_RKT_
tqn:_glCopyTexImage2D__wrapper
_yi:__ZL88UTF7Encoding_t741406939_CustomAttributesCacheGenerator_UTF7Encoding_GetBytes_m3015176946P21CustomAttributesCache
_Bh:_LayoutElement__ctor_m789941073
lQi:__ZL77ExecuteEvents_t1693084770_CustomAttributesCacheGenerator_U3CU3Ef__mgU24cache9P21CustomAttributesCache
Hnl:_Camera_FireOnPreCull_m1679634170
gti:__ZL68TargetInvocationException_t4098620458_CustomAttributesCacheGeneratorP21CustomAttributesCache
VCi:__ZL56RankException_t1539875949_CustomAttributesCacheGeneratorP21CustomAttributesCache
gBd:__ZN5physx11PxHitBufferINS_12PxRaycastHitEED0Ev
KFh:_NumberFormatter_CountTrailingZeros_m2398864634
Wed:__Z61Register_UnityEngine_ParticleSystem_EmissionModule_SetEnabledv
CKf:__Z35setPxVehicleDriveSimDataNW_DiffDataPN5physx23PxVehicleDriveSimDataNWERKNS_27PxVehicleDifferentialNWDataE
e5h:___Il2CppComDelegate_t3311706788_create_ccw
ICa:__ZN6prcoreL17RemapGenericFloatI14TexFormatRHalf15TexFormatRFloatEEvPKNS_9InnerInfoE
Efb:__Z16ShouldUseShadowsb
uki:_TlsStream_SetLength_m1460039587
Lhm:__ZL24UnresolvedVirtualCall_31P12Il2CppObjectiS0_S0_PK10MethodInfo
vud:__ZN5physx2Gu24contactSphereHeightFieldERKNS0_13GeometryUnionES3_RKNS_11PxTransformES6_RKfRNS0_5CacheERNS0_13ContactBufferE
MIk:__Z55RuntimeInvoker_Int32_t2071877448_UICharInfo_t3056636800PK10MethodInfoPvPS2_
aTa:__ZN7ApiGLES10DrawArraysE16GfxPrimitiveTypejjj
qtl:_Event_PopEvent_m1952528237
Fqd:__ZN5physx3Cct13BoxController15getPxControllerEv
HKf:__ZN5physx18RepXPropertyFilterINS_2Sn17RepXVisitorReaderINS_21PxVehicleDriveDynDataEEEEclILj645ES3_KbbEEvRKNS_14PxPropertyInfoIXT_ET0_T1_T2_EEj
yZ:__ZN10SampleClip13LoadBaseSoundEv
Qwd:__ZN5physx2Gu22gjkRelativePenetrationINS0_17ShrunkConvexHullVES2_EEjRKT_RKT0_RKNS_6shdfnd3aos15PsMatTransformVERKNSA_6FloatVERNSA_5Vec3VESI_SI_RSE_PhSK_Rh
YU:__ZN18StreamedBinaryReadILb0EE21TransferSTLStyleArrayI22OffsetPtrArrayTransferIN7mecanim8skeleton4NodeEEEEvRT_17TransferMetaFlags
uyj:_GUIStyleState__ctor_m2708667747
EMf:__ZN5physx3Pvd17PvdPropertyFilterINS_2Sn17RepXVisitorWriterINS_21PxVehicleDriveDynDataEEEE14handleAccessorILj652ENS_22PxRepXPropertyAccessorILj652ES4_KffEEEEvRKT0_
Nmk:__Z62RuntimeInvoker_Il2CppObject_Int32_t2071877448_SByte_t454417549PK10MethodInfoPvPS2_
hG:__ZN7mecanim9animation4Clip8TransferI19StreamedBinaryWriteILb0EEEEvRT_
q9g:_Collection_1_Contains_m643401393_gshared
V3i:__ZL76CarSelfRighting_t4173148110_CustomAttributesCacheGenerator_velocityThresholdP21CustomAttributesCache
YKe:__ZN5physx2Sc19ParticlePacketShapeC2ERNS0_17ParticleSystemSimEjPNS_16PxvParticleShapeE
q$l:_TextGenerator_Populate_m4139823822
OAa:__ZN22DeviceMVPMatricesStateC2ER9GfxDevice
kHl:_Regex_IsMatch_m1286520424
S$d:__ZN5physx9NpPhysics18createTriangleMeshERNS_13PxInputStreamE
bp:FUNCTION_TABLE_iiiiifiiiif
irk:__Z48RuntimeInvoker_Int64_t909078037_Int64_t909078037PK10MethodInfoPvPS2_
Rfg:_String__ctor_m372528291
to:FUNCTION_TABLE_iifii
wXj:_Joystick__ctor_m2065635551
TGe:__ZN5physx2Cm12DelegateTaskINS_2Sc5SceneEXadL_ZNS3_14updateDynamicsEPNS_10PxBaseTaskEEEED0Ev
yhl:_NavMeshAgent_INTERNAL_CALL_SetDestination_m1977143988
zXe:__ZN14SphereCollider23VirtualRedirectTransferER18StreamedBinaryReadILb1EE
hEm:__ZN6il2cpp2vm10Reflection12HasAttributeEP9FieldInfoP11Il2CppClass
VEa:__ZNSt3__26__treeIiNS_4lessIiEE13stl_allocatorIiL18MemLabelIdentifier1ELi16EEE7destroyEPNS_11__tree_nodeIiPvEE
fd:invoke_viiifi
XQi:__ZL104PointerEventData_t1599784723_CustomAttributesCacheGenerator_PointerEventData_get_pointerDrag_m2740415629P21CustomAttributesCache
eGj:_Physics_INTERNAL_CALL_Internal_CapsuleCast_m4097719249
RKi:__ZL79Physics_t634932869_CustomAttributesCacheGenerator_Physics_RaycastAll_m233036521P21CustomAttributesCache
GUh:_LongComparer_Compare_m3981323622
Hkk:__Z64RuntimeInvoker_UInt64_t2909196914_Il2CppObject_Int32_t2071877448PK10MethodInfoPvPS2_
kPe:__ZN5physx6shdfnd5ArrayIPNS_7PxActorENS0_19ReflectionAllocatorIS3_EEE8recreateEj
nXi:__ZL109LayoutUtility_t4076838048_CustomAttributesCacheGenerator_LayoutUtility_U3CGetFlexibleHeightU3Em__7_m947156537P21CustomAttributesCache
dmd:__ZNSt3__27__sort4IRN15Cast2DQueryBase14FixtureContactEPS2_EEjT0_S5_S5_S5_T_
vQl:_Slider_FindSelectableOnUp_m15474611
ZIa:__ZNK11AssetBundle14GetPreloadDataEiR13dynamic_arrayIiLj4EE
d3h:_EncryptedData_get_EncryptedContent_m2732115576
iGd:__ZN5physx6shdfnd5ArrayINS_2Sn14NameStackEntryENS_7profile26WrapperReflectionAllocatorIS3_EEE15growAndPushBackERKS3_
jXl:_RenderTexture_INTERNAL_CALL_Release_m1818573204
og:_JS_Sound_SetPosition
IGl:_Assertion_set_FalseExpression_m1781616372
edj:_X509SubjectKeyIdentifierExtension_FromHexChars_m2515150420
PGa:__ZNK9Texture3D26CanReuploadDataToGfxDeviceEv
ism:__ZL13GetSharedInstPK17Il2CppGenericInst
woi:__ZL51IReflect_t3412036974_CustomAttributesCacheGeneratorP21CustomAttributesCache
Woh:_StandaloneInputModule_SendSubmitEventToSelectedObject_m3421155293
qzl:_AppDomainLevelActivator__ctor_m230071814
Kql:_Component_GetComponentsInChildren_m908027537
$sf:__ZN22BaseUnityConnectClient17SaveSessionValuesEv
WCl:_CallContextRemotingData_Clone_m2226242476
Aqg:_Byte_System_IConvertible_ToUInt32_m3950610247
o3d:__ZNK5physx7NpCloth14getNbParticlesEv
ugc:__ZN9ShaderLab10SubProgram30CreateFromSerializedSubProgramERKNS_20SerializedSubProgramEP16PropertyNamesSetPK6Shader
NHd:__ZN5physx2Sc10NPhaseCore24releaseShapeInstancePairEPNS0_19ShapeInstancePairLLEjj
Jfb:__Z24SetupActiveLightsContextR21ActiveLightingContextRK12ActiveLightsRK11CullResultsP14ShadowMapCacheRK10MinMaxAABB
Vak:_Dictionary_2_System_Collections_Generic_ICollectionU3CSystem_Collections_Generic_KeyValuePairU3CTKeyU2CTValueU3EU3E_Contains_m3400497673_gshared
OLc:__Z38Sprite_CUSTOM_INTERNAL_get_textureRectP12Il2CppObjectP5RectTIfE
aHg:_DBNull_System_IConvertible_ToUInt32_m2681284284
Oyj:_HumanBone_set_boneName_m2410239828_AdjustorThunk
Hyb:__ZN6Camera8TransferI24GenerateTypeTreeTransferEEvRT_
J2j:_BloomAndLensFlares_Vignette_m2811320500
zLi:__ZL101Rigidbody_t4233889191_CustomAttributesCacheGenerator_Rigidbody_AddExplosionForce_m1666381818____mode4P21CustomAttributesCache
Kfk:_EqualityComparer_1__cctor_m416314417_gshared
Za:invoke_iiiiiiif
Sa:invoke_iiiiiiii
eYb:__ZN24RingBufferMemoryFileData16ConsumeReadBytesEy
xxe:__ZN5physx21SapPostUpdateWorkTaskD0Ev
q$a:__ZN15dense_hashtableINSt3__24pairIKNS0_12basic_stringIcNS0_11char_traitsIcEE13stl_allocatorIcL18MemLabelIdentifier54ELi16EEEEP20ArchiveStorageReaderEES8_11djb2_hash_tIS8_EN14dense_hash_mapIS8_SB_SE_NS0_8equal_toIS8_EES5_ISC_LS6_54ELi16EEE9SelectKeyESH_SI_E12maybe_shrinkEv
RCj:_Mesh_GetUVChannel_m364477864
xbj:_X509ChainElementCollection_Contains_m3599995067
Bqn:b120
KXd:__ZN5physx7NpActor18releaseConstraintsERNS_12PxRigidActorE
DDd:__ZN5physx6shdfnd5ArrayINS_11PxDebugLineENS0_19ReflectionAllocatorIS2_EEE8recreateEj
Sqn:b125
Lqn:b124
brn:b127
Tqn:b126
drn:b129
uKc:__Z52Register_UnityEngine_RectTransform_INTERNAL_get_rectv
mhk:__Z53RuntimeInvoker_Il2CppObject_Il2CppObject_Il2CppObjectPK10MethodInfoPvPS2_
Lbe:__ZNK5physx22NpParticleBaseTemplateINS_16PxParticleSystemENS_16NpParticleSystemEE20getMaxMotionDistanceEv
Ywh:_GridLayoutGroup_set_spacing_m118889422
a_g:_List_1_ToArray_m2390522926_gshared
_ti:__ZL70TypeLibImportClassAttribute_t2390314680_CustomAttributesCacheGeneratorP21CustomAttributesCache
Wta:__ZN19RenderBufferManager13GetTempBufferEii17DepthBufferFormat19RenderTextureFormatj22RenderTextureReadWrite14VRTextureUsagei
eVb:__ZN18StreamedBinaryReadILb0EE21TransferSTLStyleArrayI13dynamic_arrayI16SplashScreenLogoLj4EEEEvRT_17TransferMetaFlags
xzm:__ZNK15dense_hashtableINSt3__24pairIK10KeyWrapperINS1_IPK9FieldInfoP11Il2CppClassEEEjEES9_17ReflectionMapHashIS8_EN14dense_hash_mapIS9_jSD_19ReflectionMapEqualsIS8_ENS0_9allocatorISB_EEE9SelectKeyESG_SI_E12test_deletedERK24dense_hashtable_iteratorISB_S9_SD_SK_SG_SI_E
Dde:__ZNK5physx14NpRigidDynamic25getContactReportThresholdEv
sfg:_Single_CompareTo_m2081476257
lSf:_Array_InternalArray__ICollection_Remove_TisX509ChainStatus_t4278378721_m4127982424_gshared
OBc:__Z47Register_UnityEngine_Camera_get_allCamerasCountv
pNc:__Z56Register_UnityEngine_RenderTexture_set_enableRandomWritev
W7d:__ZN5physx22NpParticleBaseTemplateINS_15PxParticleFluidENS_15NpParticleFluidEE16releaseParticlesEv
sOl:_ScrollRect_OnRectTransformDimensionsChange_m3940143462
wfd:__ZN14b2CapsuleShapeD2Ev
ctf:__ZN22BaseUnityConnectClient20StartEventDispatcherEv
Hsc:__ZNSt3__26vectorIj13stl_allocatorIjL18MemLabelIdentifier1ELi16EEE6assignIPKtEENS_9enable_ifIXaasr21__is_forward_iteratorIT_EE5valuesr16is_constructibleIjNS_15iterator_traitsIS9_E9referenceEEE5valueEvE4typeES9_S9_
_M:__ZN7mecanim9animation16EvaluateAvatarIKEPKNS0_14AvatarConstantEPKNS0_11AvatarInputEPNS0_12AvatarOutputEPNS0_12AvatarMemoryEPNS0_15AvatarWorkspaceEb
fL:__ZN26AnimatorControllerPlayable10GetIntegerEiRi
mob:__Z29StdTemplateConversionFunctionIsiEbPvR14SafeBinaryRead
AGe:__Z22updateIslandsToProcessRKN5physx2Cm10BitMapBaseINS_6shdfnd9AllocatorEEEPKjRKNS_11NodeManagerERS4_
Oek:_EqualityComparer_1_System_Collections_IEqualityComparer_Equals_m3376587337_gshared
qoi:__ZL68Type_t_CustomAttributesCacheGenerator_Type_GetConstructor_m835344477P21CustomAttributesCache
I3a:__ZN12InputManager13InputEndFrameEv
Oxg:_SyncHashtable__ctor_m2029869827
avm:__ZNSt3__26__treeIP11Il2CppClassNS_4lessIS2_EENS_9allocatorIS2_EEE25__emplace_unique_key_argsIS2_JRKS2_EEENS_4pairINS_15__tree_iteratorIS2_PNS_11__tree_nodeIS2_PvEEiEEbEERKT_DpOT0_
wZl:_Shader_EnableKeyword_m432694866
YDm:__ZN15dense_hashtableINSt3__24pairIK10KeyWrapperINS1_IPK9FieldInfoP11Il2CppClassEEEjEES9_17ReflectionMapHashIS8_EN14dense_hash_mapIS9_jSD_19ReflectionMapEqualsIS8_ENS0_9allocatorISB_EEE9SelectKeyESG_SI_EC2EjRKSD_RKSG_RKSK_
OEm:__ZN6il2cpp2vm6Thread5SetupEP12Il2CppThread
bTe:__ZN8Collider30GetRelativePositionAndRotationERK9TransformR10Matrix4x4f
gwl:_Playables_SetPlayStateValidated_m770460097
due:__ZN5physx35PxcSweepEstimateAnyShapeHeightfieldERKNS_11PxsCCDShapeES2_PKNS_12PxsRigidBodyES5_RKNS_11PxTransformES8_f
lih:_ReadOnlyCollection_1_System_Collections_IList_Remove_m2200089035_gshared
YDd:__ZN5physx3Cct13BoxControllerC2ERKNS_16PxControllerDescERNS_9PxPhysicsEPNS_7PxSceneE
B4g:_Collection_1_CheckWritable_m2756357359_gshared
$qj:_GeometryUtility_INTERNAL_CALL_Internal_ExtractPlanes_m3275443675
s5m:___munmap
rzh:_InputField_get_characterLimit_m2386380888
nSi:__ZL68ColorBlock_t2652774230_CustomAttributesCacheGenerator_m_PressedColorP21CustomAttributesCache
NCg:_Convert_ToInt64_m1722087499
meb:__ZN22RenderingCommandBuffer24PostExecuteCommandBufferER17ShaderPassContextP13RenderTexture
gh:_localtime_r
X8a:__ZN22RenderingCommandBuffer13GetAndCheckRTE24BuiltinRenderTextureTypeRKN9ShaderLab16FastPropertyNameEPKcPP13RenderTexture
Dvk:__Z80RuntimeInvoker_Il2CppObject_Ray_t2469606224_Single_t2076509932_Int32_t2071877448PK10MethodInfoPvPS2_
Wzi:__ZL81AppDomain_t2719102437_CustomAttributesCacheGenerator_assembly_resolve_in_progressP21CustomAttributesCache
p4:__ZN4FMOD5Sound11getDefaultsEPfS1_S1_Pi
Mti:__ZL65InterfaceTypeAttribute_t4113096249_CustomAttributesCacheGeneratorP21CustomAttributesCache
Ulj:_CallbackHandler_EndInvoke_m2406225629
jh:_strftime
fua:__ZN7Texture33SetStoredColorSpaceNoDirtyNoApplyE17TextureColorSpace
pfa:__ZN12FileAccessorD2Ev
Jza:__ZN10ColorRGBAf8TransferI18StreamedBinaryReadILb0EEEEvRT_
ANb:__ZN14VertexDataInfoC2Ev
mMg:_Exception_GetObjectData_m2653827630
f3l:_Vector3_Equals_m2692262876_AdjustorThunk
k4l:_WheelCollider_set_forwardFriction_m341901949
_7k:_InternalEnumerator_1_get_Current_m2415979394_gshared
Vfi:_TlsClientHello_Update_m1723542631
x9b:__ZL17Transfer_GUIStyleI18StreamedBinaryReadILb1EELb1EEvRK29SerializationCommandArgumentsR31RuntimeSerializationCommandInfo
A1c:__ZNSt3__227__insertion_sort_incompleteIR31SortCollisionEventsByGameObjectP22ParticleCollisionEventEEbT0_S5_T_
oNl:_ScrollRect_SetDirtyCaching_m1491302821
vvm:__ZN6il2cpp6icalls8mscorlib6SystemL9IsPrivateEPK12PropertyInfo
jue:__ZNK5physx18PxcConvexTriangles16getPolygonNormalEj
NLj:_CustomAttributeData_GetCustomAttributes_m3258419955
FQk:_AutoMobileShaderSwitch__ctor_m2043571179
Bia:__ZN9shadertag10InitializeEv
N_e:__ZN5physx24NpPtrTableStorageManager8canReuseEjj
vjg:_EncoderFallback__ctor_m1639180960
Hfl:_InternalEnumerator_1_MoveNext_m1441038493_gshared
LJb:__ZN15QualitySettings14QualitySetting8TransferI24GenerateTypeTreeTransferEEvRT_
gTk:_WaypointProgressTracker_get_progressPoint_m2040792476
XYf:_Array_InternalArray__ICollection_CopyTo_TisParameterModifier_t1820634920_m4127516211_gshared
reg:_DecoderReplacementFallback__ctor_m2344783488
B5j:_Enumerator_System_Collections_IDictionaryEnumerator_get_Key_m467957770_AdjustorThunk
tie:__ZN5physx2Sc27ConstraintProjectionManager33processConstraintForGroupBuildingEPNS0_13ConstraintSimERNS0_20ScratchAllocatorListIS3_Lj64EEE
h3i:__ZL74CarController_t563615006_CustomAttributesCacheGenerator_adjustCentreOfMassP21CustomAttributesCache
lE:__ZN17AnimationCurveTplI8Vector3fE8TransferI18StreamedBinaryReadILb1EEEEvRT_
UXe:__ZN5Unity11SpringJoint5ResetEv
Avh:_GraphicRegistry_UnregisterGraphicForCanvas_m820096873
Pkf:__Z28Font_Get_Custom_PropMaterialP12Il2CppObject
L_m:__ZN6il2cpp6icalls8mscorlib6System9Threading16NativeEventCalls19ResetEvent_internalE12Il2CppIntPtr
bQi:__ZL65EventTrigger_t1967201810_CustomAttributesCacheGenerator_delegatesP21CustomAttributesCache
S5g:_Collection_1_Remove_m4136193368_gshared
OCg:_Decimal__ctor_m1770144563
Rlh:_EventTrigger_OnPointerUp_m2791622548
APl:_Shadow_set_useGraphicAlpha_m141905402
vrc:__ZN22BlockMemoryCacheWriter14LockCacheBlockEjPPhS1_
cUm:__ZN6il2cpp2os6Thread10RunWrapperEPv
NQc:__ZNSt3__218__insertion_sort_3IRPFbPKN5IMGUI9GUIWindowES4_EPPS2_EEvT0_SA_T_
M$k:_UInt16_ToString_m2038947049
Gdm:_GenericEqualityComparer_1_Equals_m1109000020_gshared
Jae:__ZN5physx22NpParticleBaseTemplateINS_15PxParticleFluidENS_15NpParticleFluidEED2Ev
hij:_RealProxy_InternalGetTransparentProxy_m3415358600
yge:__ZN5physx2Cm29ConstraintImmediateVisualizer19visualizeDoubleConeERKNS_11PxTransformEfb
ZVc:__Z22TransferField_NonArrayI8JSONRead27Converter_SimpleNativeClassI8GUIStyleEEvRK23StaticTransferFieldInfoR31RuntimeSerializationCommandInfoRT0_
Ezm:__ZN15dense_hashtableINSt3__24pairIK10KeyWrapperIPK10Il2CppTypeEjEES6_N6il2cpp8metadata14Il2CppTypeHashEN14dense_hash_mapIS6_jSB_NSA_17Il2CppTypeCompareENS0_9allocatorIS8_EEE9SelectKeyESD_SF_E12resize_deltaEjj
qrd:__ZN5physx6shdfnd5ArrayINS_13PxExtendedBoxENS0_19ReflectionAllocatorIS2_EEE8recreateEj
Nze:__ZN5physx20ProcessBPResultsTask11runInternalEv
XLd:__ZN5physx6shdfnd5ArrayIPvNS0_19ReflectionAllocatorINS_2Cm5BlockIS2_Lj16EEEEEE4copyINS0_15InlineAllocatorILj256ES7_EEEEvRKNS1_IS2_T_EE
Qh:_llvm_eh_typeid_for
bpc:__Z13RegisterClassI10GameObjectEvv
Ypi:__ZL53HashValues_t2390200547_CustomAttributesCacheGeneratorP21CustomAttributesCache
NMf:__ZN5physx3Pvd17PvdPropertyFilterINS_2Sn17RepXVisitorWriterINS_21PxVehicleDriveDynDataEEEE14handleAccessorILj648ENS_22PxRepXPropertyAccessorILj648ES4_jjEEEEvjRKT0_
gaj:_X509BasicConstraintsExtension_get_PathLengthConstraint_m3004531343
zri:__ZL125GenericTypeParameterBuilder_t1370236603_CustomAttributesCacheGenerator_GenericTypeParameterBuilder_GetConstructors_m103067670P21CustomAttributesCache
$ie:__ZN5physx7NpScene19getActiveTransformsERjh
AIe:__ZN5physx6shdfnd5ArrayIPKNS_24PxsIndexedContactManagerENS0_19ReflectionAllocatorIS4_EEE8recreateEj
o6m:_calloc
NTh:_MissingMemberException__ctor_m4277447068
kWj:_StrongNameKeyPair_System_Runtime_Serialization_ISerializable_GetObjectData_m1693082120
leb:__ZNK19RenderEventsContext25PostExecuteCommandBuffersEiR17ShaderPassContextP13RenderTextureP19ProfilerInformationi
IYa:__ZN9GfxDevice14EndBufferWriteEP9GfxBufferj
Ocm:_EqualityComparer_1__ctor_m3155445483_gshared
OSm:__ZN6il2cpp2vm6Method8GetParamEPK10MethodInfoj
hLh:_Int64_CompareTo_m1953686218
dQk:_Clouds__ctor_m3015497236
bdm:_GenericComparer_1__ctor_m221205314_gshared
V2f:_BaseInvokableCall_ThrowOnInvalidArg_TisSingle_t2076509932_m3470174535_gshared
hOk:_DepthOfField34_AllocateTextures_m2607182213
iBc:__Z45Register_UnityEngine_Camera_set_renderingPathv
atn:_glBindVertexArray__wrapper
IRe:__ZN5physx6shdfnd5ArrayINS_11RTreeNodeNQENS0_19ReflectionAllocatorIS2_EEE19resizeUninitializedEj
JId:__ZNK5physx2Sc16InteractionScene18getLLIslandManagerEv
fpj:_DSA_Create_m3450041777
Iya:__ZN8Material8TransferI14SafeBinaryReadEEvRT_
Ite:__ZN5physx17PxcNpMemBlockPool34acquireExceptionalConstraintMemoryEj
DEb:__ZN12CubemapArray17UploadToGfxDeviceEv
$0k:_UInt64_System_IConvertible_ToInt32_m930227577
qQg:_Enumerator_System_Collections_IEnumerator_Reset_m2200349770_gshared
mah:_Collection_1_get_Item_m3791221403_gshared
mxi:__ZL54PaddingMode_t3032142640_CustomAttributesCacheGeneratorP21CustomAttributesCache
wGk:__Z75RuntimeInvoker_Void_t1841601450_ConstraintU26_t2775779428_Int32_t2071877448PK10MethodInfoPvPS2_
Uue:__ZN5physxL23PxcSweepConvexTrianglesERKNS_11PxsCCDShapeES2_RKNS_11PxTransformES5_S5_S5_fRNS_6PxVec3ES7_RNS_10PxcNpCacheERNS_18PxcNpThreadContextERKNS_2Cm23FastVertex2ShapeScalingERNS_2Gu9TriangleVEf
s1d:__ZNK5physx7NpShape16getPlaneGeometryERNS_15PxPlaneGeometryE
Vaj:_X509Chain_CheckRevocationOnChain_m2441901351
Fag:_SymmetricAlgorithm_CreateDecryptor_m4240570785
SRe:__ZN5physx27InternalTriangleMeshBuilder14fillRemapTableEv
PZ:__ZN11AudioSource4StopEb
iQd:__ZN5physx6shdfnd8PoolBaseINS_13NpRigidStaticENS0_19ReflectionAllocatorIS2_EEE17releaseEmptySlabsEv
h1b:__ZN14SafeBinaryRead21TransferSTLStyleArrayI13dynamic_arrayI10Matrix4x4fLj4EEEEvRT_17TransferMetaFlags
rah:_Collection_1_CheckWritable_m732350052_gshared
cqg:_Byte_System_IConvertible_ToDecimal_m1036493607
Mzi:__ZL47Timer_t791717973_CustomAttributesCacheGeneratorP21CustomAttributesCache
ata:__Z25GetSplashScreenBackgroundRK5RectTIfE
f6k:_InternalEnumerator_1_System_Collections_IEnumerator_get_Current_m1679297177_gshared
tTi:__ZL65Image_t2042527209_CustomAttributesCacheGenerator_m_PreserveAspectP21CustomAttributesCache
ptj:_GUIContent__ctor_m3889310883
agl:_DefaultComparer_Compare_m1247109616_gshared
zWj:_ResourceManager__ctor_m498829021
TXa:__ZN18GlslGpuProgramGLESD2Ev
DZe:__ZThn116_NK5physx7profile8ZoneImplINS_28PxProfileNameProviderForwardEE10hasClientsEv
bDe:__ZN5physx2Gu20pcmContactCapsuleBoxERKNS0_13GeometryUnionES3_RKNS_11PxTransformES6_RKfRNS0_5CacheERNS0_13ContactBufferE
llj:_SerializationCallbacks__ctor_m722356782
SVc:__ZN10Matrix4x4f8TransferI8JSONReadEEvRT_
Rmc:__ZN22GenericPropertyBinding8RegisterEPKc11ClassIDTypePFfPvEPFvS3_fE
qma:__ZN14dense_hash_mapIPKcPK4RTTIN11TypeManager23ConstCharPtrHashFunctorENS5_19ConstCharPtrEqualToE13stl_allocatorINSt3__24pairIKS1_S4_EEL18MemLabelIdentifier6ELi16EEE5beginEv
Bjh:_Comparison_1_Invoke_m2255009434_gshared
GJg:_StackTrace__ctor_m772333217
kNk:__Z93RuntimeInvoker_Il2CppObject_Vector2_t2243707579_Vector2_t2243707579_Il2CppObject_Il2CppObjectPK10MethodInfoPvPS2_
mka:__ZN17PersistentManager18ReadObjectThreadedEi
_Oa:__ZN25TransformFeedbackSkinning31CleanupTransformFeedbackShadersEv
KZm:__ZN6il2cpp6icalls8mscorlib6System7Runtime16CompilerServices14RuntimeHelpers15InitializeArrayEP11Il2CppArray12Il2CppIntPtr
x9k:_InternalEnumerator_1_System_Collections_IEnumerator_get_Current_m2851415307_gshared
HXl:_Rigidbody_get_drag_m1954609103
n7e:__ZNK20TextRenderingPrivate8FontImpl19GetCharacterAdvanceEjijfPj
O0m:__ZN6il2cpp6icalls8mscorlib4Mono8Security12Cryptography18KeyPairPersistence16_IsUserProtectedEP12Il2CppString
phi:__ZN16VirtFuncInvoker1IP28HandshakeMessage_t3938752374hE6InvokeEjPvh
hgh:_ReadOnlyCollection_1_Contains_m3936562733_gshared
aEc:__Z32Gizmos_CUSTOM_INTERNAL_set_colorRK10ColorRGBAf
mNj:_DerivedType_GetField_m3960169619
DHg:_Decimal_System_IConvertible_ToInt16_m3159038792_AdjustorThunk
XOb:__ZN10VertexData8TransferI18StreamedBinaryReadILb0EEEEvRT_
YPd:__ZN5physx2Sc5Scene9addStaticERNS0_10StaticCoreEPKPvjj
Kyc:__Z39DeleteLastPathNameComponentWithAnySlashRKNSt3__212basic_stringIcNS_11char_traitsIcEENS_9allocatorIcEEEE
I3h:_PKCS12_GetExistingParameters_m2413397265
lfm:_Nullable_1_get_Value_m1743067844_gshared
F8g:_Collection_1_ClearItems_m4268731177_gshared
aV:__ZN6Avatar8TransferI19StreamedBinaryWriteILb0EEEEvRT_
jmb:__ZN14PreloadManager16UpdatePreloadingEv
Rxb:__ZN12BaseRendererD2Ev
y5c:__ZN11NoiseModule8TransferI14SafeBinaryReadEEvRT_
obn:__ZNKSt3__210moneypunctIcLb1EE16do_thousands_sepEv
qRg:_Enumerator__ctor_m425576865_AdjustorThunk
Ipe:__ZN5physx2Sc5Scene9addShapesEPKPvjjRNS0_8RigidSimEPNS_12PxsRigidBodyERPNS0_8ShapeSimEPNS_9PxBounds3E
Slk:__Z148RuntimeInvoker_Int32_t2071877448_Il2CppObject_Int32_t2071877448_Int32_t2071877448_Il2CppObject_Int32_t2071877448_Int32_t2071877448_Int32_t2071877448PK10MethodInfoPvPS2_
iXf:_Mesh_SafeLength_TisColor32_t874517518_m2265151750_gshared
iih:_ReadOnlyCollection_1_System_Collections_IList_Contains_m1545447998_gshared
__j:_AICharacterControl_get_agent_m183353036
OWi:__ZL79LayoutRebuilder_t2155218138_CustomAttributesCacheGenerator_U3CU3Ef__mgU24cache0P21CustomAttributesCache
vbm:_U3CStartU3Ec__Iterator0_System_Collections_Generic_IEnumeratorU3CobjectU3E_get_Current_m1769435259
TBe:__ZN5physx23PxcPCMContactConvexMeshERKNS_2Gu13GeometryUnionES3_RKNS_11PxTransformES6_RKfRNS_10PxcNpCacheERNS0_13ContactBufferE
z$i:__ZL124U3CGenerateCloudsU3Ec__Iterator0_t70719294_CustomAttributesCacheGenerator_U3CGenerateCloudsU3Ec__Iterator0_Reset_m4115385476P21CustomAttributesCache
crb:__ZNK21UnityDefaultAllocatorI17LowLevelAllocatorE8ContainsEPKv
rtm:__ZNSt3__213__vector_baseI6pollfdNS_9allocatorIS1_EEED2Ev
kei:_ClientSessionInfo_get_Id_m3046630969
Zi:_emscripten_get_main_loop_timing
DNh:_DirectoryInfo__ctor_m3750996792
lqh:_BaseMeshEffect_ModifyMesh_m2134816219
m0f:_Array_qsort_TisVector2_t2243707579_m3527759534_gshared
KJb:__ZN24GenerateTypeTreeTransfer21TransferSTLStyleArrayINSt3__26vectorIN15QualitySettings14QualitySettingENS1_9allocatorIS4_EEEEEEvRT_17TransferMetaFlags
cSb:__ZNSt3__26vectorI14SubstanceInputNS_9allocatorIS1_EEE8__appendEj
xXl:_ResourceRequest_t2560315377_marshal_pinvoke_cleanup
l_g:_List_1_System_Collections_Generic_IEnumerableU3CTU3E_GetEnumerator_m166627113_gshared
qTb:__ZNSt3__26vectorI9InputAxisNS_9allocatorIS1_EEE6resizeEj
icg:_SecurityElement_IsValidAttributeValue_m483287146
Vig:_Decoder_set_Fallback_m1780632169
a5c:__ZNK15PolynomialCurve18EvaluateIntegratedERKN4math7_float4E
qr:getTempRet0
h4c:__ZN26SizeModulePropertyBindings13GetFloatValueERK14ParticleSystemi
Apc:__Z15ClearWithSkyboxbPK6Camera
cLj:_AssemblyTitleAttribute__ctor_m1696431446
Dyh:_Image_AddQuad_m1603575622
xai:_PrivateKeyInfo_RemoveLeadingZero_m3396807048
Zbh:_ReadOnlyCollection_1_System_Collections_Generic_ICollectionU3CTU3E_get_IsReadOnly_m1251192075_gshared
u5h:__ZThn4_N6il2cpp2vm13ComObjectBaseI34__Il2CppComDelegate_t3311706788CCW18Il2CppIInspectableNS0_7details6ComNilES5_S5_S5_S5_S5_S5_E7ReleaseEv
SSg:_List_1_GrowIfNeeded_m185971996_gshared
AIm:__ZN6il2cpp6icalls8mscorlib6System9ThreadingL21lookup_cached_cultureEP12Il2CppThreadi
iZk:__ZN16VirtFuncInvoker1IP24DaylightTime_t3800227331iE6InvokeEjPvi
Fgb:__ZN18DeferredRenderLoopD2Ev
_5g:_Collection_1_ConvertItem_m2972284337_gshared
tPj:_GenericTypeParameterBuilder_GetMethods_m1243855818
fna:__ZNK16TypeTreeIterator4NameEv
Oea:__ZN15FileSystemEntry3SetEPKc
WIe:__ZN5physx6shdfnd5ArrayIPNS_13PxcNpMemBlockENS0_19ReflectionAllocatorIS3_EEE6resizeEjRKS3_
gfl:_InternalEnumerator_1__ctor_m2808001655_gshared
V5f:_MACTripleDES__ctor_m884945242
Hde:__ZN5physx14NpRigidDynamic8requiresERNS_23PxProcessPxBaseCallbackE
v3i:__ZL92CarController_t563615006_CustomAttributesCacheGenerator_CarController_set_GearNum_m798945445P21CustomAttributesCache
x$:__ZN20SoundChannelInstance15ParameterBuffer5ApplyEPN4FMOD7ChannelE
eim:__ZL24UnresolvedVirtualCall_52P12Il2CppObjectPK10MethodInfo
hQb:__ZN23SharedMeshRenderingDataD0Ev
k7e:__ZN20TextRenderingPrivate19NativeTextGenerator9InsertTabEv
Kmi:__ZL73Enum_t2459695545_CustomAttributesCacheGenerator_Enum_ToObject_m1688724857P21CustomAttributesCache
Stj:_Rect_set_y_m4294916608
w$j:_ThirdPersonCharacter_BlendLookWeight_m2642614356
Fqm:__ZN15dense_hashtableINSt3__24pairIK10KeyWrapperI13dynamic_arrayIPK10Il2CppTypeLj4EEEPFvvEEES8_N6il2cpp8metadata19Il2CppSignatureHashEN14dense_hash_mapIS8_SB_SF_NSE_22Il2CppSignatureCompareENS0_9allocatorISC_EEE9SelectKeyESH_SJ_E16reset_thresholdsEv
jZe:__ZN5physx7profile8ZoneImplINS_28PxProfileNameProviderForwardEE21setProfileZoneManagerEPNS_20PxProfileZoneManagerE
ptf:__ZN11UnityEngine15PlatformWrapper24GetRuntimePlatformStringEv
Hj:_glIsEnabled
Hbc:__ZN15CacheWriterBaseD2Ev
yBd:__ZN5physx3Cct17CapsuleController15setFootPositionERKNS_14PxExtendedVec3E
Wyd:__ZN5physx2Gu33PCMCapsuleVsMeshContactGeneration13generateEEMTDERKNS_6shdfnd3aos5Vec3VES6_RKNS3_6FloatVES6_jS6_S6_PNS0_21MeshPersistentContactERj
FZd:__ZN18MultiQueryCallbackIN5physx10PxSweepHitEED0Ev
cOf:__ZN5physx3Pvd17PvdPropertyFilterINS_2Sn17RepXVisitorWriterINS_16PxVehicleDrive4WEEEE14handleAccessorILj678ENS_22PxRepXPropertyAccessorILj678ES4_NS_23PxVehicleDriveSimData4WES9_EEEEvRKT0_
jBg:_Convert_ToDateTime_m1251728572
bdd:__ZN8UVModuleD0Ev
Lj:_emscripten_glDrawElementsInstanced
y5g:_Collection_1_System_Collections_IList_IndexOf_m51140022_gshared
Y8h:_ARC4Managed_Dispose_m4102232694
xVe:__ZN5Unity5Joint17JointTransferPostI18StreamedBinaryReadILb1EEEEvRT_
q9h:_HMAC_Initialize_m3052649104
mlb:__ZN18JobBatchDispatcherD2Ev
YJb:__ZN9Transform17MainThreadCleanupEv
AYm:_GC_clear_hdr_marks
pkm:__ZL25UnresolvedVirtualCall_171P12Il2CppObject19Vector3_t2243707580S1_PK10MethodInfo
Xtn:_emscripten_glCreateShader__wrapper
fzh:_InputField_get_caretSelectPositionInternal_m3523572533
egf:_cff_fd_select_get
Lun:b180
rti:__ZL73CompilationRelaxationsAttribute_t238494011_CustomAttributesCacheGeneratorP21CustomAttributesCache
CJk:__Z74RuntimeInvoker_Void_t1841601450_Int32_t2071877448_KeyValuePair_2_t38854645PK10MethodInfoPvPS2_
CW:__Z13RegisterClassI18AnimatorControllerEvv
G6a:__ZL54CombineLocalShadowCasterCullignIndexListsAndDestroyJobP25LocalShadowCullingJobData
NQk:_CameraRefocus__ctor_m97414129
ERl:_Text_get_minHeight_m1562513104
dag:_SHA512Managed_processBlock_m3220567420
G5i:_NameObjectCollectionBase_get_Keys_m446053925
Vj:_emscripten_glGetShaderiv
M6j:_Transform_1__ctor_m353209818_gshared
F2a:__ZZ23InitPlayerLoopCallbacksvEN41EarlyUpdateUpdateAllUnityWebStreamsstruct7ForwardEv
z0:__ZN4FMOD6System10getVersionEPj
RJe:__ZN5physx2Sc7BodySim10sleepCheckEffb
hDm:__ZN15dense_hashtableINSt3__24pairIK10KeyWrapperIPK10Il2CppTypeEjEES6_N6il2cpp8metadata14Il2CppTypeHashEN14dense_hash_mapIS6_jSB_NSA_17Il2CppTypeCompareENS0_9allocatorIS8_EEE9SelectKeyESD_SF_E15set_deleted_keyERKS8_
pjc:__ZN5Unity9Component7PRODUCEE18MemLabelIdentifier18ObjectCreationMode
UNi:__ZL96RemoteSettings_t392466225_CustomAttributesCacheGenerator_RemoteSettings_CallOnUpdate_m1624968574P21CustomAttributesCache
BWf:_Array_InternalArray__IndexOf_TisSByte_t454417549_m1427585061_gshared
pik:__Z75RuntimeInvoker_Byte_t3683104436_Il2CppObject_Int32_t2071877448_Il2CppObjectPK10MethodInfoPvPS2_
xlf:__ZN2UI6Canvas23VirtualRedirectTransferER24GenerateTypeTreeTransfer
Uzg:_Decimal_u64_m3991988111
B4l:_YieldInstruction_t3462875981_marshal_pinvoke
Nfm:_Predicate_1_BeginInvoke_m2959352225_gshared
Wbk:_Dictionary_2_CopyToCheck_m2147716750_gshared
uTl:_X509Certificate_Parse_m1764345628
jCl:_SynchronizationAttribute_GetClientContextSink_m1264319894
I5e:__ZN13TextRendering4Font13AwakeFromLoadE17AwakeFromLoadMode
dWk:__ZN16VirtFuncInvoker0I8IntPtr_tE6InvokeEjPv
Duf:__ZThn564_N18UnityConnectClient18OnAdsIdRequestDoneERK8UnityStrbS2_
dMa:__ZN9GfxDevice21ReleaseSharedMeshDataEP14SharedMeshData
Z4h:_SmallXmlParser_Peek_m2814840810
Ybm:_Water_OnDisable_m2299452021
apl:_CanvasRenderer_get_absoluteDepth_m4243141
jUb:__ZNSt3__27__sort5IRNS_6__lessINS_4pairIPKN5Unity4TypeE7Hash128EES8_EEPS8_EEjT0_SC_SC_SC_SC_T_
myg:_Enumerator_Reset_m466659019
X5m:_vprintf
H6l:_UnityAction_1_EndInvoke_m2822290096_gshared
xPm:__ZNK15dense_hashtableINSt3__24pairIK10KeyWrapperIP12Il2CppObjectEN6il2cpp2gc9CachedCCWEEES5_NS7_5utils11PointerHashIS3_EEN14dense_hash_mapIS5_S9_SD_NS0_8equal_toIS5_EENS0_9allocatorISA_EEE9SelectKeyESG_SI_E10test_emptyEj
HXm:_GC_unreachable_finalize_mark_proc
_Hl:_BalancingGroup_set_Balance_m3452171919
YV:__ZZN8Animator15InitializeClassEvEN31FunctorImpl_389kDidDeleteMotion4CallEPviR11MessageData
eh:___syscall192
D6g:_Collection_1_RemoveItem_m3987135770_gshared
dZm:_maybe_finalize
h3l:_Vector3_Normalize_m3679112426_AdjustorThunk
hwf:__ZN20HardwareInfoReporter18ReportHardwareInfoEv
mKc:__Z43RectTransform_CUSTOM_INTERNAL_get_anchorMaxP12Il2CppObjectP13Vector2fIcall
XLa:__ZN9GfxDevice38ScheduleDynamicVBOGeometryJobsInternalEPFvP25DynamicVBOGeometryJobDatajEPFvS1_ES1_j16GfxPrimitiveTypeP21DynamicVBOChunkHandle
JWl:_Renderer_INTERNAL_get_bounds_m1299274192
_ng:__ZN16VirtFuncInvoker2IbP6Type_tbE6InvokeEjPvS1_b
uya:__ZN8Material28UpdateHashesOnPropertyChangeEN9ShaderLab16FastPropertyNameE
ILc:__Z53Register_UnityEngine_SortingLayer_GetLayerValueFromIDv
zob:__Z29StdTemplateConversionFunctionIhhEbPvR14SafeBinaryRead
Dgk:_EqualityComparer_1_System_Collections_IEqualityComparer_Equals_m349194518_gshared
tvg:_CaseInsensitiveComparer_Compare_m1192858479
P$b:__Z18Transfer_BlittableI14SafeBinaryReadLb1E8Vector4fEvRK29SerializationCommandArgumentsR31RuntimeSerializationCommandInfo
RQh:_StreamAsyncResult_set_Done_m4272090534
XCh:_LayoutRebuilder_Clear_m2390054824
I7g:_Collection_1_System_Collections_IList_Insert_m2968289909_gshared
xLj:_Default_SelectMethod_m622251293
I2:__ZN11AudioSource12AddToManagerEv
QG:__ZN8Animator23VirtualRedirectTransferER19StreamedBinaryWriteILb0EE
aYj:_LightShafts_RenderQuad_m3378111063
uMm:__ZN6il2cpp2vm5Image13ClassFromNameEPK11Il2CppImagePKcS6_
Kin:dynCall_vdddddd
Qec:__ZN24GenerateTypeTreeTransfer21TransferSTLStyleArrayINSt3__26vectorIN9ShaderLab14SerializedPassENS1_9allocatorIS4_EEEEEEvRT_17TransferMetaFlags
oMd:__ZN5physx6shdfnd8internal8HashBaseIPNS_2Sc13ConstraintSimES5_NS0_4HashIS5_EENS1_11HashSetBaseIS5_S7_NS0_9AllocatorELb1EE6GetKeyES9_Lb1EE6createERKS5_Rb
jja:__ZL32MarkLevelGameManagerDependenciesR27GarbageCollectorThreadState
W9l:_BallUserControl_FixedUpdate_m2602978575
Ntk:__Z49RuntimeInvoker_Void_t1841601450_UInt16_t986882611PK10MethodInfoPvPS2_
jOa:__ZNK13GfxDeviceGLES26HasActiveRandomWriteTargetEv
DEm:__GLOBAL__sub_I_Thread_cpp
yLk:__Z37RuntimeInvoker_ILTokenInfo_t149559338PK10MethodInfoPvPS2_
dXl:_RenderTexture_set_height_m1787187
dUd:__ZNK5physx15NpActorTemplateINS_18PxArticulationLinkEE7getNameEv
yon:_glGetActiveUniformsiv__wrapper
UDf:__Z40setPxVehicleWheelDataMMaxHandBrakeTorquePN5physx18PxVehicleWheelDataEf
ENk:__Z50RuntimeInvoker_Il2CppObject_ColorTween_t3438117476PK10MethodInfoPvPS2_
Uqd:__ZNK5physx3Cct10Controller16getInternalStateERNS_17PxControllerStateE
Jjm:__ZL25UnresolvedVirtualCall_137P12Il2CppObject17Color_t2020392075faaPK10MethodInfo
BNc:__Z34Time_Set_Custom_PropFixedDeltaTimef
zB:__Z20AnimationEventToMonoRK14AnimationEventR18MonoAnimationEvent
_uk:__Z83RuntimeInvoker_Void_t1841601450_Il2CppObject_Il2CppObject_Il2CppObject_Il2CppObjectPK10MethodInfoPvPS2_
_ja:__ZNK15dense_hashtableINSt3__24pairIKiiEEi21InstanceIDHashFunctorN14dense_hash_mapIiiS4_NS0_8equal_toIiEE13stl_allocatorIS3_L18MemLabelIdentifier1ELi16EEE9SelectKeyES7_SA_E13find_positionERS2_
NJf:__Z35getPxVehicleDriveSimData_EngineDataPKN5physx21PxVehicleDriveSimDataE
sEh:_Navigation_get_selectOnLeft_m3980387574_AdjustorThunk
esl:_CustomYieldInstruction_get_Current_m1743233962
zOm:__ZN30dense_hashtable_const_iteratorI10KeyWrapperIP18Il2CppGenericClassES3_N6il2cpp8metadata22Il2CppGenericClassHashEN14dense_hash_setIS3_S6_NS5_25Il2CppGenericClassCompareENSt3__29allocatorIS3_EEE8IdentityES8_SB_E30advance_past_empty_and_deletedEv
Ioe:__ZN5physx10PxsContext15setScratchBlockEPvj
gPi:__ZL74UnityEventBase_t828812576_CustomAttributesCacheGenerator_m_PersistentCallsP21CustomAttributesCache
Cck:_DefaultComparer__ctor_m2265472997_gshared
Kvl:_CustomAnimationPlayable_op_Implicit_m3677069457
UQb:__ZN4PPtrI6SpriteE8TransferI14SafeBinaryReadEEvRT_
lHd:__ZN5physx2Cm27getDynamicGlobalPoseAlignedERKNS_11PxTransformES3_S3_RS1_
tw:__ZN15NavMeshSettings13AwakeFromLoadE17AwakeFromLoadMode
lok:__Z45RuntimeInvoker_Il2CppObject_IntPtr_t_IntPtr_tPK10MethodInfoPvPS2_
Udc:__ZNSt3__26vectorIN9ShaderLab14SerializedPassENS_9allocatorIS2_EEE8__appendEj
zPe:__ZN5physx6shdfnd5ArrayIPvNS0_19ReflectionAllocatorIN17PxcPoolMallocData10PoolData32EEEE15growAndPushBackERKS2_
Fkn:dynCall_viiififfii
Mei:_Context_get_SupportedCiphers_m2172827298
yid:__ZN12b2WheelJoint24SolveVelocityConstraintsERK12b2SolverData
Hkm:__ZL25UnresolvedVirtualCall_189P12Il2CppObject19DateTime_t693205669S1_PK10MethodInfo
$lk:__Z170RuntimeInvoker_Int32_t2071877448_Il2CppObject_Int32_t2071877448_Int32_t2071877448_Il2CppObject_Int16_t4041245914_Int32_t2071877448_SByte_t454417549_ContextU26_t3131521781PK10MethodInfoPvPS2_
_Fb:__ZN9Texture2D23VirtualRedirectTransferER18StreamedBinaryReadILb0EE
Ikd:__ZN10Collider2D8TransferI24GenerateTypeTreeTransferEEvRT_
eeg:__ZN16VirtFuncInvoker0IP23CompareInfo_t2310920157E6InvokeEjPv
pKg:_Double_System_IConvertible_ToUInt16_m286326038_AdjustorThunk
djj:_TypeInfo__ctor_m1475908211
yxb:__ZNSt3__26__treeINS_12__value_typeIN4core12basic_stringIcNS2_20StringStorageDefaultIcEEEEjEENS_19__map_value_compareIS6_S7_NS_4lessIS6_EELb1EEE13stl_allocatorIS7_L18MemLabelIdentifier6ELi16EEE7destroyEPNS_11__tree_nodeIS7_PvEE
Waj:_X509Chain_WrapUp_m1072032285
QUl:_X509CertificateEnumerator_System_Collections_IEnumerator_MoveNext_m1448966539
gdf:_get_sfnt_table
R4f:_Object_FindObjectOfType_TisIl2CppObject_m2967490724_gshared
o5g:_Collection_1_IsSynchronized_m3261594010_gshared
L4a:_unity_z_tr_stored_block
xhk:__Z46RuntimeInvoker_Single_t2076509932_Il2CppObjectPK10MethodInfoPvPS2_
Meg:_SecuritySafeCriticalAttribute__ctor_m2508714287
Vqm:__ZN13dynamic_arrayIPK10Il2CppTypeLj4EE10reallocateEPS2_j
Pic:__Z13RegisterClassI5LightEvv
_Uf:_Array_compare_TisIl2CppObject_m1481822507_gshared
E$e:__ZN5physx2Gu20registerHeightFieldsEv
Lra:__ZN15dense_hashtableINSt3__24pairIKNS0_12basic_stringIcNS0_11char_traitsIcEE13stl_allocatorIcL18MemLabelIdentifier54ELi16EEEEP11AssetBundleEES8_11djb2_hash_tIS8_EN14dense_hash_mapIS8_SB_SE_NS0_8equal_toIS8_EENS0_9allocatorISC_EEE9SelectKeyESH_SJ_E13set_empty_keyERKSC_
Poj:_DES_get_Key_m2584608215
p7a:__ZL22ScheduleSceneNodesJobsP25ScheduleSceneNodesJobDataj
jOm:__ZN15dense_hashtableI10KeyWrapperIP18Il2CppGenericClassES3_N6il2cpp8metadata22Il2CppGenericClassHashEN14dense_hash_setIS3_S6_NS5_25Il2CppGenericClassCompareENSt3__29allocatorIS3_EEE8IdentityES8_SB_ED2Ev
lxe:__ZN5physx22concludeContactCoulombERKNS_23PxcSolverConstraintDescERNS_16PxcSolverContextE
Ll:_emscripten_set_canvas_size
Ini:__ZL65Il2CppArray_CustomAttributesCacheGenerator_Array_Sort_m3645766612P21CustomAttributesCache
T8i:_AsnEncodedData__ctor_m1611830939
F8d:__ZNK5physx15NpParticleFluid12getStiffnessEv
Lwg:_Hashtable__ctor_m741952536
Cdc:__ZNSt3__26vectorIN9ShaderLab20SerializedSubProgramENS_9allocatorIS2_EEE8__appendEj
hca:__ZN20DynamicHeapAllocatorI17LowLevelAllocatorE8AllocateEji
mrf:__ZN11UnityEngine9Analytics15UserCustomEvent12ToJsonStringER9JSONWrite
Rbb:__ZN20DynamicPropertySheet15SetVectorQueuedERKN9ShaderLab16FastPropertyNameERK8Vector4fN19ShaderPropertySheet8SetFlagsE
xhg:_String_Format_m1263743648
l3m:_strtoll
sll:_DefaultExecutionOrder_get_order_m1561221759
Vfh:_ReadOnlyCollection_1_System_Collections_IEnumerable_GetEnumerator_m4248982967_gshared
ZM:__ZN7mecanim9animation22EvaluateAvatarRetargetEPKNS0_14AvatarConstantEPKNS0_11AvatarInputEPNS0_12AvatarOutputEPNS0_12AvatarMemoryEPNS0_15AvatarWorkspaceEb
fDh:_LayoutRebuilder_GetHashCode_m2745108660
fom:__ZN15dense_hashtableINSt3__24pairIK10KeyWrapperIPK19Il2CppGenericMethodEPK26Il2CppGenericMethodIndicesEES6_N6il2cpp8metadata23Il2CppGenericMethodHashEN14dense_hash_mapIS6_SA_SE_NSD_26Il2CppGenericMethodCompareENS0_9allocatorISB_EEE9SelectKeyESG_SI_E14squash_deletedEv
bYc:__ZL26Transfer_SimpleNativeClassI9JSONWrite10RectOffsetLb0EEvRK29SerializationCommandArgumentsR31RuntimeSerializationCommandInfo
$Xm:_GC_push_conditional
Brf:__ZN21UnityAnalyticsManager23VirtualRedirectTransferER24GenerateTypeTreeTransfer
wRa:__ZN17GenericDynamicVBO10AllocateVBEjR21DynamicVBOChunkHandle
rUg:_List_1_get_Item_m1547593893_gshared
$Ik:__Z70RuntimeInvoker_Void_t1841601450_CustomAttributeNamedArgument_t94157543PK10MethodInfoPvPS2_
oNh:_Path_GetPathRoot_m1269357080
rBe:__ZL27PxcTestFacesSepAxesBackfaceRKN5physx2Gu13PolygonalDataES3_RKNS_2Cm8Matrix34ES7_RKNS4_23FastVertex2ShapeScalingESA_S7_RKNS_6PxVec3ERfRSB_RjPjSG_fSD_
l2j:_SmokeParticles__ctor_m2546795951
QDf:__Z33setPxVehicleWheelDataMDampingRatePN5physx18PxVehicleWheelDataEf
Y6j:_Transform_1__ctor_m4161450529_gshared
im:_glMapBufferRange
OFb:__ZN9Texture2D8TransferI18StreamedBinaryReadILb0EEEEvRT_
hGc:__Z31Input_CUSTOM_GetMouseButtonDowni
Nni:__ZL65Il2CppArray_CustomAttributesCacheGenerator_Array_Sort_m1730553742P21CustomAttributesCache
S3d:__ZNK5physx7NpCloth23getExternalAccelerationEv
R9a:__ZNK9Transform16GetLocalPositionEv
G$b:__Z19scripting_array_newP11Il2CppClassjj
fJa:__ZN13LoadOperation19IntegrateTimeSlicedEi
pJb:__ZNK15QualitySettings26GetTypeInfoVirtualInternalEv
Kej:_InterpreterFactory__ctor_m3331468903
Lye:__ZN5physx16PxsBroadPhaseMBP9updatePPUEPNS_10PxBaseTaskE
p4h:_X501__cctor_m3795360380
wOa:__ZN13GfxDeviceGLES22DispatchComputeProgramE12ObjectHandleI18ComputeProgram_TagPvE15ComputeBufferIDj
N$l:_Texture_set_wrapMode_m333956747
y1m:__ZN6il2cpp8metadata25Il2CppGenericClassCompare7CompareERK10KeyWrapperIP18Il2CppGenericClassES7_
ayj:_GUIStyle_set_contentOffset_m2138084868
XB:__ZNK13AnimationClip15GetAverageSpeedEv
GCg:_Convert_ToInt32_m2297793940
UHa:__Z17TransformAABBSlowRK4AABBRK10Matrix4x4fRS_
MGb:__ZN15SerializeTraitsI13dynamic_arrayI7Hash128Lj8EEE19ResizeSTLStyleArrayERS2_i18MemLabelIdentifier
AKk:__Z96RuntimeInvoker_Void_t1841601450_Vector2U5BU5DU26_t1595685398_Int32_t2071877448_Int32_t2071877448PK10MethodInfoPvPS2_
Iaj:_X509Chain_Build_m1140429528
vcc:__ZN9ShaderLab21SerializedShaderState8TransferI14SafeBinaryReadEEvRT_
H8:__ZTv0_n12_NSt3__219basic_ostringstreamIcNS_11char_traitsIcEENS_9allocatorIcEEED1Ev
i6m:_ftruncate
b9f:_RSAPKCS1SignatureFormatter_SetKey_m2365816458
I9e:__ZN13RuntimeStaticINSt3__26vectorIPN20TextRenderingPrivate17TextMeshGeneratorENS0_9allocatorIS4_EEEEE13StaticDestroyEPv
wOe:__ZN5physx2Gu13RTreeMidphaseC2Ev
bhf:_cf2_stack_pushInt
IP:__ZN7mecanim9animation20DestroyLayerConstantEPNS0_13LayerConstantERNS_6memory9AllocatorE
Ail:_Animation_GetEnumerator_m3067441975
Oae:__ZN5physx6shdfnd8PoolBaseINS_16NpParticleSystemENS0_19ReflectionAllocatorIS2_EEE12allocateSlabEv
TKl:_RawImage_get_mainTexture_m3865646934
TDh:_MaskableGraphic_SetClipRect_m3871029457
Jmh:_ExecuteEvents_get_cancelHandler_m1964324668
snn:b89
rnn:b88
$Mi:__ZL70GUISettings_t622856320_CustomAttributesCacheGenerator_m_SelectionColorP21CustomAttributesCache
knn:b81
jnn:b80
mnn:b83
Pma:__ZN18ResourceImageGroup7CleanupEv
onn:b85
$Jd:__ZN5physx2Gu36closestPtPointTetrahedronTesselationEPNS_6shdfnd3aos5Vec3VES4_S4_RjRS3_S6_
qnn:b87
pnn:b86
qF:__ZN11Quaternionf8TransferI24GenerateTypeTreeTransferEEvRT_
GBe:__ZN5physx25PxcPCMContactSphereConvexERKNS_2Gu13GeometryUnionES3_RKNS_11PxTransformES6_RKfRNS_10PxcNpCacheERNS0_13ContactBufferE
RRl:_ToggleGroup_RegisterToggle_m3118973598
vai:_PrivateKeyInfo_Decode_m1053025782
Acj:_X509ChainElementCollection_System_Collections_ICollection_CopyTo_m1467895312
hLe:__ZN5physx2Cm18DelegateFanoutTaskINS_2Sc5SceneEXadL_ZNS3_20particlePostShapeGenEPNS_10PxBaseTaskEEEED0Ev
q3h:_PKCS12_Decrypt_m2457743414
TDb:__ZN8Playable19SetOutputConnectionEPS_i
Xv:__ZN14SafeBinaryRead21TransferSTLStyleArrayINSt3__26vectorIN22NavMeshProjectSettings15NavMeshAreaDataENS1_9allocatorIS4_EEEEEEvRT_17TransferMetaFlags
Xm:_glDeleteShader
fMg:_Exception_GetType_m3898489832
QCa:__ZN6prcoreL17RemapGenericFloatI15TexFormatRGHalf16TexFormatRGFloatEEvPKNS_9InnerInfoE
K_d:__ZN5physx6shdfnd8PoolBaseINS_10NpMaterialENS0_19ReflectionAllocatorIS2_EEE15disposeElementsEv
p2g:_Stack_1_Peek_m1548778538_gshared
tbh:_Collection_1_System_Collections_IList_get_Item_m1995028750_gshared
dbl:_InternalEnumerator_1__ctor_m2981879621_AdjustorThunk
A2a:__ZZ23InitPlayerLoopCallbacksvEN38EarlyUpdateExecuteMainThreadJobsstruct7ForwardEv
Wtf:__ZN11UnityEngine15PlatformWrapper20IsRootedOrJailbrokenEv
K3l:_Vector4_Dot_m2285943745
IDa:__ZN19RuntimeSceneManager9LoadSceneERK8UnityStrS2_S2_RK9UnityGUIDiNS_11LoadingModeE
bxi:__ZL51HMACSHA1_t1958407246_CustomAttributesCacheGeneratorP21CustomAttributesCache
Vwc:__Z27scripting_add_internal_callPKcPKv
o_f:_Array_InternalArray__Insert_TisUriScheme_t1876590943_m2728325409_gshared
YYj:_SSAOEffect_CreateMaterial_m741099468
fPm:__GLOBAL__sub_I_GarbageCollector_cpp
Wha:__Z17GetPlayerSettingsv
F4i:__ZL56Ball_t675055681_CustomAttributesCacheGenerator_movePowerP21CustomAttributesCache
lsd:__ZL21ContactReductionAllInRN5physx2Gu13ContactBufferEjjRKNS_7PxMat33EPKNS_6PxVec3EPKh
TFk:__Z65RuntimeInvoker_KeyValuePair_2_t38854645_Il2CppObject_Il2CppObjectPK10MethodInfoPvPS2_
zN:__ZN34BlobWriteTransferSTLStyleArrayImplI22OffsetPtrArrayTransferIiEEclERS1_17TransferMetaFlagsR9BlobWrite
bVl:_X509Store_CheckStore_m1027496478
OHk:__Z87RuntimeInvoker_Int32_t2071877448_UIVertex_t1204258818_UIVertex_t1204258818_Il2CppObjectPK10MethodInfoPvPS2_
Nsi:__ZL82MethodBase_t904190842_CustomAttributesCacheGenerator_MethodBase_Invoke_m1075809207P21CustomAttributesCache
E6k:_InternalEnumerator_1_MoveNext_m1994485778_AdjustorThunk
_zk:__Z133RuntimeInvoker_Boolean_t3825574718_Vector3U26_t425862308_Vector3U26_t425862308_Single_t2076509932_Int32_t2071877448_Int32_t2071877448PK10MethodInfoPvPS2_
BSi:__ZL62DropdownItem_t4139978805_CustomAttributesCacheGenerator_m_TextP21CustomAttributesCache
LUc:__Z33EmitSerializationCommandsForFieldI8JSONReadEvR18TransferField_InfoR32SerializationCommandQueueBuilderRP20AllowNameConversions
sc:invoke_vffff
mQg:_Enumerator_MoveNext_m1706162224_gshared
xfn:__ZNSt3__212basic_stringIcNS_11char_traitsIcEENS_9allocatorIcEEEC2ERKS5_jjRKS4_
u$a:__ZN15dense_hashtableINSt3__24pairIKNS0_12basic_stringIcNS0_11char_traitsIcEE13stl_allocatorIcL18MemLabelIdentifier54ELi16EEEEP20ArchiveStorageReaderEES8_11djb2_hash_tIS8_EN14dense_hash_mapIS8_SB_SE_NS0_8equal_toIS8_EES5_ISC_LS6_54ELi16EEE9SelectKeyESH_SI_E5clearEv
jhg:_String_Contains_m4017059963
Q1f:_Array_swap_TisCustomAttributeNamedArgument_t94157543_TisCustomAttributeNamedArgument_t94157543_m3600072996_gshared
Lfl:_DefaultComparer_Compare_m1606207039_gshared
Nnf:__ZN2UI14CanvasRenderer12SyncMaterialENS0_8SyncFlagE
ten:__ZNSt3__26locale5__imp7installINS_7codecvtIDsc11__mbstate_tEEEEvPT_
Lbi:_CipherSuite_get_ExchangeAlgorithmType_m3219223789
A0m:__ZN6il2cpp2vm9Parameter30GetDefaultParameterValueObjectEPK10MethodInfoPK13ParameterInfoPb
wEj:_ParticleCollisionEvent_get_collider_m3258307018
h$f:_Array_InternalArray__set_Item_TisLabelData_t3712112744_m2253365137_gshared
wTj:_MonoCMethod_get_Attributes_m3914742834
hla:__Z26scripting_object_get_classP12Il2CppObject
pDj:_MonoBehaviour_Invoke_m666563676
QMj:_ConstructorBuilder_get_DeclaringType_m4264602248
QD:__ZNSt3__26vectorIhNS_9allocatorIhEEE8__appendEj
hIg:_Decimal_decimalDiv_m900036616
JRh:_StringReader__ctor_m643998729
R0a:__ZN14dense_hash_mapINSt3__212basic_stringIcNS0_11char_traitsIcEE13stl_allocatorIcL18MemLabelIdentifier54ELi16EEEEP20ArchiveStorageReader11djb2_hash_tIS7_ENS0_8equal_toIS7_EES4_INS0_4pairIKS7_S9_EELS5_54ELi16EEE13set_empty_keyERSF_
Njm:__ZL25UnresolvedVirtualCall_141P12Il2CppObjectffaPK10MethodInfo
QUd:__ZN5physx19NpRigidBodyTemplateINS_18PxArticulationLinkEE16setRigidBodyFlagENS_15PxRigidBodyFlag4EnumEb
eKf:__ZN5physx18RepXPropertyFilterINS_2Sn17RepXVisitorReaderINS_16PxVehicleDriveNWEEEEclILj639ENS_15PxVehicleWheelsENS_22PxVehicleWheelsSimDataES8_EEvRKNS_14PxPropertyInfoIXT_ET0_T1_T2_EEj
esk:__Z75RuntimeInvoker_DateTime_t693205669_DateTime_t693205669_TimeSpan_t3430258949PK10MethodInfoPvPS2_
Bbb:__ZN14qsort_internal31_FindAndMovePivotToLastPositionIP17RODataReplacementi19ROSorterReplacementEEvT_S4_T0_T1_
cG:__ZN14AnimationEvent8TransferI19StreamedBinaryWriteILb0EEEEvRT_
cF:__ZN7mecanim9animation9DenseClip8TransferI24GenerateTypeTreeTransferEEvRT_
Zcf:_UNITY_tt_face_done_kern
K6m:__ZNSt3__215basic_streambufIcNS_11char_traitsIcEEE4syncEv
ZAl:_Context_get_DefaultContext_m2211922324
LRb:__ZN14SafeBinaryRead21TransferSTLStyleArrayINSt3__26vectorI14SubstanceInputNS1_9allocatorIS3_EEEEEEvRT_17TransferMetaFlags
jTc:__Z59GUIStyle_CUSTOM_Internal_GetNumCharactersThatFitWithinWidth13Il2Cpp_IntPtrP12Il2CppStringf
JXa:__Z4TrimRKNSt3__212basic_stringIcNS_11char_traitsIcEENS_9allocatorIcEEEES7_
TSb:__ZNSt3__26__treeINS_12__value_typeIjP25SubstanceRawTextureSharedEENS_19__map_value_compareIjS4_NS_4lessIjEELb1EEE13stl_allocatorIS4_L18MemLabelIdentifier77ELi16EEE7destroyEPNS_11__tree_nodeIS4_PvEE
Mai:_RSAManaged_GetPaddedValue_m2972141669
dOl:_ScrollRect_OnDrag_m1424848249
SXj:_LightShafts_CheckMinRequirements_m4260964462
hgi:_TlsServerCertificate_ProcessAsSsl3_m277089231
bUf:_Array_InternalArray__IEnumerable_GetEnumerator_TisUInt16_t986882611_m3665860884_gshared
qsa:__Z19scripting_gc_enablev
CHl:_AnchorInfo__ctor_m617409099
s_e:__ZN5physx7profile11EventBufferINS_24PxDefaultContextProviderENS_6shdfnd6MutexTINS0_26WrapperReflectionAllocatorIhEEEENS0_14ScopedLockImplIS7_EENS_24PxProfileNullEventFilterEE9stopEventEty
Rnb:__Z29StdTemplateConversionFunctionIihEbPvR14SafeBinaryRead
uPj:_GenericTypeParameterBuilder_GetMethodImpl_m528545634
Hpf:__Z55Register_UnityEngine_CanvasRenderer_DisableRectClippingv
mfj:_Interval_CompareTo_m2909556284_AdjustorThunk
vNb:__ZN14SafeBinaryRead21TransferSTLStyleArrayI13dynamic_arrayI11ColorRGBA32Lj4EEEEvRT_17TransferMetaFlags
mSk:_SimpleMouseRotator_Update_m3115023468
ubn:__ZNKSt3__210moneypunctIcLb1EE13do_pos_formatEv
sKk:__Z97RuntimeInvoker_Void_t1841601450_PlayableU5BU5DU26_t2309105347_Int32_t2071877448_Int32_t2071877448PK10MethodInfoPvPS2_
tyf:__ZN5physx22PxVehicleWheelsSimData25setMinLongSlipDenominatorEf
AEh:_Navigation_t1571958496_marshal_pinvoke
gej:_Interpreter_GetLastDefined_m2450713313
wOk:_DepthOfFieldScatter_OnDisable_m1437055013
lNi:__ZL67GUISkin_t1436893342_CustomAttributesCacheGenerator_m_verticalSliderP21CustomAttributesCache
OCe:__ZN5physx2Gu33MultiplePersistentContactManifold34addManifoldContactsToContactBufferERNS0_13ContactBufferERKNS_6shdfnd3aos12PsTransformVES8_RKNS5_6FloatVE
wbn:__ZNSt3__210moneypunctIwLb0EED2Ev
SGl:_Parser_ParseAssertionType_m3316669790
XOl:_Selectable_get_isPointerDown_m774209881
Omi:__ZL73Enum_t2459695545_CustomAttributesCacheGenerator_Enum_ToObject_m2460371738P21CustomAttributesCache
qjn:dynCall_viiiifii
EGj:_Plane_get_distance_m1834776091_AdjustorThunk
jka:__Z20GetPersistentManagerv
okf:_UNITY_TT_Set_Var_Design
YAl:_Context_Finalize_m1386439645
Vra:__ZN21SystemInfoStringCache16StaticInitializeEPv
hci:_TlsStream__ctor_m4117943603
k$f:_Array_InternalArray__set_Item_TisParameterModifier_t1820634920_m3126548327_gshared
GId:__ZN5physx2Sc7BodySim18internalWakeUpBaseEf
hTm:__ZN6il2cpp2gc16GarbageCollector23MakeDescriptorForObjectEPji
xma:__ZNSt3__212basic_stringIcNS_11char_traitsIcEE13stl_allocatorIcL18MemLabelIdentifier1ELi16EEE21__grow_by_and_replaceEjjjjjjPKc
_Vj:_ParameterModifier_t1820634920_marshal_pinvoke
pZb:__ZNK13MonoBehaviour7GetNameEv
ZHk:__Z104RuntimeInvoker_Int32_t2071877448_Il2CppObject_UICharInfo_t3056636800_Int32_t2071877448_Int32_t2071877448PK10MethodInfoPvPS2_
HKm:__ZN13dynamic_arrayIP12Il2CppObjectLj4EE9push_backEv
CEa:__ZN19ScriptingInvocation28AdjustArgumentsToMatchMethodEv
nw:__ZN22NavMeshProjectSettings15NavMeshAreaData8TransferI18StreamedBinaryReadILb0EEEEvRT_
Fr:__ZN12NavMeshAgent23VirtualRedirectTransferER17RemapPPtrTransfer
Wjh:_AbstractEventData_Use_m1797212290
_zi:__ZL56AppDomainSetup_t611332832_CustomAttributesCacheGeneratorP21CustomAttributesCache
Dzk:__Z76RuntimeInvoker_Boolean_t3825574718_Ray_t2469606224_RaycastHitU26_t1969197280PK10MethodInfoPvPS2_
gGm:__ZN6il2cpp2vm4Type19GetGenericParameterEPK10Il2CppType
w0j:_VirtualButton_set_name_m3213622870
U8c:__ZN11ShapeModule5ResetEv
hpf:__Z51Register_UnityEngine_CanvasGroup_get_blocksRaycastsv
eel:_InternalEnumerator_1_get_Current_m2826780083_gshared
bfe:__ZN5physx20NpRigidActorTemplateINS_13PxRigidStaticEE15exportExtraDataERNS_22PxSerializationContextE
$Jk:__Z83RuntimeInvoker_Void_t1841601450_Int32_t2071877448_ParticleCollisionEvent_t248228720PK10MethodInfoPvPS2_
Aqn:b119
h$i:__ZL59GerstnerDisplace_t1109098749_CustomAttributesCacheGeneratorP21CustomAttributesCache
Dra:__ZN14dense_hash_mapINSt3__212basic_stringIcNS0_11char_traitsIcEE13stl_allocatorIcL18MemLabelIdentifier54ELi16EEEEP11AssetBundle11djb2_hash_tIS7_ENS0_8equal_toIS7_EENS0_9allocatorINS0_4pairIKS7_S9_EEEEE13set_empty_keyERSG_
K4i:_Locale_GetText_m4034107474
QMe:__ZN5physx13BigConvexData5VLoadERNS_13PxInputStreamE
Y_l:_TextGenerator__ctor_m11880227
iIj:_RaycastHit2D_get_collider_m2568504212
rfl:_InternalEnumerator_1__ctor_m2782443954_AdjustorThunk
xe:_glBeginQuery
qpd:__ZN20OverlapCircleQuery2D13ReportFixtureEP9b2Fixture
_sj:_GUILayoutUtility_INTERNAL_CALL_Internal_GetWindowRect_m3236664463
SR:__ZN18AnimatorController19TransferRuntimeDataI24GenerateTypeTreeTransferEEvRT_
nWm:__ZN6il2cpp2vmL9ends_withEPKcS2_
Sqe:__ZN5physx11NodeManager6resizeEj
apd:__ZN10Effector2D25CheckEffectorColliderMaskEP10Collider2DS1_
W8h:_RC4__ctor_m1585026462
Yda:__ZN20LocalFileSystemPosix10ToAbsoluteEPKc
Pwh:_GridLayoutGroup__ctor_m1099847132
fal:_InternalEnumerator_1_get_Current_m2286118957_AdjustorThunk
CWf:_Array_InternalArray__IndexOf_TisX509ChainStatus_t4278378721_m1338369069_gshared
Jzg:_Convert_ToBoolean_m48997236
R4c:__ZN15PolynomialCurve10BuildCurveERK17AnimationCurveTplIfEf
tr:__ZN6Object17MainThreadCleanupEv
ytg:_ArrayListWrapper_set_Capacity_m2792463350
Aaj:_X509Certificate2_ImportPkcs12_m3993877002
Q4m:_getcwd
$kg:_StringBuilder_Append_m1128243247
djd:__ZN16b2CapsuleContact6CreateEP9b2FixtureiS1_iP16b2BlockAllocator
DHl:_AnchorInfo_get_Offset_m142119297
Nqb:__ZN25ThreadsafeLinearAllocatorD2Ev
iPh:_FileStream_Seek_m950719389
rse:__ZN5physx2Sq10AABBPruner11preallocateEj
bwj:_GUISkin_get_settings_m626844463
zpa:__ZN21BillboardBatchManager16StaticInitializeEPv
fwj:_Object_get_name_m2079638459
yqn:b117
Aga:__ZN12_GLOBAL__N_138ArchiveRedirectFileSystemStaticDestroyEPv
H5l:_InvokableCall_1_add_Delegate_m3048312905_gshared
YLg:_EventHandler_Invoke_m1137722757
usn:_emscripten_glLoadIdentity__wrapper
Qhe:__ZN5physx2Sc19ShapeInstancePairLLC2ERNS0_8ShapeSimES3_RNS0_9ActorPairENS_7PxFlagsINS_10PxPairFlag4EnumEtEE
nVh:_MonoType_IsSubclassOf_m2211166238
rJm:__ZN6il2cpp6icalls8mscorlib6System5Array9GetLengthEP11Il2CppArrayi
sWj:_TypeFilter_EndInvoke_m997625354
tF:__ZN13AnimationClip15QuaternionCurve8TransferI18StreamedBinaryReadILb0EEEEvRT_
e6g:_Collection_1_System_Collections_ICollection_CopyTo_m2859266050_gshared
ija:__ZN19RuntimeSceneManagerC2Ev
Vxf:__ZN5physx23PxVehicleWheels4SimData12setWheelDataEjRKNS_18PxVehicleWheelDataE
$H:__ZN7mecanim14ValueArrayCopyEPKNS_10ValueArrayEPS0_PKNS_14ValueArrayMaskE
zgl:_Comparer_1__ctor_m2876014041_gshared
KYm:_GC_continue_reclaim
wtg:_ArrayListWrapper_get_Count_m2207944952
Bcj:_X509ChainElementCollection_System_Collections_IEnumerable_GetEnumerator_m2559704689
XEf:__Z43getPxVehicleWheelsSimData_WheelCentreOffsetPKN5physx22PxVehicleWheelsSimDataEj
xSi:__ZL59Dropdown_t1985816271_CustomAttributesCacheGenerator_m_ValueP21CustomAttributesCache
Oej:_InterpreterFactory_set_Gap_m2761943153
Q9i:_PublicKey_get_Key_m126090744
jcj:_X509ChainPolicy_Reset_m430244129
Mya:__ZNSt3__26vectorINS_4pairIiiEENS_9allocatorIS2_EEE6insertENS_11__wrap_iterIPKS2_EERS7_
e8e:__ZNSt3__23mapIN20TextRenderingPrivate7FontRefEP11FT_FaceRec_NS_4lessIS2_EENS_9allocatorINS_4pairIKS2_S4_EEEEEixERS9_
c$a:__ZN17ArchiveFileSystem10AddStorageEP20ArchiveStorageReader
WUd:__ZN5physx19NpRigidBodyTemplateINS_18PxArticulationLinkEE27setMaxDepenetrationVelocityEf
B6d:__ZN5physx2Sc9ClothCore16setStretchConfigENS_22PxClothFabricPhaseType4EnumERKNS_20PxClothStretchConfigE
hql:_Color_Equals_m661618137
zHa:__ZN14SafeBinaryRead23IsVersionSmallerOrEqualEi
H8c:__ZN9SubModule8TransferI19StreamedBinaryWriteILb0EEEEvRT_
s8g:__ZN21InterfaceFuncInvoker1Ib22UILineInfo_t3621277874E6InvokeEjP11Il2CppClassPvS0_
Uke:__ZN5physx15PxsParticleData13onOriginShiftERKNS_6PxVec3E
ehd:__ZNK12b2MotorJoint16GetReactionForceEf
TVa:__ZN12_GLOBAL__N_112UploadFormatE13TextureFormat
Dek:_EqualityComparer_1_System_Collections_IEqualityComparer_GetHashCode_m1203798961_gshared
ymm:__ZN6il2cpp2vm5Class15GetEnumBaseTypeEP11Il2CppClass
ANh:_DirectoryNotFoundException__ctor_m3713860966
hbd:__ZN22ParticleSystemRenderer15UpdateLocalAABBEv
B1i:__ZL78AdvancedSetttings_t359152339_CustomAttributesCacheGenerator_engineMasterVolumeP21CustomAttributesCache
QFj:_Physics_Raycast_m2009151399
_Hm:__ZN15dense_hashtableINSt3__24pairIK10KeyWrapperINS1_IP11Il2CppClassjEEES4_EES6_N6il2cpp8metadata14ArrayClassHashEN14dense_hash_mapIS6_S4_SB_NSA_17ArrayClassCompareENS0_9allocatorIS8_EEE9SelectKeyESD_SF_E12resize_deltaEjj
eFb:__ZNK9Texture2D16GetNpotTexelSizeEv
X_i:__ZL145U3CStartU3Ec__Iterator0_t4261193119_CustomAttributesCacheGenerator_U3CStartU3Ec__Iterator0_System_Collections_IEnumerator_get_Current_m2477803708P21CustomAttributesCache
_6k:_InternalEnumerator_1__ctor_m245588437_gshared
BR:__ZN18StreamedBinaryReadILb1EE21TransferSTLStyleArrayI22OffsetPtrArrayTransferI9OffsetPtrIN7mecanim12statemachine21SelectorStateConstantEEEEEvRT_17TransferMetaFlags
rdj:_Capture_get_Text_m3472127896
yam:_CarAudio_UInverseLerp_m3927805021
yDh:_Mask_get_rectTransform_m3304369086
s0l:_TooltipAttribute__ctor_m2640804852
dpm:__ZNK10KeyWrapperINSt3__212basic_stringIcNS0_11char_traitsIcEENS0_9allocatorIcEEEEEeqERKS7_
f1e:__ZN13dynamic_arrayItLj2EE6insertEPtPKtS3_
luk:__Z35RuntimeInvoker_Category_t1984577050PK10MethodInfoPvPS2_
Ack:_DefaultComparer_GetHashCode_m4073394827_gshared
BRa:__ZN9GfxDevice22GetDefaultVertexBufferE26GfxDefaultVertexBufferTypej
_Fc:__Z39Register_UnityEngine_GL_ClearWithSkyboxv
Oeh:_ReadOnlyCollection_1_System_Collections_ICollection_CopyTo_m1129689124_gshared
g5m:___fseeko_unlocked
A$c:__ZN16ParticleRenderer19UpdateTransformInfoEv
OEk:__Z162RuntimeInvoker_Void_t1841601450_Il2CppObject_Int32_t2071877448_SByte_t454417549_SByte_t454417549_SingleU26_t4173844468_SingleU26_t4173844468_SingleU26_t4173844468PK10MethodInfoPvPS2_
sOm:__ZN15dense_hashtableI10KeyWrapperIP18Il2CppGenericClassES3_N6il2cpp8metadata22Il2CppGenericClassHashEN14dense_hash_setIS3_S6_NS5_25Il2CppGenericClassCompareENSt3__29allocatorIS3_EEE8IdentityES8_SB_E5clearEv
WUb:__ZN18StreamedBinaryReadILb1EE21TransferSTLStyleArrayI13dynamic_arrayI16SplashScreenLogoLj4EEEEvRT_17TransferMetaFlags
bah:_Collection_1_Contains_m1999290510_gshared
HDd:__ZN5physx3Cct17CapsuleControllerC2ERKNS_16PxControllerDescERNS_9PxPhysicsEPNS_7PxSceneE
YNb:__ZN14SafeBinaryRead21TransferSTLStyleArrayINSt3__26vectorI17BlendShapeChannelNS1_9allocatorIS3_EEEEEEvRT_17TransferMetaFlags
Wsa:__Z17BeginSplashScreenv
Drl:_ControllerColliderHit_get_moveDirection_m3053186297
fcn:__ZNSt3__212basic_stringIwNS_11char_traitsIwEENS_9allocatorIwEEE6appendIPwEENS_9enable_ifIXaasr21__is_forward_iteratorIT_EE5valuesr38__libcpp_string_gets_noexcept_iteratorIS9_EE5valueERS5_E4typeES9_S9_
Ffc:__ZN9ShaderLab16SerializedShader8TransferI19StreamedBinaryWriteILb0EEEEvRT_
TKk:__Z55RuntimeInvoker_LabelFixup_t4090909514_Int32_t2071877448PK10MethodInfoPvPS2_
XO:__ZN7mecanim9animation18CreateAvatarMemoryEPKNS0_14AvatarConstantERNS_6memory9AllocatorE
fzg:_Stack_Pop_m3788808882
q4j:_Enumerator_VerifyCurrent_m4246196125_AdjustorThunk
hbk:_Dictionary_2_pick_value_m3484897877_gshared
yOi:__ZL73ComputeBufferType_t1048369819_CustomAttributesCacheGenerator_DrawIndirectP21CustomAttributesCache
iGg:_DateTime_op_Equality_m1867073872
RN:__ZN7mecanim8skeleton16SkeletonPoseCopyIN4math4trsXENS2_7affineXEEEvPKNS0_13SkeletonPoseTIT_EEPNS5_IT0_EE
t5b:__Z18Transfer_BlittableI19StreamedBinaryWriteILb0EELb0EaEvRK29SerializationCommandArgumentsR31RuntimeSerializationCommandInfo
iRa:__ZN18GfxFramebufferGLES18GetFramebufferNameERK20GfxRenderTargetSetup
qOf:__ZN5physx3Pvd17PvdPropertyFilterINS_2Sn17RepXVisitorWriterINS_27PxVehicleDifferential4WDataEEEE14handleAccessorILj546ENS_22PxRepXPropertyAccessorILj546ES4_ffEEEEvRKT0_
tYm:_GC_print_block_list
BFm:__ZN6il2cpp2vm14TypeNameParser12ParseVersionERKNSt3__212basic_stringIcNS2_11char_traitsIcEENS2_9allocatorIcEEEERtSB_SB_SB_
Mzg:_Convert_ToBoolean_m3169319766
umh:__ZN23InterfaceActionInvoker1IP25AxisEventData_t1524870173E6InvokeEjP11Il2CppClassPvS1_
sLm:__ZN6il2cpp6icalls8mscorlib6System2IO6MonoIO11GetFileTypeE12Il2CppIntPtrPi
LRc:__Z30Event_Get_Custom_PropCharacterP12Il2CppObject
iKf:__ZN5physx2Sn21RepXVisitorReaderBaseINS_16PxVehicleDriveNWEE8pushNameEPKc
Szd:__ZN5physx6shdfnd5ArrayINS_12PxDebugPointENS0_19ReflectionAllocatorIS2_EEE15growAndPushBackERKS2_
Ann:_glGetFramebufferAttachmentParameteriv__wrapper
dcg:_SecurityElement_GetAttribute_m4288291176
xel:_InternalEnumerator_1_System_Collections_IEnumerator_get_Current_m2389982234_gshared
NTe:__ZN8Collider13AwakeFromLoadE17AwakeFromLoadMode
wBc:__Z56Register_UnityEngine_Camera_INTERNAL_set_backgroundColorv
BHa:__ZN14SafeBinaryRead20TransferTypelessDataEjPvi
uti:__ZL66StringFreezingAttribute_t2691375565_CustomAttributesCacheGeneratorP21CustomAttributesCache
C_c:__ZN9rapidjson13GenericReaderINS_4UTF8IcEES2_13JSONAllocatorE10ParseFalseILj1ENS_25GenericInsituStringStreamIS2_EENS_15GenericDocumentIS2_S3_S3_EEEEvRT0_RT1_
EZg:_List_1_AddCollection_m3284813601_gshared
Esb:__ZN33AssetBundleLoadFromAsyncOperation7PerformEv
TVi:__ZL102ToggleGroup_t1030026315_CustomAttributesCacheGenerator_ToggleGroup_U3CActiveTogglesU3Em__1_m4052653494P21CustomAttributesCache
yxk:__Z69RuntimeInvoker_Single_t2076509932_Int32_t2071877448_Int32_t2071877448PK10MethodInfoPvPS2_
Uha:__Z19GetActiveColorSpacev
Y7c:__ZN17SizeBySpeedModule8TransferI18StreamedBinaryReadILb0EEEEvRT_
Rek:_EqualityComparer_1__cctor_m1672307556_gshared
dhj:_SoapTypeAttribute_get_IsInteropXmlElement_m2941294827
qcf:_UNITY_tt_face_load_kern
_Qg:_Enumerator_System_Collections_IEnumerator_get_Current_m3542273247_gshared
Hrg:_Char_System_IConvertible_ToUInt32_m1557991717_AdjustorThunk
Qhg:_Encoding_get_UTF8Unmarked_m628720656
GFh:_NumberFormatter_RoundBits_m1545255255
Eia:__Z6StrCmpPKcS0_
zcl:_InternalEnumerator_1_MoveNext_m2906956792_gshared
Dxb:__ZN18StreamedBinaryReadILb1EE21TransferSTLStyleArrayINSt3__26vectorI17SortingLayerEntryNS2_9allocatorIS4_EEEEEEvRT_17TransferMetaFlags
Agk:_EqualityComparer_1__ctor_m99476293_gshared
_gc:__Z21CheckGpuProgramUsable20ShaderGpuProgramType
nmm:__ZNK15dense_hashtableINSt3__24pairIK10KeyWrapperIPK22Il2CppGenericParameterEP11Il2CppClassEES6_N6il2cpp5utils11PointerHashIS4_EEN14dense_hash_mapIS6_S9_SE_NS0_8equal_toIS6_EENS0_9allocatorISA_EEE9SelectKeyESH_SJ_E13find_positionERS7_
vHk:__Z55RuntimeInvoker_Boolean_t3825574718_Keyframe_t1449471340PK10MethodInfoPvPS2_
fLj:_Binder__cctor_m3736115807
Lbb:__ZN13BatchRenderer5FlushEv
Ygn:__ZNKSt8bad_cast4whatEv
iXd:__ZN5physx6shdfnd5ArrayIPvNS0_19ReflectionAllocatorINS_2Cm5BlockIhLj128EEEEEE4copyINS0_15InlineAllocatorILj256ES7_EEEEvRKNS1_IS2_T_EE
WPf:__Z64Register_UnityEngine_WheelCollider_INTERNAL_set_sidewaysFrictionv
b7e:__ZN20TextRenderingPrivate19NativeTextGenerator5SetupEv
NCl:_AsyncResult_GetReplyMessage_m262842621
Ueb:__ZNK15SharedLightData24GetFinalShadowResolutionEv
oPg:_Enumerator__ctor_m3021143890_AdjustorThunk
Q_d:__ZN5physx6shdfnd8PoolBaseINS_16NpConnectorArrayENS0_19ReflectionAllocatorIS2_EEE15disposeElementsEv
dVb:__ZN12AspectRatios8TransferI18StreamedBinaryReadILb0EEEEvRT_
A1e:__ZN14PhysicsManager19CreatePvdConnectionEv
ppi:__ZL66X509ExtensionCollection_t1640144839_CustomAttributesCacheGeneratorP21CustomAttributesCache
lpc:__ZN10GameObject14CopyPropertiesERS_
OTc:__Z44Register_UnityEngine_GUIStyle_get_fixedWidthv
s8f:_RSACryptoServiceProvider_Common_m2581564813
ERm:__ZNSt3__214__split_bufferIN6il2cpp2os10ThreadImpl10APCRequestERNS_9allocatorIS4_EEEC2EjjS7_
Tka:__ZN14SafeBinaryRead4InitERK16TypeTreeIteratorii24TransferInstructionFlags18MemLabelIdentifier
_3k:_ArrayReadOnlyList_1_GetEnumerator_m634288642_gshared
Gmb:__ZNK13ScreenManager12IsFullScreenEv
G5m:_rand
SJf:__Z35setPxVehicleDriveSimData_ClutchDataPN5physx21PxVehicleDriveSimDataERKNS_19PxVehicleClutchDataE
OSe:__ZNK8Collider16SupportsMaterialEv
v6k:_InternalEnumerator_1_get_Current_m2345377791_AdjustorThunk
ZZd:__ZNK5physx12NpConstraint9getActorsERPNS_12PxRigidActorES3_
KM:__ZN11UnityEngine9Animation33SetGenericTransformPropertyValuesERKNS0_30AnimatorGenericBindingConstantERKN7mecanim10ValueArrayEP9Transform
Odn:__ZNKSt3__28numpunctIwE16do_decimal_pointEv
vih:_ReadOnlyCollection_1_GetEnumerator_m2481390116_gshared
U0b:__ZN14SafeBinaryRead21TransferSTLStyleArrayINSt3__26vectorI17AnimationCurveTplIfE13stl_allocatorIS4_L18MemLabelIdentifier1ELi16EEEEEEvRT_17TransferMetaFlags
Jzc:__Z60Register_UnityEngine_AsyncOperation_set_allowSceneActivationv
tPe:__ZN5physx6shdfnd8PoolBaseIN17PxcPoolMallocData10PoolData16ENS0_19ReflectionAllocatorIS3_EEE15disposeElementsEv
Qxh:_CullStateChangedEvent__ctor_m4025397477
sTe:__ZN9Rigidbody23UpdateInterpolationNodeEv
a8m:__ZNSt3__26locale2id5__getEv
tkj:_ObjectManager_RegisterObject_m872610295
W6a:__Z22PrepareOptimizedPlanesPK5PlaneiPKN4math7_float4E
_Mk:__Z47RuntimeInvoker_Vector3_t2243707580_Il2CppObjectPK10MethodInfoPvPS2_
hJj:_RectOffset_t3387826427_marshal_pinvoke
tuf:__ZN11UnityEngine7Connect13ConfigHandler13ConfigChangedERK8UnityStr
vvh:_Graphic_SetVerticesDirty_m1607014370
xpa:__ZN17UniqueIDGenerator15CreatePureIndexEv
gen:__ZNSt3__27codecvtIDsc11__mbstate_tED0Ev
t9h:_MD2__ctor_m3133818738
ET:__ZN11UnityEngine9Animation28GenericAnimationBindingCache15DidReloadDomainEv
n6h:_AppDomain_InternalGetProcessGuid_m1278588156
XAh:_InputField_MoveRight_m386206014
u7b:__ZN6HelperI18StreamedBinaryReadILb0EE23TransferArrayField_InfoE24SerializationFunctionForERKS2_R23StaticTransferFieldInfoPb
Ubm:_Water_CalculateReflectionMatrix_m2692573612
Z0l:_Transform_set_eulerAngles_m2881310872
Sie:__ZN5physx7NpScene8addActorERNS_7PxActorE
aSf:_Array_InternalArray__ICollection_Remove_TisIl2CppObject_m2425110446_gshared
iT:__ZN19StreamedBinaryWriteILb0EE8TransferIN7mecanim9animation23BlendDirectDataConstantEEEvRT_PKc17TransferMetaFlags
hNl:_ScrollRect_set_inertia_m2575649134
GMh:_BinaryReader_ReadBoolean_m2892291883
ohd:__ZNK12b2MouseJoint17GetReactionTorqueEf
Ywi:__ZL66DSASignatureDeformatter_t2187578719_CustomAttributesCacheGeneratorP21CustomAttributesCache
Nsc:__ZN4Mesh24UpdateSubMeshVertexRangeEi
jtk:__Z91RuntimeInvoker_Boolean_t3825574718_Il2CppObject_Il2CppObject_Il2CppObject_Int32_t2071877448PK10MethodInfoPvPS2_
ZPc:__Z14GUIClipTextureP9Texture2DPhiiii
bE:__ZN14SafeBinaryRead21TransferSTLStyleArrayI13dynamic_arrayI11KeyframeTplI11QuaternionfELj4EEEEvRT_17TransferMetaFlags
G5k:_InternalEnumerator_1_Dispose_m1064404287_AdjustorThunk
RTa:__ZNSt3__26vectorI27ComputeShaderBuiltinSamplerNS_9allocatorIS1_EEE21__push_back_slow_pathIKS1_EEvRT_
QFk:__Z95RuntimeInvoker_Void_t1841601450_ObjectU5BU5DU26_t3223402458_Int32_t2071877448_Int32_t2071877448PK10MethodInfoPvPS2_
kgi:_TlsServerCertificate_validateCertificates_m1988583701
Rqk:__Z52RuntimeInvoker_DateTime_t693205669_Int16_t4041245914PK10MethodInfoPvPS2_
uJl:_Uri__ctor_m3927533881
Hoi:__ZL61DllImportAttribute_t3000813225_CustomAttributesCacheGeneratorP21CustomAttributesCache
iia:__ZNK9Transform18TransformDirectionERK8Vector3f
mLe:__ZN5physx21PxsBodyTransformVault6updateEv
B1a:__ZNK17ArchiveFileSystem12GetAssetGUIDERK13FileEntryData
Sgc:__ZNSt3__26vectorIN9ShaderLab20SerializedSubProgram15MatrixParameterENS_9allocatorIS3_EEE21__push_back_slow_pathIKS3_EEvRT_
ZFd:__ZThn12_N5physx3Ext5JointINS_15PxDistanceJointENS_30PxDistanceJointGeneratedValuesEE19onConstraintReleaseEv
Soa:__ZN13RuntimeStaticINSt3__23setIPFvP11Il2CppClassR23CachedSerializationDataRbENS0_4lessIS8_EENS0_9allocatorIS8_EEEEE16StaticInitializeEPv
jKf:__ZN5physx2Sn21RepXVisitorReaderBaseINS_16PxVehicleDriveNWEE15complexPropertyINS_22PxRepXPropertyAccessorILj690ES2_NS_23PxVehicleDriveSimDataNWES6_EEKNS_36PxVehicleDriveSimDataNWGeneratedInfoEEEvPjRKT_RT0_
Mrd:__ZL29GeomMTDCallback_CapsuleConvexRN5physx6PxVec3ERfRKNS_10PxGeometryERKNS_11PxTransformES5_S8_
Izl:_ChannelInfo_get_ChannelData_m2401378984
rfk:_EqualityComparer_1_get_Default_m1852501307_gshared
h9:__ZNKSt3__23mapINS_12basic_stringIcNS_11char_traitsIcEENS_9allocatorIcEEEES6_NS_4lessIS6_EENS4_INS_4pairIKS6_S6_EEEEE16__find_equal_keyERPNS_16__tree_node_baseIPvEERSA_
Quk:__Z94RuntimeInvoker_Void_t1841601450_Il2CppObject_ByteU5BU5DU26_t790777611_ByteU5BU5DU26_t790777611PK10MethodInfoPvPS2_
HYb:__ZN10MonoScript23VirtualRedirectTransferER17RemapPPtrTransfer
TBf:__ZN5physx2Sn21RepXVisitorReaderBaseINS_22PxVehicleWheelsDynDataEE8pushNameEPKc
Cgn:__ZNK10__cxxabiv120__si_class_type_info27has_unambiguous_public_baseEPNS_19__dynamic_cast_infoEPvi
qHh:_NumberFormatInfo_get_PercentNegativePattern_m1162448153
Zpi:__ZL56SyncHashtable_t1343674558_CustomAttributesCacheGeneratorP21CustomAttributesCache
fw:__ZNSt3__26vectorIN22NavMeshProjectSettings15NavMeshAreaDataENS_9allocatorIS2_EEE8__appendEj
sYb:__ZN24RingBufferMemoryFileData9SetLengthEy
wln:_glTexSubImage3D__wrapper
Ddj:_FactoryCache_Add_m2602974721
Z3a:__Z21WriteImageAsyncThreadPv
Qoa:__ZL16GetInterfaceImpl18UnityInterfaceGUID
Rmm:__ZN6il2cpp2vmL17SetupFieldOffsetsENS0_15FieldLayoutKindEP11Il2CppClassjRKNSt3__26vectorIjNS4_9allocatorIjEEEE
Dvc:__Z15AngularDistanceRK11QuaternionfS1_
PSg:_List_1_System_Collections_IList_get_Item_m936612973_gshared
nW:__ZNSt3__26vectorI8UnityStrNS_9allocatorIS1_EEE26__swap_out_circular_bufferERNS_14__split_bufferIS1_RS3_EE
tba:__ZN13EmscriptenWWW7GetSizeEv
GVm:__ZN6il2cpp6icalls8mscorlib6System15MonoCustomAttrs27GetCustomAttributesInternalEP12Il2CppObjectP20Il2CppReflectionTypeb
sE:__ZN7mecanim9animation18ClipMuscleConstant8TransferI18StreamedBinaryReadILb1EEEEvRT_
BXc:__ZN8JSONRead21TransferSTLStyleArrayI13dynamic_arrayI8Vector3fLj4EEEEvRT_18MemLabelIdentifier17TransferMetaFlags
mQk:_ParticleSceneControls__ctor_m4076599116
Dkj:_ObjectReader_ReadAssembly_m869834280
aqd:__ZNK5physx3Cct13BoxController11getPositionEv
xBb:__ZN22RenderingCommandBufferD0Ev
ice:__ZN5physx14NpRigidDynamicC2ERKNS_11PxTransformE
Phh:_ReadOnlyCollection_1_System_Collections_IList_get_Item_m1831743662_gshared
ebh:_Collection_1_IsSynchronized_m971497175_gshared
zvd:__Z27sweepCCTBox_HeightFieldGeomRKN5physx10PxGeometryERKNS_11PxTransformERKNS_2Gu3BoxERKNS_6PxVec3EfRNS_10PxSweepHitENS_7PxFlagsINS_9PxHitFlag4EnumEtEEf
QSf:_ExecuteEvents_Execute_TisIl2CppObject_m4168308247_gshared
PQl:_Text_get_cachedTextGeneratorForLayout_m1357670532
U_:__ZL31InitializeAudioScriptingClassesv
M9a:__Z14SortGUIByDepthP10GUIElementS0_
EJh:_NumberFormatter_NumberToString_m126384393
gLf:__Z37getPxVehicleDriveDynData_UseAutoGearsPKN5physx21PxVehicleDriveDynDataE
Hpn:_emscripten_glVertexAttrib4fv__wrapper
Lgg:__ZN16VirtFuncInvoker7IiP8String_tiiS1_iiiE6InvokeEjPvS1_iiS1_iii
EDl:_LogicalCallContext__ctor_m3173272863
urd:__ZN5physx3Cct9SweepTest18updateTouchedGeomsEPKNS0_30InternalCBData_FindTouchedGeomERKNS0_13UserObstaclesERKNS_17PxExtendedBounds3ERKNS_19PxControllerFiltersERKNS_6PxVec3E
V1j:_U3COnCollisionEnterU3Ec__Iterator0__ctor_m1658369155
WTh:_MonoCustomAttrs__cctor_m2608447972
rJh:_Int32_FindSign_m3803672540
A4j:_Enumerator_System_Collections_IEnumerator_Reset_m70453843_AdjustorThunk
Zvj:_GUISkin_get_scrollView_m2941173958
z_e:_PxCloseExtensions
Gea:__ZNK20LocalFileSystemPosix21GetAvailableDiskSpaceEPKcRy
gy:__ZNSt3__26__treeIiNS_4lessIiEENS_9allocatorIiEEE7destroyEPNS_11__tree_nodeIiPvEE
pgm:_Predicate_1__ctor_m2995226103_gshared
Zbi:_CipherSuite_InitializeCipher_m229247572
N4c:__ZN11ForceModule25CalculateProceduralBoundsER10MinMaxAABBRK10Matrix4x4ff
sLa:__ZNK9GfxDevice14GetWorldMatrixEv
oVj:_MonoProperty_GetGetMethod_m1100580870
Kak:_Dictionary_2__ctor_m1950568359_gshared
F4j:_Enumerator_System_Collections_IDictionaryEnumerator_get_Key_m1214978221_AdjustorThunk
$2:__ZN11SoundHandle13CreateChannelEb
zGb:__ZN14SafeBinaryRead21TransferSTLStyleArrayI13dynamic_arrayI12LightmapDataLj4EEEEvRT_17TransferMetaFlags
H6h:_ArgumentException__ctor_m3312963299
Jub:__ZN21AssetBundleFileSystem11CreateAsDirER13FileEntryData
Idc:__ZNSt3__26vectorIN9ShaderLab20SerializedSubProgram16TextureParameterENS_9allocatorIS3_EEE6assignIPS3_EENS_9enable_ifIXaasr21__is_forward_iteratorIT_EE5valuesr16is_constructibleIS3_NS_15iterator_traitsISA_E9referenceEEE5valueEvE4typeESA_SA_
rqc:__Z16CreateGameObjectRKNSt3__212basic_stringIcNS_11char_traitsIcEENS_9allocatorIcEEEEPKcz
FRm:__ZNSt3__26vectorIN6il2cpp2os10ThreadImpl10APCRequestENS_9allocatorIS4_EEE26__swap_out_circular_bufferERNS_14__split_bufferIS4_RS6_EE
rHc:__Z51Quaternion_CUSTOM_INTERNAL_CALL_Internal_ToEulerRadRK11QuaternionfR8Vector3f
O7k:_InternalEnumerator_1_System_Collections_IEnumerator_Reset_m2726857860_AdjustorThunk
I1b:__ZN9Scripting36IsSystemCollectionsGenericDictionaryEP11Il2CppClass
gdj:_X509SubjectKeyIdentifierExtension__ctor_m3887138480
gPg:_Enumerator_System_Collections_IEnumerator_get_Current_m2853089017_AdjustorThunk
zid:__ZN12b2WheelJoint24SolvePositionConstraintsERK12b2SolverData
n6d:__ZNK5physx2Sc9ClothCore20getNbCollisionPlanesEv
Nh:_emscripten_exit_fullscreen
Jpe:__ZN5physx6shdfnd5ArrayINS_9PxBounds3ENS0_15InlineAllocatorILj192ENS0_19ReflectionAllocatorIS2_EEEEE8recreateEj
cye:__ZNK5physx23PxsBroadPhaseContextSap7getTypeEv
sNe:__ZNK5physx13GuMeshFactory17getNbHeightFieldsEv
Wyh:_InputField_get_mesh_m3276583786
yyl:_GCHandle_Free_m1639542352_AdjustorThunk
HHb:__ZNK29LineParametersPropertyBinding38SerializedPropertyPathToCurveAttributeER6ObjectPKc
Tei:_Context_set_ClientRandom_m631392719
Qyl:_OutAttribute__ctor_m1447235100
ATm:__ZN6il2cpp6icalls8mscorlib6System6String19InternalAllocateStrEi
sXc:__Z29Transfer_Blittable_ArrayFieldI8JSONRead11QuaternionfEvRT_R9ArrayInfoRK23StaticTransferFieldInfo
wvi:__ZL65SoapParameterAttribute_t2780084514_CustomAttributesCacheGeneratorP21CustomAttributesCache
Fse:__ZNK5physx2Gu12OBBAABBTestsILb1EEclENS_6shdfnd3aos5Vec3VES5_
Zxk:__Z47RuntimeInvoker_Vector4_t2243707581_Il2CppObjectPK10MethodInfoPvPS2_
Pqd:__ZN5physx3Cct9SweepTestD2Ev
Nyb:__ZN9Behaviour8TransferI18StreamedBinaryReadILb0EEEEvRT_
QIl:_Literal__ctor_m3295919014
XEl:_Enumerator_System_Collections_IEnumerator_get_Current_m1429268283
Ecl:_InternalEnumerator_1_System_Collections_IEnumerator_Reset_m2046302786_AdjustorThunk
LEj:_ParticleSystem_get_startColor_m3109096765
bAd:__ZN26IntersectAnyVsMeshCallbackILi0ELb0EED2Ev
j3m:___toread
zaa:__ZN19CloudServiceHandler10QueueEventEPN11UnityEngine15CloudWebService14CloudEventInfoE
lhn:___cxa_is_pointer_type
f2i:__ZL105AeroplaneController_t967620215_CustomAttributesCacheGenerator_AeroplaneController_set_Altitude_m932291272P21CustomAttributesCache
Zyh:_InputField_get_shouldHideMobileInput_m3694613599
TUa:__ZN4gles20DestroyRenderSurfaceEP7ApiGLESP17RenderSurfaceGLES
fPg:_Enumerator_System_Collections_IEnumerator_get_Current_m2853089017_gshared
MMm:__ZN15dense_hashtableINSt3__24pairIK10KeyWrapperINS1_IPKcS4_EEEiEES6_24NamespaceAndNamePairHashN14dense_hash_mapIS6_iS9_26NamespaceAndNamePairEqualsNS0_9allocatorIS8_EEE9SelectKeyESB_SD_E8min_sizeEjj
$qa:__ZN17MessageIdentifier13StaticDestroyEPv
Ben:__ZNSt3__26locale5__imp7installINS_7num_putIcNS_19ostreambuf_iteratorIcNS_11char_traitsIcEEEEEEEEvPT_
mOc:__Z34Transform_CUSTOM_SetAsFirstSiblingP12Il2CppObject
Hud:__ZN12_GLOBAL__N_141SphereMeshContactGenerationCallback_ScaleD0Ev
RAk:__Z69RuntimeInvoker_Boolean_t3825574718_TextGenerationSettings_t2543476768PK10MethodInfoPvPS2_
GBd:__ZN5physx3Cct17CapsuleController16setContactOffsetEf
pRg:_Enumerator_get_Current_m827571811_AdjustorThunk
b3j:_CameraMotionBlur_OnEnable_m3176168050
pAa:__ZN17PersistentManager40GlobalToLocalSerializedFileIndexInternalERK26SerializedObjectIdentifier
S0i:__ZL97WaypointCircuit_t2321032056_CustomAttributesCacheGenerator_WaypointCircuit_get_Length_m1209463686P21CustomAttributesCache
bql:_Color__ctor_m3811852957_AdjustorThunk
BYh:_SimpleCollator_CompareOrdinal_m2176988387
IOi:__ZL47Rect_t3681755626_CustomAttributesCacheGeneratorP21CustomAttributesCache
OMg:_CCGregorianCalendar_GetYear_m1289900195
x5e:__Z62Register_UnityEngine_CharacterController_INTERNAL_get_velocityv
zZd:__ZN12GeomQueryAnyIN5physx10PxSweepHitEE7geomHitERKNS0_2Sq17SceneQueryManagerERKNS0_15MultiQueryInputERKNS3_9ShapeDataERKNS0_10PxGeometryERKNS0_11PxTransformENS0_7PxFlagsINS0_9PxHitFlag4EnumEtEEjPS1_fbPNS0_9PxBounds3E
CJh:_Int16_ToString_m2592645088
WPa:__ZN13TranslateGLES4InitERK12GraphicsCaps16GfxDeviceLevelGL
u8b:__Z29Transfer_Blittable_ArrayFieldI18StreamedBinaryReadILb0EE10ColorRGBAfEvRT_R9ArrayInfoRK23StaticTransferFieldInfo
Rtd:__ZN43CapsuleHeightfieldContactGenerationCallback7onEventEjPj
tYe:__ZThn4_N12MemoryStream4readEPvj
rmj:_SerializationInfoEnumerator_Reset_m2206466680
ZIk:__Z48RuntimeInvoker_Void_t1841601450_Slot_t2267560602PK10MethodInfoPvPS2_
_fc:__ZNSt3__26__treeINS_12__value_typeI8UnityStriEENS_19__map_value_compareIS2_S3_NS_4lessIS2_EELb1EEENS_9allocatorIS3_EEE4findIS2_EENS_15__tree_iteratorIS3_PNS_11__tree_nodeIS3_PvEEiEERKT_
fIm:__ZNK15dense_hashtableINSt3__24pairIK10KeyWrapperIP11Il2CppClassES4_EES5_N6il2cpp8metadata16SZArrayClassHashEN14dense_hash_mapIS5_S4_SA_NS9_19SZArrayClassCompareENS0_9allocatorIS7_EEE9SelectKeyESC_SE_E10test_emptyERK24dense_hashtable_iteratorIS7_S5_SA_SG_SC_SE_E
a3a:__ZZ23InitPlayerLoopCallbacksvEN33PostLateUpdateInputEndFramestruct7ForwardEv
isf:__Z32CustomEventData_CUSTOM_AddUInt32P12Il2CppObjectP12Il2CppStringj
Mdm:_GenericEqualityComparer_1_Equals_m1934771410_gshared
iqi:__ZL57DebuggingModes_t2073970606_CustomAttributesCacheGeneratorP21CustomAttributesCache
fUh:__ZN16VirtFuncInvoker0IP12MethodInfo_tE6InvokeEjPv
nYb:__ZN24RingBufferMemoryFileDataD0Ev
M7g:_Collection_1_System_Collections_IList_get_IsFixedSize_m993584401_gshared
zWb:__ZNSt3__26vectorIN30RuntimeInitializeOnLoadManager15ClassMethodInfoE13stl_allocatorIS2_L18MemLabelIdentifier12ELi16EEE8__appendEj
Rfe:__ZN5physx6shdfnd8internal8HashBaseIPNS_13NpVolumeCacheES4_NS0_4HashIS4_EENS1_11HashSetBaseIS4_S6_NS0_9AllocatorELb0EE6GetKeyES8_Lb0EE15reserveInternalEj
Suk:__Z84RuntimeInvoker_Il2CppObject_Il2CppObject_Il2CppObject_Il2CppObject_Int32_t2071877448PK10MethodInfoPvPS2_
p1m:__ZN6il2cpp2os6Memory12AlignedAllocEjj
B0d:__ZN5physx6shdfnd8internal8HashBaseIPKNS_6PxBaseES5_NS0_4HashIS5_EENS1_11HashSetBaseIS5_S7_NS0_9AllocatorELb0EE6GetKeyES9_Lb0EE6createERKS5_Rb
sy:__ZNSt3__26__sortIRPFbRK16NavMeshCarveDataS3_EPS1_EEvT0_S8_T_
e2b:__Z18Transfer_BlittableI17RemapPPtrTransferLb0E11ColorRGBA32EvRK29SerializationCommandArgumentsR31RuntimeSerializationCommandInfo
IMj:_TypeBuilder_get_is_created_m736553860
Nqj:_GameObject_set_layer_m2712461877
mJf:__ZN5physx18RepXPropertyFilterINS_2Sn17RepXVisitorReaderINS_19PxVehicleEngineDataEEEEclILj526ES3_ffEEvRKNS_14PxPropertyInfoIXT_ET0_T1_T2_EEj
Eai:_RSAManaged__ctor_m1370411656
H7b:__Z18Transfer_BlittableI18StreamedBinaryReadILb0EELb1E10ColorRGBAfEvRK29SerializationCommandArgumentsR31RuntimeSerializationCommandInfo
JPe:__ZN5physx7Cooking19computeHullPolygonsERKNS_20PxSimpleTriangleMeshERNS_19PxAllocatorCallbackERjRPNS_6PxVec3ES6_RPjS6_RPNS_13PxHullPolygonE
nxc:__ZL27GetComponentsImplementationILb0ELi0EEbR10GameObjectbRK17CompareParametersRK39GetComponentsImplementation_ReturnValue
zyf:__ZN5physx22PxVehicleWheelsDynData22setTireForceShaderDataEjPKv
Ybl:_InternalEnumerator_1_MoveNext_m3103009949_AdjustorThunk
ZKc:__Z26Material_CUSTOM_SetTextureP12Il2CppObjectiS0_
DLl:_Raycast3DCallback_EndInvoke_m3234280377
Nla:__Z18BuildScriptClassIdP11Il2CppClass
ZHl:_BalancingGroup__ctor_m2474435406
iYd:__ZN5physx12NpConstraint12actorDeletedEPNS_12PxRigidActorE
Fsh:_ColorTweenCallback__ctor_m3619686788
kna:__ZL16ReadTypeTreeImplILb0EEbR8TypeTreeRK16TypeTreeIteratorRPKhS6_i
MZj:__ZN18VirtActionInvoker1IfE6InvokeEjPvf
qT:__ZN25RuntimeAnimatorControllerD2Ev
nqg:_Byte_System_IConvertible_ToInt32_m1032609763_AdjustorThunk
bhc:__ZN9ShaderLab7ProgramD0Ev
UGd:__ZN5physx2Sc8ShapeSim18reinsertBroadPhaseEv
jTl:_PKCS12_GetSymmetricAlgorithm_m3196291685
lDc:__Z42Register_UnityEngine_RectOffset_set_bottomv
Itg:_ArrayListWrapper_IndexOf_m3574835167
zWd:__ZN5physx2Sc5Scene11removeShapeERNS0_8ShapeSimEb
R1i:__ZL76AeroplaneController_t967620215_CustomAttributesCacheGenerator_autoPitchLevelP21CustomAttributesCache
jhb:__ZN28LightProbeProxyVolumeContext8CopyFromERKS_
F$l:_Texture_Internal_GetHeight_m2775530157
zqh:_U3COnFinishSubmitU3Ec__Iterator0_System_Collections_Generic_IEnumeratorU3CobjectU3E_get_Current_m1823105495
joa:__ZN23TransformChangeDispatch32QueueTransformChangeIfHasChangedER18TransformHierarchy
vag:_SymmetricAlgorithm_get_FeedbackSize_m544664262
OBm:__ZNK15dense_hashtableINSt3__24pairIK10KeyWrapperINS1_IPK12PropertyInfoP11Il2CppClassEEEjEES9_17ReflectionMapHashIS8_EN14dense_hash_mapIS9_jSD_19ReflectionMapEqualsIS8_ENS0_9allocatorISB_EEE9SelectKeyESG_SI_E5beginEv
Qfb:__ZN18DeferredRenderLoop15RenderFinalPassEP13RenderTextureS1_
xPf:__ZN13WheelCollider18SetForwardFrictionERK18WheelFrictionCurve
UUa:__ZN7ApiGLES18DeleteRenderbufferERj
EKd:__ZN5physx6shdfnd5ArrayIPvNS0_15InlineAllocatorILj256ENS0_19ReflectionAllocatorINS_16NpConnectorArrayEEEEEE15growAndPushBackERKS2_
MTa:__ZL23ProgramUniformMatrix4fvPK7ApiGLESjiihPKv
Jzi:__ZL67ThreadInterruptedException_t63303933_CustomAttributesCacheGeneratorP21CustomAttributesCache
qAe:__ZN5physx14SingleAABBTaskC2Ev
Nbl:_InternalEnumerator_1_MoveNext_m3629145604_gshared
pdc:__ZN9ShaderLab20SerializedSubProgram15MatrixParameter8TransferI14SafeBinaryReadEEvRT_
kog:_BitConverter_AmILittleEndian_m2716658112
pxc:__ZL27GetComponentsImplementationILb0ELi1EEbR10GameObjectbRK17CompareParametersRK39GetComponentsImplementation_ReturnValue
yjf:_Round_Down_To_Grid
Ixg:_HashValues_GetEnumerator_m4163180309
HVk:_UTF8Decoder__ctor_m1460357288
qwa:__ZN13RenderTexture7ReleaseEv
QFl:_PatternCompiler_EmitBranchEnd_m3390109636
_zg:_Convert_ToByte_m1201588964
QPb:__ZN12MeshRenderer17MainThreadCleanupEv
xzc:__Z36AsyncOperation_Get_Custom_PropIsDoneP12Il2CppObject
aam:_CarAIControl_FixedUpdate_m285444586
GXa:__ZN22CreateGpuProgramOutput12CreateParamsEv
Umj:_RuntimeMethodHandle_GetHashCode_m2682236001_AdjustorThunk
uOm:__ZN15dense_hashtableI10KeyWrapperIP18Il2CppGenericClassES3_N6il2cpp8metadata22Il2CppGenericClassHashEN14dense_hash_setIS3_S6_NS5_25Il2CppGenericClassCompareENSt3__29allocatorIS3_EEE8IdentityES8_SB_E12expand_arrayEjN21dense_hash_map_traits17integral_constantIbLb0EEE
$Ud:__ZNK5physx18NpArticulationLink11getChildrenEPPNS_18PxArticulationLinkEj
vzl:_ActivationServices_AllocateUninitializedClassInstance_m3410698501
CFm:__ZNSt3__26vectorIiNS_9allocatorIiEEE21__push_back_slow_pathIiEEvOT_
LPa:__ZNK14GfxContextGLES13GetDefaultFBOEv
P1i:__ZL75AeroplaneController_t967620215_CustomAttributesCacheGenerator_autoTurnPitchP21CustomAttributesCache
IWm:_GC_promote_black_lists
mw:__ZN22NavMeshProjectSettings8TransferI18StreamedBinaryReadILb0EEEEvRT_
Ayh:_Image_AddQuad_m1600600902
LIe:__Z15atomIntegrationfPKPN5physx11PxsBodyCoreEPKPNS_12PxsRigidBodyEjPKNS_2Cm13SpatialVectorEPNS_13PxcSolverBodyEPNS_17PxcSolverBodyDataEPS9_RjSH_
Wee:__ZN5physx13NpRigidStatic11createShapeERKNS_10PxGeometryEPKPNS_10PxMaterialEtNS_7PxFlagsINS_11PxShapeFlag4EnumEhEE
uLb:__ZN18StreamedBinaryReadILb1EE21TransferSTLStyleArrayI13dynamic_arrayI12SpriteVertexLj4EEEEvRT_17TransferMetaFlags
Cwm:_il2cpp_class_is_enum
Aki:_AuthorityKeyIdentifierExtension_get_Identifier_m3535568551
N4f:_GameObject_AddComponent_TisIl2CppObject_m3813873105_gshared
qya:__ZNSt3__23mapIN9ShaderLab16FastPropertyNameEN18UnityPropertySheet11UnityTexEnvENS_4lessIS2_EENS_9allocatorINS_4pairIKS2_S4_EEEEEixERS9_
$Lh:_IntPtr_ToString_m428195821_AdjustorThunk
GOd:__ZN5physx11NpAggregate22removeActorAndReinsertERNS_7PxActorEb
lQe:__ZZL19ExtractHullPolygonsRjRN5physx2Gu9ContainerERKNS0_17ConvexHullBuilderEPS2_S3_EN5Local9FloodFillES3_PKNS0_11AdjTriangleEjPb
r8g:_Collection_1_System_Collections_IList_Contains_m1897568526_gshared
_Oj:_FieldBuilder_get_FieldType_m2267463269
Fng:_SimpleEnumerator_Clone_m3032847657
KFl:_PatternCompiler_EmitInfo_m597931026
yrm:__ZN6il2cpp2vm13MetadataCache34GetTypeInfoFromTypeDefinitionIndexEi
Q7h:_ModulusRing_Multiply_m3113924743
oMc:__Z47Texture2D_CUSTOM_INTERNAL_CALL_GetPixelBilinearP12Il2CppObjectffR10ColorRGBAf
Gei:_Context_get_ServerSettings_m225713600
Mj:_emscripten_glVertexAttrib4f
uQg:_Enumerator_System_Collections_IEnumerator_get_Current_m3461301268_AdjustorThunk
e6l:_InvokableCall_1_remove_Delegate_m3576859071_gshared
Dch:_ReadOnlyCollection_1_System_Collections_IEnumerable_GetEnumerator_m531171980_gshared
_2e:__ZL28RegisterModuleICalls_Physicsv
Cgc:__ZNSt3__26vectorIN20GpuProgramParameters14ConstantBufferENS_9allocatorIS2_EEE8__appendEj
z1f:_Array_Sort_TisUILineInfo_t3621277874_m3105833015_gshared
sVb:__ZN15ResourceManager23VirtualRedirectTransferER18StreamedBinaryReadILb1EE
Bp:FUNCTION_TABLE_vf
NVh:_MonoType_GetGenericArguments_m2708198481
Uab:__ZN11HaloManager21ReleaseGeometryJobMemEP25DynamicVBOGeometryJobData
VSg:_List_1_AddEnumerable_m2489692396_gshared
oRd:__ZN5physx14NpArticulation26setMaxProjectionIterationsEj
YCd:__ZN5physx3Cct15ObstacleContext14removeObstacleEj
I2l:_Vector3_Slerp_m846771032
DMi:__ZL93TextGenerator_t647235000_CustomAttributesCacheGenerator_TextGenerator_Dispose_cpp_m1755131202P21CustomAttributesCache
e4l:_WaitForSecondsRealtime__ctor_m1734539010
$Vk:_WaitHandle__ctor_m1256161634
hK:__ZN7mecanim12statemachine24CreateStateMachineMemoryEPKNS0_20StateMachineConstantERNS_6memory9AllocatorE
LNa:__ZN9GfxDevice18SetGlobalDepthBiasEff
vuj:_GUILayoutUtility_get_spaceStyle_m1918520192
vum:__ZN6il2cpp6icalls8mscorlib6System8MonoType12get_AssemblyEP20Il2CppReflectionType
$5c:__ZN4PPtrI12MeshRendererE8TransferI14SafeBinaryReadEEvRT_
cph:__ZN16VirtFuncInvoker3IP25AxisEventData_t1524870173fffE6InvokeEjPvfff
x0e:__ZN15CapsuleCollider9SetCenterERK8Vector3f
Yuh:_FontData_get_richText_m2013560754
Ydg:_SecurityException_get_PermissionType_m3543350822
Zj:_emscripten_glGetPointerv
S0l:_Transform_set_position_m2469242620
Bwl:_GenericMixerPlayable_Destroy_m3608330239_AdjustorThunk
vce:__ZNK5physx15NpActorTemplateINS_14PxRigidDynamicEE13getActorFlagsEv
xOi:__ZL60ComputeBufferType_t1048369819_CustomAttributesCacheGeneratorP21CustomAttributesCache
sO:__ZN8Animator22ApplyBuiltinRootMotionEv
Q$l:_Texture2D__ctor_m313689359
eZe:__ZN5physx7profile8ZoneImplINS_28PxProfileNameProviderForwardEE17handleBufferFlushEPKhj
QCl:_AsyncResult_EndInvoke_m2725573545
N9m:__ZNKSt3__28time_getIcNS_19istreambuf_iteratorIcNS_11char_traitsIcEEEEE11do_get_yearES4_S4_RNS_8ios_baseERjP2tm
DOd:__ZN5physx2Sc5ActorC2ERNS0_16InteractionSceneEhNS0_14IslandNodeInfo4TypeE
Y$c:__ZN15ParticleEmitter20UpdateParticleSystemEf
x6f:_RandomNumberGenerator_Create_m2275686895
M_l:_SystemInfo_SupportsRenderTextureFormat_m3185388893
S8h:_ASN1Convert_ToInt32_m2121135414
oIb:__ZN8Renderer23VirtualRedirectTransferER14SafeBinaryRead
bz:__ZNSt3__27__sort5IR17DetailNodeXSorterP16DetailMeshBVNodeEEjT0_S5_S5_S5_S5_T_
kri:__ZL55StreamReader_t2360341767_CustomAttributesCacheGeneratorP21CustomAttributesCache
NNj:_DerivedType_get_UnderlyingSystemType_m3904230233
Ink:__Z135RuntimeInvoker_IntPtr_t_Il2CppObject_Int32_t2071877448_Int32_t2071877448_Int32_t2071877448_Int32_t2071877448_MonoIOErrorU26_t1029615899PK10MethodInfoPvPS2_
R5d:__ZN5physx2Sc9ClothCore16setRestPositionsEPKNS_6PxVec4E
UQc:__ZN5IMGUI14GUIWindowStateD2Ev
qrb:__ZL13MotionHandleriPK27EmscriptenDeviceMotionEventPv
Kbj:_X509Certificate2Collection__ctor_m819526826
LIb:__ZN8Renderer10SetVisibleEb
t_:__ZN12AudioManager5ResetEv
omm:__ZNK15dense_hashtableINSt3__24pairIK10KeyWrapperIPK22Il2CppGenericParameterEP11Il2CppClassEES6_N6il2cpp5utils11PointerHashIS4_EEN14dense_hash_mapIS6_S9_SE_NS0_8equal_toIS6_EENS0_9allocatorISA_EEE9SelectKeyESH_SJ_E12test_deletedEj
f9h:_KeyBuilder_Key_m3814433741
I6h:_ArgumentException__ctor_m158205422
jcg:_SecurityElement_Unescape_m1089723634
tVf:_Array_compare_TisVector3_t2243707580_m3709184876_gshared
wxh:_HorizontalLayoutGroup_SetLayoutHorizontal_m3237355818
aDa:__ZN6prcoreL17RemapGenericFloatI17TexFormatRGBAHalf15TexFormatRGHalfEEvPKNS_9InnerInfoE
nzk:__Z55RuntimeInvoker_Void_t1841601450_ParticleU26_t4066353733PK10MethodInfoPvPS2_
JTm:__ZN6il2cpp6icalls8mscorlib6System11Environment20GetWindowsFolderPathEi
UVi:__ZL60AspectRatioFitter_t3114550109_CustomAttributesCacheGeneratorP21CustomAttributesCache
BJ:__ZN7mecanim5human18HumanPoseBlendNodeERNS0_9HumanPoseEPS1_f
off:_UNITY_FT_RoundFix
Lgc:__ZN9ShaderLab20SerializedSubProgram15AddTextureParamEPKcii16TextureDimension
PG:__ZNK8Animator26GetTypeInfoVirtualInternalEv
z7:__ZN23CloudWebServicesManager23VirtualRedirectTransferER17RemapPPtrTransfer
WTf:_Array_InternalArray__IEnumerable_GetEnumerator_TisResourceInfo_t3933049236_m3580551168_gshared
B2c:__ZL15AccumulateNoiseILb1ELi2EEN4math8floatNx2ERKNS0_8floatNx3ERKfiS6_S6_
kHc:__Z37Register_UnityEngine_Light_get_cookiev
RXb:__Z23AppendPathNameExtensionRKNSt3__212basic_stringIcNS_11char_traitsIcEENS_9allocatorIcEEEES7_
WMe:__ZNK5physx12PxConvexMesh19getConcreteTypeNameEv
hwd:__ZN5physx2Gu19gjkLocalPenetrationINS0_9TriangleVENS0_17ShrunkConvexHullVEEEjRKT_RKT0_RKNS_6shdfnd3aos6FloatVERNSB_5Vec3VESG_SG_RSC_PhSI_Rhb
pim:__ZL24UnresolvedVirtualCall_63P12Il2CppObjectS0_S0_S0_PK10MethodInfo
qMb:__ZN13TrailRenderer23VirtualRedirectTransferER17RemapPPtrTransfer
Wch:_ReadOnlyCollection_1_get_Item_m191392387_gshared
e1:__ZN4FMOD6System17setSoftwareFormatEi17FMOD_SOUND_FORMATii18FMOD_DSP_RESAMPLER
Pxd:__ZN5physx2Gu15GJKLocalRayCastERNS0_9TriangleVERNS0_4BoxVERKNS_6shdfnd3aos6FloatVERKNS6_5Vec3VESC_RS7_RSA_SE_fb
yQe:__ZN5physx18AdjacenciesBuilderC2Ev
Gbk:_Dictionary_2_System_Collections_ICollection_get_IsSynchronized_m960517203_gshared
SGd:__ZN5physx2Sc13ShapeIterator4initERKNS0_8ActorSimE
Tnc:__ZNK20LightPropertyBinding9BindValueER6ObjectRKN11UnityEngine9Animation14GenericBindingERNS3_10BoundCurveE
AIf:__Z31setPxVehicleAutoBoxData_LatencyPN5physx20PxVehicleAutoBoxDataEf
M_k:_Type_MakeByRefType_m1323101575
unf:__ZN2UI6Canvas27UpdateEventIndexesRecursiveERi
eI:__ZN7mecanim9animation18EvaluateRootMotionERKNS0_18ClipMuscleConstantERKNS0_15ClipMuscleInputEPKfS8_RNS0_12MotionOutputEb
Ozh:_InputField_set_characterLimit_m4114734597
pbf:_UNITY_FT_Outline_New
g9f:_SHA1Internal__ctor_m3651539199
QUm:__ZNSt3__218uninitialized_copyIPNS_4pairIK10KeyWrapperIPK19Il2CppGenericMethodEP10MethodInfoEESB_EET0_T_SD_SC_
sdl:_InternalEnumerator_1_get_Current_m741692267_gshared
Hfk:_EqualityComparer_1_System_Collections_IEqualityComparer_Equals_m1738053269_gshared
N6g:_Collection_1__ctor_m1566657168_gshared
H6b:__Z19TransferField_ArrayI19StreamedBinaryWriteILb0EE27Converter_SimpleNativeClassI8GUIStyleEEvRK23StaticTransferFieldInfoR31RuntimeSerializationCommandInfoRT0_
v5f:__ZN18VirtActionInvoker1IP22ByteU5BU5D_t3397334013E6InvokeEjPvS1_
HOf:__ZN5physx46solveTankInternaDynamicsEnginePlusDrivenWheelsERKNS_19ImplicitSolverInputEPKbPKfPNS_20ImplicitSolverOutputE
R0d:__ZN5physx14NpArticulationC2Ev
xqn:_emscripten_glCopyTexSubImage2D__wrapper
tda:__ZNK13ScreenManager12GetIsFocusedEv
GVi:__ZL70SpriteState_t1353336012_CustomAttributesCacheGenerator_m_PressedSpriteP21CustomAttributesCache
Oij:_RemotingServices_RegisterInternalChannels_m1827304423
Awj:_GUIStyle_get_onNormal_m1675201777
DB:__ZL32CleanupAnimationScriptingClassesv
Gbd:__ZN22ParticleSystemRenderer16UpdateCachedMeshEv
etm:__ZNSt3__213__vector_baseIN6il2cpp2os19SocketHandleWrapperENS_9allocatorIS3_EEED2Ev
j$h:_ASN1_get_Length_m3359111015
Tvj:_GUISkin_get_verticalScrollbarThumb_m649633186
wyj:_GUIStyleState_Cleanup_m705006206
b7c:__ZN12LightsModule8TransferI24GenerateTypeTreeTransferEEvRT_
Zc:invoke_viiffi
SWk:_Thread_GetCachedCurrentUICulture_m5590127
qEb:__ZNK12CubemapArray20GetRuntimeMemorySizeEv
Q9l:_Ball__ctor_m3327487804
X2l:_Vector3_Dot_m3161182818
bZa:__ZN9GfxDevice5FlushEv
hec:__Z14resize_trimmedINSt3__26vectorIN9ShaderLab18SerializedPropertyENS0_9allocatorIS3_EEEEEvRT_j
ckm:__ZL25UnresolvedVirtualCall_158P12Il2CppObject18Color32_t874517518PK10MethodInfo
I0g:_List_1_CheckMatch_m4018158235_gshared
MHk:__Z91RuntimeInvoker_Int32_t2071877448_UICharInfo_t3056636800_UICharInfo_t3056636800_Il2CppObjectPK10MethodInfoPvPS2_
die:__ZN5physx6shdfnd8PoolBaseINS_2Sc9ActorPairENS0_19ReflectionAllocatorIS3_EEE12allocateSlabEv
ypk:__Z89RuntimeInvoker_Boolean_t3825574718_Il2CppObject_Il2CppObject_StreamingContext_t1417235061PK10MethodInfoPvPS2_
aqg:_Byte_System_IConvertible_ToDateTime_m1583041031
FYi:__ZL74FirstPersonController_t4132991167_CustomAttributesCacheGenerator_jumpSpeedP21CustomAttributesCache
Vsa:__ZNSt3__26__treeINS_12__value_typeINS_12basic_stringIcNS_11char_traitsIcEENS_9allocatorIcEEEEiEENS_19__map_value_compareIS7_S8_NS_4lessIS7_EELb1EEENS5_IS8_EEE4findIS7_EENS_15__tree_iteratorIS8_PNS_11__tree_nodeIS8_PvEEiEERKT_
J_k:_Type_get_IsGenericParameter_m161434704
KOb:__ZN10VertexData8TransferI24GenerateTypeTreeTransferEEvRT_
vUm:__ZN13Il2CppHashMapIPK19Il2CppGenericMethodP10MethodInfoN6il2cpp8metadata23Il2CppGenericMethodHashENS6_26Il2CppGenericMethodCompareENSt3__29allocatorINS9_4pairIK10KeyWrapperIS2_ES4_EEEEEC2EjRKS7_RKS8_
c3h:_EncryptedData_get_EncryptionAlgorithm_m1301274243
Bfk:_EqualityComparer_1_System_Collections_IEqualityComparer_Equals_m1089835085_gshared
yJf:__Z31getPxVehicleEngineDataMMaxOmegaPKN5physx19PxVehicleEngineDataE
p6a:__ZL10CullLightsRK22SceneCullingParametersR11CullResults
suh:_Dropdown__cctor_m264401557
EBj:_Mathf_Clamp_m3542052159
Ymg:_Array_IndexOf_m2819632474
shl:_Comparer_1__cctor_m3996541505_gshared
cK:__ZN7mecanim12statemachine20GetBlendTreeConstantERKNS0_13StateConstantEi
v$i:__ZL124U3CGenerateCloudsU3Ec__Iterator0_t70719294_CustomAttributesCacheGenerator_U3CGenerateCloudsU3Ec__Iterator0__ctor_m2148953717P21CustomAttributesCache
vdd:__ZZN14ParticleSystem15InitializeClassEvEN16cleanupAfterLoad7ForwardEv
gje:__ZN5physx7NpScene21setDominanceGroupPairEhhRKNS_20PxDominanceGroupPairE
t$j:_ThirdPersonCharacter_Start_m1756018184
zqc:__Z40GetTemporaryCachePathApplicationSpecificv
_La:__ZN9GfxDevice16EndAsyncJobFrameEv
Hyh:_Image_get_minWidth_m1809071077
Ucn:__ZNKSt3__27codecvtIcc11__mbstate_tE11do_encodingEv
jcf:_UNITY_tt_face_load_hhea
jYb:__ZN24RingBufferMemoryFileData11SetGrowableEb
Xtl:_PersistentCall__ctor_m2079279187
yzg:_Convert_ToBase64String_m1936815455
Ul:___syscall3
Yae:__ZNK5physx15NpActorTemplateINS_16PxParticleSystemEE7getNameEv
l9m:__ZNKSt3__27num_putIcNS_19ostreambuf_iteratorIcNS_11char_traitsIcEEEEE6do_putES4_RNS_8ios_baseEcPKv
Xl:___syscall6
lNa:__ZN9GfxDevice15GetNextCPUFenceEv
Zl:___syscall4
tIg:_Decimal_ToString_m759431975
i9g:_Collection_1_System_Collections_IList_get_IsFixedSize_m2204750039_gshared
$0e:__ZN8Collider7PRODUCEE18MemLabelIdentifier18ObjectCreationMode
rjm:__ZL25UnresolvedVirtualCall_119P12Il2CppObjectiaPK10MethodInfo
yqh:_ColorBlock_get_fadeDuration_m987725262
gUi:__ZL195U3CMouseDragOutsideRectU3Ec__Iterator1_t2599668326_CustomAttributesCacheGenerator_U3CMouseDragOutsideRectU3Ec__Iterator1_System_Collections_Generic_IEnumeratorU3CobjectU3E_get_Current_m2602955272P21CustomAttributesCache
SPm:__ZN6il2cpp2vm3RCW14QueryInterfaceILb1EEEP14Il2CppIUnknownP15Il2CppComObjectRK10Il2CppGuid
vmd:__ZNSt3__26__sortIR24RayHitsByDepthComparitorP12RaycastHit2DEEvT0_S5_T_
Hik:__Z59RuntimeInvoker_UnicodeCategory_t682236799_Int16_t4041245914PK10MethodInfoPvPS2_
MVg:_List_1_AddCollection_m3266731889_gshared
Cvi:__ZL59ITrackingHandler_t2759960940_CustomAttributesCacheGeneratorP21CustomAttributesCache
nm:_emscripten_glShaderBinary
pXk:_DelegatePInvokeWrapper_ThreadStart_t3437517264
l0f:_Array_qsort_TisVector2_t2243707579_TisVector2_t2243707579_m3308480721_gshared
$lg:_Array_InternalArray__RemoveAt_m1126483634
yWi:__ZL67LayoutElement_t2808691390_CustomAttributesCacheGenerator_m_MinWidthP21CustomAttributesCache
XZi:__ZL52CameraInfo_t701292889_CustomAttributesCacheGeneratorP21CustomAttributesCache
wea:__ZNK20LocalFileSystemPosix6ExistsERK13FileEntryData
O8k:_InternalEnumerator_1_Dispose_m4038440306_AdjustorThunk
pzk:__Z50RuntimeInvoker_Void_t1841601450_Color32_t874517518PK10MethodInfoPvPS2_
JMd:__ZN5physx35NpArticulationJointGetBodiesFromScbERNS_3Scb17ArticulationJointERPNS0_4BodyES5_
hCl:_SynchronizationAttribute_ReleaseLock_m2873780842
gIg:_DivideByZeroException__ctor_m280382972
pMe:__ZNK5physx2Sc15ClothFabricCore16getTetherLengthsEPfj
ZQi:__ZL114PointerEventData_t1599784723_CustomAttributesCacheGenerator_PointerEventData_get_pointerCurrentRaycast_m1374279130P21CustomAttributesCache
cDj:_Mesh_get_colors32_m4153271224
Nnd:__ZNK17Physics2DSettings26GetTypeInfoVirtualInternalEv
Oqf:__Z58Register_UnityEngine_Canvas_GetETC1SupportedCanvasMaterialv
vGj:_Physics2D_INTERNAL_CALL_GetRayIntersectionAll_m161475998
HE:__ZN17AnimationCurveTplIfE8TransferI18StreamedBinaryReadILb1EEEEvRT_
DGg:_DateTimeOffset_GetHashCode_m3312197462_AdjustorThunk
zuf:__ZN18UnityConnectClientD2Ev
a8i:_ServicePoint_set_UseNagleAlgorithm_m2618011464
xzh:_InputField_get_textComponent_m2074509413
Vvm:_il2cpp_set_data_dir
Yne:__ZN5physx2Sc13ConstraintSim8getForceERNS_6PxVec3ES3_
KJl:_Uri_get_IsUnc_m2111738174
cwb:__ZN16LevelGameManager23VirtualRedirectTransferER19StreamedBinaryWriteILb0EE
iOb:__Z32TransferEnumWithNameForceIntSizeI14SafeBinaryRead16GfxPrimitiveTypeEvRT_RT0_PKc17TransferMetaFlags
Qt:__ZN24dtObstacleAvoidanceQuery22sampleVelocityAdaptiveEPKfS1_fffPffPK25dtObstacleAvoidanceParamsP21dtCrowdAgentDebugInfo
Wfl:_DefaultComparer__ctor_m1961329658_gshared
yRj:_ParameterBuilder_get_Attributes_m2421099277
oU:__ZN7mecanim5human5HumanC2Ev
dIi:__ZL100Quaternion_t4030073918_CustomAttributesCacheGenerator_Quaternion_LookRotation_m700700634____upwards1P21CustomAttributesCache
i_l:_DataUtility_INTERNAL_CALL_GetPadding_m1621366113
JFb:__ZN18StreamedBinaryReadILb1EE21TransferResourceImageE19ActiveResourceImagePKcR13StreamingInfoPvj
xvj:_GUISkin_get_toggle_m4153935270
wrd:__ZN5physx15PxGeometryQuery18computePenetrationERNS_6PxVec3ERfRKNS_10PxGeometryERKNS_11PxTransformES6_S9_
Mtf:__ZN11UnityEngine15PlatformWrapper30GetGraphicsDriverLibraryStringEv
IMi:__ZL51UIVertex_t1204258818_CustomAttributesCacheGeneratorP21CustomAttributesCache
S1e:__ZN5Unity12PhysicsQueryC2Ev
mWg:_List_1_get_Count_m1752597149_gshared
oai:_EncryptedPrivateKeyInfo_Decode_m1706190306
$8j:_ValueCollection_GetEnumerator_m401908452_gshared
W6b:__Z18Transfer_BlittableI18StreamedBinaryReadILb0EELb0E4AABBEvRK29SerializationCommandArgumentsR31RuntimeSerializationCommandInfo
Bjd:__ZNSt3__227__insertion_sort_incompleteIR26ColliderIdentityComparitorPP10Collider2DEEbT0_S6_T_
tGe:__ZN5physx10PxsContext13updateIslandsEfPNS_10PxBaseTaskE
Hrl:_ControllerColliderHit_t4070855101_marshal_pinvoke
HDg:_Convert_ToUInt16_m1665900934
Nem:_Converter_2_BeginInvoke_m898151494_gshared
Drk:__Z52RuntimeInvoker_UInt32_t2149682021_Double_t4078015681PK10MethodInfoPvPS2_
P6c:__ZN11ColorModule8TransferI24GenerateTypeTreeTransferEEvRT_
Nhb:__Z14DrawGUITextureRK5RectTIfEP7Texture11ColorRGBA32P8Materiali
WQl:_Text_get_supportRichText_m3291105891
NJj:_RectTransform_GetParentSize_m1571597933
vN:__ZN9BlobWrite8TransferI22OffsetPtrArrayTransferIKN4math7_float4EEEEvRT_PKc17TransferMetaFlags
Vhh:_ReadOnlyCollection_1_get_Count_m336636247_gshared
Kva:__ZN15TextureSettings8TransferI24GenerateTypeTreeTransferEEvRT_
_vl:_Playables_GetInputWeightValidated_m2453142047
kkk:__Z52RuntimeInvoker_Decimal_t724701077_Double_t4078015681PK10MethodInfoPvPS2_
UEl:_MatchCollection_GetEnumerator_m3516985966
Zin:dynCall_vifi
JYc:__ZN9JSONWrite8TransferI4AABBEEvRT_PKc17TransferMetaFlags
QUk:_UTF7Encoding__ctor_m2365939916
n0a:__ZN25MultiBlocksMemoryFileData9SetLengthEy
Q3:__Z30GetAudioSpatializerDefinitionsR13dynamic_arrayIP29AudioEffectInternalDefinitionLj4EE
U_l:_TextGenerationSettings_Equals_m3944651893_AdjustorThunk
Zrl:_DelegatePInvokeWrapper_StateChanged_t2480912210
KQl:_MatEntry__ctor_m3650167335
ozj:_Input_get_touches_m388011594
IDk:__Z143RuntimeInvoker_Void_t1841601450_Il2CppObject_Vector2_t2243707579_Vector2_t2243707579_Color32_t874517518_Vector2_t2243707579_Vector2_t2243707579PK10MethodInfoPvPS2_
wJe:__ZNK18ScBeforeSolverTask7getNameEv
Fjd:__ZN10Collider2D13AwakeFromLoadE17AwakeFromLoadMode
VEb:__ZNK9Texture2D20GetRuntimeMemorySizeEv
S_k:_TypeInitializationException__ctor_m2993591639
Gwe:__ZN5physx14solve1D4_BlockEPKNS_23PxcSolverConstraintDescEjRNS_16PxcSolverContextE
ffk:_EqualityComparer_1__ctor_m3788663378_gshared
wn:_emscripten_glUniform2iv
Swi:__ZL46DES_t1353513560_CustomAttributesCacheGeneratorP21CustomAttributesCache
Vrd:__ZL33GeomMTDCallback_ConvexHeightFieldRN5physx6PxVec3ERfRKNS_10PxGeometryERKNS_11PxTransformES5_S8_
jBi:__ZL79Convert_t2607082565_CustomAttributesCacheGenerator_Convert_ToSingle_m2156102599P21CustomAttributesCache
R7e:_UNITY_FT_Outline_Transform
jwj:_SkinChangedDelegate_BeginInvoke_m4259161711
dMc:__Z60Register_UnityEngine_Sprites_DataUtility_Internal_GetMinSizev
fnm:__ZN6il2cpp2vm5Class10GetMethodsEP11Il2CppClassPPv
UGf:__ZN5physx6shdfnd5ArrayINS_17PxVehicleTireDataENS0_15InlineAllocatorILj320ENS0_19ReflectionAllocatorIS2_EEEEE8recreateEj
oUm:__ZN6il2cpp6icalls8mscorlib6System13Globalization11CompareInfo22free_internal_collatorEP41mscorlib_System_Globalization_CompareInfo
oIj:_Rect_get_x_m1393582490_AdjustorThunk
Kni:__ZL65Il2CppArray_CustomAttributesCacheGenerator_Array_Sort_m3500510484P21CustomAttributesCache
_cg:_Hash_GetObjectData_m315532943
hQa:__ZN7ApiGLES17DeleteFramebufferERN2gl6HandleILNS0_10ObjectTypeE9EEES3_
Umm:__ZN13dynamic_arrayIP11Il2CppClassLj4EE7reserveEj
GWa:__ZN15UniformTFMethod13MapBoneBufferEj
Cdi:_RecordProtocol_SendAlert_m2816808523
umf:__ZN2UI14CanvasRendererD2Ev
KGi:__ZL90ComputeBuffer_t1827099467_CustomAttributesCacheGenerator_ComputeBuffer_SetData_m3972938986P21CustomAttributesCache
wjl:_Animator_SetFloat_m956158019
fBc:__Z45Register_UnityEngine_Camera_set_nearClipPlanev
o9k:_InternalEnumerator_1_get_Current_m3296972783_gshared
NBe:__ZN5physx26PxcPCMContactCapsuleConvexERKNS_2Gu13GeometryUnionES3_RKNS_11PxTransformES6_RKfRNS_10PxcNpCacheERNS0_13ContactBufferE
jIg:_Decimal_CompareTo_m2454501434
Wxf:__ZN5physx28PxVehicleComputeSprungMassesEjPKNS_6PxVec3ERS1_fjPf
QTj:_MonoEvent_get_Name_m2796714646
bsa:__Z9SetupArgviPPKc
rUf:_Array_InternalArray__IEnumerable_GetEnumerator_TisHitInfo_t1761367055_m2486283755_gshared
r_c:__ZN9rapidjson13GenericReaderINS_4UTF8IcEES2_13JSONAllocatorE11ParseObjectILj0ENS_19GenericStringStreamIS2_EENS_15GenericDocumentIS2_S3_S3_EEEEvRT0_RT1_
Wpg:_Convert_ToBoolean_m2032547942
Kth:_OptionData__ctor_m743450704
_4e:__Z57Register_UnityEngine_Rigidbody_INTERNAL_CALL_MoveRotationv
$6g:_Collection_1_System_Collections_IList_get_IsReadOnly_m4107374652_gshared
Kei:_Context_get_SentConnectionEnd_m3114190867
HPd:__ZN5physx10PxsContext17addParticleSystemEPNS_15PxsParticleDataERKNS_26PxvParticleSystemParameterEb
DNd:__ZN5physx3Scb5Scene13addRigidNoSimINS0_4BodyELb1ELb1EEEvRT_RNS0_13ObjectTrackerE
Qwb:__ZN12ImmediatePtrI10GameObjectE8TransferI19StreamedBinaryWriteILb0EEEEvRT_
uEb:__ZN12CubemapArray23VirtualRedirectTransferER24GenerateTypeTreeTransfer
RUj:_MonoMethod_ToString_m1014895917
Ona:__ZN12FileAccessor4OpenER15FileSystemEntry14FilePermission16FileAutoBehavior
LVm:__ZN6il2cpp2os9Directory6CreateERKNSt3__212basic_stringIcNS2_11char_traitsIcEENS2_9allocatorIcEEEEPi
Dza:__ZN4PPtrI6ShaderE8TransferI18StreamedBinaryReadILb0EEEEvRT_
fxd:__ZL19sweepBoxVsTrianglesjPKN5physx10PxTriangleERKNS_2Gu3BoxERKNS_6PxVec3EfRNS_10PxSweepHitENS_7PxFlagsINS_9PxHitFlag4EnumEtEEbPKj
dnh:_PointerEventData_set_clickTime_m3931922487
ltj:_WindowFunction__ctor_m977095815
yFh:_NumberFormatter_AppendNonNegativeNumber_m629862866
tAa:__ZNSt3__26vectorINS_4pairIN9ShaderLab16FastPropertyNameEN18UnityPropertySheet11UnityTexEnvEEENS_9allocatorIS6_EEE21__push_back_slow_pathIKS6_EEvRT_
Q1a:__ZN15ArchiveReadFile5WriteEyPKvPy
sxl:_ResourceInfo__ctor_m2401359321_AdjustorThunk
Ewg:_Hashtable__ctor_m392789568
B2i:__ZL83AeroplanePropellerAnimator_t4010696859_CustomAttributesCacheGenerator_propellorBlurP21CustomAttributesCache
BWk:_Mutex_CreateMutex_internal_m2352956576
mpn:_glGenSamplers__wrapper
RUk:_UTF7Encoding__cctor_m4192443836
Xyk:__Z73RuntimeInvoker_Boolean_t3825574718_Playable_t3667545548_Int32_t2071877448PK10MethodInfoPvPS2_
Qra:__ZN13RuntimeStaticI15ApplicationInfoE13StaticDestroyEPv
SSc:__Z31GUIStyle_CUSTOM_SetFontInternalP12Il2CppObjectS0_
A:tempValue
Eob:__Z29StdTemplateConversionFunctionIaiEbPvR14SafeBinaryRead
I1m:__ZN6il2cpp8metadata24Il2CppGenericContextHash4HashEPK20Il2CppGenericContext
HJb:__ZN15QualitySettings8TransferI18StreamedBinaryReadILb1EEEEvRT_
TIh:_Int16_System_IConvertible_ToSingle_m3277935657
Pja:__Z29scripting_class_from_fullnamePKcS0_S0_
voh:_StandaloneInputModule_get_inputMode_m1415645893
Xkd:__ZN10Collider2D23VirtualRedirectTransferER18StreamedBinaryReadILb1EE
VV:__ZZN8Animator15InitializeClassEvEN32FunctorImpl_386kTransformChanged4CallEPviR11MessageData
jHi:__ZL97GameObject_t1756533147_CustomAttributesCacheGenerator_GameObject_GetComponentInParent_m1235194528P21CustomAttributesCache
Gr:__ZN12NavMeshAgent23VirtualRedirectTransferER24GenerateTypeTreeTransfer
Jek:_EqualityComparer_1_System_Collections_IEqualityComparer_Equals_m300683774_gshared
csd:__ZN5physx2Gu29ConvexVsMeshContactGeneration20generateLastContactsEv
ied:__ZN14ParticleSystem7PRODUCEE18MemLabelIdentifier18ObjectCreationMode
pKd:__ZNK5physx2Gu22SupportMapRelativeImplINS0_4BoxVEE14doSupportSweepERKNS_6shdfnd3aos5Vec3VE
kan:__ZNSt3__220__get_up_to_n_digitsIcNS_19istreambuf_iteratorIcNS_11char_traitsIcEEEEEEiRT0_S5_RjRKNS_5ctypeIT_EEi
oye:__ZN5physx14SapPairManagerD2Ev
U3:__ZN11AudioSource19CreateOpenALRolloffEfff
Ycf:_UNITY_FT_Stream_ReadAt
uJi:__ZL111Object_t1021602117_CustomAttributesCacheGenerator_Object_DestroyImmediate_m3563317232____allowDestroyingAssets1P21CustomAttributesCache
EBk:__Z132RuntimeInvoker_Void_t1841601450_Rect_t3681755626_Il2CppObject_Int32_t2071877448_Int32_t2071877448_Int32_t2071877448_SByte_t454417549PK10MethodInfoPvPS2_
S8d:__ZN5physx2Sc17ParticleSystemSim16getParticleStateEv
CIe:__ZN5physx6shdfnd5ArrayINS_25PxsCompoundContactManagerENS0_19ReflectionAllocatorIS2_EEE8recreateEj
VXi:__ZL75PlatformerCharacter2D_t2752558133_CustomAttributesCacheGenerator_airControlP21CustomAttributesCache
axj:_GUIStyle_get_lineHeight_m2132859383
M6b:__Z46EmitSerializationCommandsForManagedObjectFieldI18StreamedBinaryReadILb0EEEvRK18TransferField_InfoR32SerializationCommandQueueBuilderRP20AllowNameConversions
Myf:__ZN5physx15PxVehicleWheels5setupEPNS_9PxPhysicsEPNS_14PxRigidDynamicERKNS_22PxVehicleWheelsSimDataEjj
$Hk:__Z102RuntimeInvoker_Int32_t2071877448_Il2CppObject_UIVertex_t1204258818_Int32_t2071877448_Int32_t2071877448PK10MethodInfoPvPS2_
CLi:__ZL82Physics2D_t2540166467_CustomAttributesCacheGenerator_Physics2D_Raycast_m1220041042P21CustomAttributesCache
geh:_ReadOnlyCollection_1_System_Collections_Generic_IListU3CTU3E_RemoveAt_m2137782652_gshared
tul:_UnityEvent_FindMethod_Impl_m3303953986
Tj:_glReadBuffer
X_k:_UInt16_System_IConvertible_ToBoolean_m887616848
ZWa:__Z26TransformVerticesInnerLoopILb1ELb1ELb1EEvPhRK10Matrix4x4fRK10Matrix3x3fjPKhiiiS8_ii25GfxTransformVerticesFlags
yze:__ZN5physx14PxsAABBManagerC2ERNS_2Cm13EventProfilerERNS_19PxcScratchAllocatorE
fGi:__ZL120ScriptableObject_t1975622470_CustomAttributesCacheGenerator_ScriptableObject_Internal_CreateScriptableObject_m1778903390P21CustomAttributesCache
x5:__ZN11AudioModule22CreateAudioClipFromWWWEP10IWWWStreamPKcbbi
dik:__Z142RuntimeInvoker_Boolean_t3825574718_Il2CppObject_Int32_t2071877448_Il2CppObject_SByte_t454417549_UInt32U26_t2197289955_ExceptionU26_t1467204777PK10MethodInfoPvPS2_
Vkg:_StringBuilder_set_Length_m3039225444
c9g:_Collection_1_System_Collections_IList_Contains_m3870109702_gshared
GCf:__Z48getPxVehicleTireLoadFilterDataMMinNormalisedLoadPKN5physx27PxVehicleTireLoadFilterDataE
qRf:_Array_InternalArray__ICollection_Contains_TisRaycastResult_t21186376_m3188614988_gshared
l9j:_Dictionary_2_System_Collections_Generic_ICollectionU3CSystem_Collections_Generic_KeyValuePairU3CTKeyU2CTValueU3EU3E_get_IsReadOnly_m1111602362_gshared
sEg:_CultureAwareComparer_GetHashCode_m3681260951
tof:__Z13RegisterClassIN2UI11CanvasGroupEEvv
O8l:_U3CStartU3Ec__Iterator0__ctor_m951808111_gshared
tt:__ZN7dtCrowd17requestMoveTargetEiyPKf
KLl:_Selectable__ctor_m1440593935
Odb:__ZN15SHConstantCacheC2ER13BatchRendererR15RenderLoopStats
S0a:__ZN14dense_hash_mapINSt3__212basic_stringIcNS0_11char_traitsIcEE13stl_allocatorIcL18MemLabelIdentifier54ELi16EEEEP20ArchiveStorageReader11djb2_hash_tIS7_ENS0_8equal_toIS7_EES4_INS0_4pairIKS7_S9_EELS5_54ELi16EEE15set_deleted_keyERSF_
ghm:__ZL23UnresolvedVirtualCall_0P12Il2CppObjectS0_PK10MethodInfo
wug:_SynchronizedArrayListWrapper_get_Count_m4104930530
D0h:_KeyPairPersistence_ProtectUser_m4103539639
sni:__ZL65Il2CppArray_CustomAttributesCacheGenerator_Array_Clear_m782967417P21CustomAttributesCache
hhn:___cxa_guard_abort
XTk:_AeroplaneController_set_RollInput_m1203669189
fMj:_CustomAttributeTypedArgument_t1498197914_marshal_pinvoke_back
bma:__ZN14MessageHandler28MessageIDToMessageIdentifierEi
R6i:_HttpRequestCreator_Create_m3607509610
aNi:__ZL50GUISkin_t1436893342_CustomAttributesCacheGeneratorP21CustomAttributesCache
Yim:__ZL24UnresolvedVirtualCall_98P12Il2CppObject8IntPtr_tPK10MethodInfo
K1g:_List_1_Shift_m3824049528_gshared
Bjj:_ArrayFixupRecord__ctor_m3659990982
Wei:_Context_get_RandomCS_m3946020109
omi:__ZL72IntPtr_t_CustomAttributesCacheGenerator_IntPtr_op_Inequality_m3044532593P21CustomAttributesCache
Ath:_Dropdown_get_onValueChanged_m3334401942
C_m:__ZN6il2cpp2vm10WaitHandle19NewManualResetEventEb
Seh:_ReadOnlyCollection_1_System_Collections_IList_Contains_m3707723158_gshared
Yzm:__ZNK15dense_hashtableINSt3__24pairIK10KeyWrapperIPK10Il2CppTypeEjEES6_N6il2cpp8metadata14Il2CppTypeHashEN14dense_hash_mapIS6_jSB_NSA_17Il2CppTypeCompareENS0_9allocatorIS8_EEE9SelectKeyESD_SF_E10test_emptyERK30dense_hashtable_const_iteratorIS8_S6_SB_SH_SD_SF_E
U2k:_Version_GetHashCode_m880841176
jil:_CustomEventData_Add_m4160204358
ufm:_Nullable_1_ToString_m1238126148_AdjustorThunk
Ke:emscriptenWebGLGetUniform
oq:FUNCTION_TABLE_iiiiiiiiiii
UZi:__ZL55Blur_t720379391_CustomAttributesCacheGenerator_blurSizeP21CustomAttributesCache
jzd:__ZN5physx2Gu19sweepCapsuleCapsuleERKNS0_7CapsuleES3_RKNS_6PxVec3EfRfRS4_S8_jRt
_ue:__ZN5physx2Gu29EPASupportMapPairRelativeImplINS0_9TriangleVENS0_11ConvexHullVEED0Ev
yHa:__Z32TransferEnumWithNameForceIntSizeI14SafeBinaryRead13TextureFormatEvRT_RT0_PKc17TransferMetaFlags
IUi:__ZL86Scrollbar_t3248359358_CustomAttributesCacheGenerator_Scrollbar_ClickRepeat_m3403943364P21CustomAttributesCache
bvl:_Playables_CheckInputBounds_m2953342617
o8a:__ZL10CleanUpJobP20CullingGroupsJobData
srg:_Convert_ToInt32_m3683486440
Ehg:_String_Join_m1966872927
Acb:__Z20IsRunningNativeTestsv
Pal:_InternalEnumerator_1_System_Collections_IEnumerator_get_Current_m2035754659_AdjustorThunk
PMe:__ZN5physx13BigConvexData4LoadERNS_13PxInputStreamE
Ghb:__ZN13RenderManager15BatchModeUpdateEv
eBm:__ZN15dense_hashtableINSt3__24pairIK10KeyWrapperINS1_IPK11Il2CppImageP11Il2CppClassEEEjEES9_17ReflectionMapHashIS8_EN14dense_hash_mapIS9_jSD_19ReflectionMapEqualsIS8_ENS0_9allocatorISB_EEE9SelectKeyESG_SI_E5clearEv
Sfm:_Predicate_1_EndInvoke_m973058386_gshared
XHi:__ZL52LayerMask_t3188175821_CustomAttributesCacheGeneratorP21CustomAttributesCache
dlh:_RaycasterManager_RemoveRaycasters_m3465850111
NMb:__ZN14SafeBinaryRead21TransferSTLStyleArrayI13dynamic_arrayI8Vector2fLj4EEEEvRT_17TransferMetaFlags
oAa:__ZN17PersistentManager51InstanceIDToLocalSerializedObjectIdentifierInternalEiR31LocalSerializedObjectIdentifier
lWj:_StrongNameKeyPair_System_Runtime_Serialization_IDeserializationCallback_OnDeserialization_m2330221363
MWd:__ZN5physx2Sc8ActorSim24postDominanceGroupChangeEv
_rk:__Z116RuntimeInvoker_Boolean_t3825574718_Il2CppObject_Int32_t2071877448_Int32_t2071877448_Il2CppObject_Int32U26_t455636984PK10MethodInfoPvPS2_
me:_glVertexAttribIPointer
m2k:_UnhandledExceptionEventHandler_EndInvoke_m2207457167
hzm:__ZN15dense_hashtableINSt3__24pairIK10KeyWrapperINS1_IPK9FieldInfoP11Il2CppClassEEEjEES9_17ReflectionMapHashIS8_EN14dense_hash_mapIS9_jSD_19ReflectionMapEqualsIS8_ENS0_9allocatorISB_EEE9SelectKeyESG_SI_EC2ERKSL_j
j9j:_Dictionary_2_System_Collections_ICollection_get_IsSynchronized_m304009368_gshared
VYe:__ZN5physx7profile8ZoneImplINS_28PxProfileNameProviderForwardEEC2EPNS_19PxAllocatorCallbackEPKcjRKS2_
EXd:__ZN5physx2Cm8PtrTable5clearERNS0_22PtrTableStorageManagerE
A8:__ZNSt3__215basic_stringbufIcNS_11char_traitsIcEENS_9allocatorIcEEE7seekoffExNS_8ios_base7seekdirEj
yQf:_Array_InternalArray__ICollection_Contains_TisTableRange_t2011406615_m605506746_gshared
nTg:_List_1_Sort_m785723827_gshared
zzf:__ZN5physx27PxVehicleDifferentialNWData20setDrivenWheelStatusEj
oDg:_Decimal_op_Explicit_m729046406
VCd:__ZN5physx3Cct15ObstacleContext7releaseEv
Pvh:_Graphic_OnEnable_m2900261811
kwe:__ZN5physx27solveFrictionBlockWriteBackEPKNS_23PxcSolverConstraintDescEjRNS_16PxcSolverContextEPNS_25PxcThresholdStreamElementEjPi
voj:_CryptographicUnexpectedOperationException__ctor_m3552441227
Etg:_ArrayListWrapper_Clear_m321161741
aBh:_InputField_LineDownCharacterPosition_m2690468785
Xcf:_UNITY_ft_glyphslot_alloc_bitmap
jLk:__Z56RuntimeInvoker_ContentType_t1028629049_Int32_t2071877448PK10MethodInfoPvPS2_
LEk:__Z33RuntimeInvoker_Corner_t1077473318PK10MethodInfoPvPS2_
g0c:__ZL36RegisterModuleICalls_ParticlesLegacyv
D1f:_Array_Sort_TisVector2_t2243707579_TisVector2_t2243707579_m2582252549_gshared
X0k:_UInt64_System_IConvertible_ToDouble_m2828923873
jnk:__Z45RuntimeInvoker_Il2CppObject_Int16_t4041245914PK10MethodInfoPvPS2_
xNl:_ScrollRect_set_verticalScrollbarVisibility_m2424788384
DYg:_List_1_System_Collections_IList_set_Item_m1129584681_gshared
ref:_ft_raster1_render
UXl:_Rigidbody_INTERNAL_CALL_AddForceAtPosition_m1863309522
yKc:__Z57Register_UnityEngine_RectTransform_INTERNAL_set_anchorMaxv
pHc:__Z36Quaternion_CUSTOM_INTERNAL_CALL_LerpRK11QuaternionfS1_fRS_
rTg:_List_1_set_Capacity_m491101164_gshared
sfn:__ZNKSt3__221__basic_string_commonILb1EE20__throw_length_errorEv
hlg:_StringBuilder_Insert_m1733097906
Uuk:__Z88RuntimeInvoker_Void_t1841601450_Il2CppObject_Int32_t2071877448_Il2CppObject_Il2CppObjectPK10MethodInfoPvPS2_
ik:_JS_SystemInfo_GetMemory
mjn:dynCall_fiffifi
DGm:__ZN14dense_hash_mapI10KeyWrapperINSt3__24pairIP11Il2CppClassjEEES4_N6il2cpp8metadata14ArrayClassHashENS8_17ArrayClassCompareENS1_9allocatorINS2_IKS6_S4_EEEEEC2EjRKS9_RKSA_
D3j:_Comparer_1__ctor_m1157133632_gshared
Aji:_SslStreamBase_get_HashStrength_m480059173
rVa:__ZN18GfxFramebufferGLES13ReadbackImageER14ImageReferenceiiiiii
Wzm:__ZN30dense_hashtable_const_iteratorINSt3__24pairIK10KeyWrapperIPK10Il2CppTypeEjEES6_N6il2cpp8metadata14Il2CppTypeHashEN14dense_hash_mapIS6_jSB_NSA_17Il2CppTypeCompareENS0_9allocatorIS8_EEE9SelectKeyESD_SF_EppEv
b8j:_ValueCollection_System_Collections_Generic_ICollectionU3CTValueU3E_Clear_m3271993638_gshared
Kha:__ZN13RuntimeStaticI11WindManagerE13StaticDestroyEPv
HBa:__ZN6prcoreL12RemapGenericI17TexFormatARGB888815TexFormatRGB565EEvPKNS_9InnerInfoE
K$:__ZN4FMOD7Channel19setReverbPropertiesEPK29FMOD_REVERB_CHANNELPROPERTIES
Cla:__ZN13MonoBehaviour22GetScriptFullClassNameEv
hxm:_il2cpp_object_get_class
JIe:__ZN5physx6shdfnd4sortIPNS_15PxsContactPatchENS_27SortBoundsPredicateManifoldENS0_19ReflectionAllocatorIS3_EEEEvPT_jRKT0_RKT1_j
tri:__ZL111DerivedType_t1016359113_CustomAttributesCacheGenerator_DerivedType_MakeGenericType_m742223168____typeArguments0P21CustomAttributesCache
VDc:__Z48Register_UnityEngine_GameObject_BroadcastMessagev
zbb:__ZN13BatchRendererC2ER15RenderLoopStatsRK15RenderNodeQueuebb
$6i:_ServicePointManager_FindServicePoint_m3137356168
nk:_emscripten_glGetVertexAttribfv
sGa:__ZN20SphericalHarmonicsL211AddWeightedERKS_f
Tcl:_InternalEnumerator_1_MoveNext_m725174512_gshared
iie:__ZN5physx2Sc24ElementInteractionMarker12onDeactivateEj
Mnh:_PointerInputModule_GetPointerData_m1695674453
Cuj:__Z14bankers_roundff
j3b:__Z19TransferField_ArrayI17RemapPPtrTransfer27Converter_SimpleNativeClassI8GUIStyleEEvRK23StaticTransferFieldInfoR31RuntimeSerializationCommandInfoRT0_
JLa:__ZN19GfxThreadableDevice20SetShadersMainThreadERK11SubProgramsPK19ShaderPropertySheetS5_
lEg:_Convert_ToUInt64_m345450801
xfm:_Predicate_1_BeginInvoke_m2559992383_gshared
HSm:__ZN6il2cpp2vm3RCW7CleanupEP15Il2CppComObject
IYc:__ZN9JSONWrite8TransferI10ColorRGBAfEEvRT_PKc17TransferMetaFlags
mJk:__Z52RuntimeInvoker_Void_t1841601450_Keyframe_t1449471340PK10MethodInfoPvPS2_
kWe:__ZN14PhysicsManager23VirtualRedirectTransferER19StreamedBinaryWriteILb0EE
Fbm:_Wheel_set_MaxRpm_m3932541828
rfn:__ZNSt13runtime_errorC2EPKc
HKc:__Z35Register_UnityEngine_Resources_Loadv
y0b:__Z19TransferField_ArrayI14SafeBinaryRead16Converter_StringEvRK23StaticTransferFieldInfoR31RuntimeSerializationCommandInfoRT0_
W5m:_rename
WYm:_GC_exit_check
QPf:__Z32WheelCollider_Get_Custom_PropRpmP12Il2CppObject
eWh:_NotSupportedException__ctor_m3232764727
KC:__ZN7mecanim9animation9DenseClip8TransferI14SafeBinaryReadEEvRT_
o6i:_TypeConverterAttribute_Equals_m2330345916
Xsd:__ZNK5physx2Gu15OBBTriangleTest10obbTriTestERKNS_6PxVec3ES4_S4_
wRk:_U3CFOVKickUpU3Ec__Iterator0_System_Collections_Generic_IEnumeratorU3CobjectU3E_get_Current_m904352980
ska:__Z20UnlockObjectCreationv
cGg:_DateTime_ToString_m1117481977
iuk:__Z55RuntimeInvoker_Il2CppObject_RegexOptionsU26_t3063574985PK10MethodInfoPvPS2_
tNh:_MonoIO_CreateDirectory_m379525469
F$b:__Z34scripting_class_array_element_sizeP11Il2CppClass
mN:__ZN9BlobWrite8TransferI22OffsetPtrArrayTransferI9OffsetPtrIN7mecanim12statemachine18StateMachineMemoryEEEEEvRT_PKc17TransferMetaFlags
saf:_UNITY_ft_smooth_renderer_class_pic_free
Lkm:__ZL25UnresolvedVirtualCall_193P12Il2CppObjectaPK10MethodInfo
q$g:_List_1_System_Collections_IList_Remove_m3763718607_gshared
iml:_Bounds_get_center_m129401026
kg:_emscripten_glStencilOpSeparate
tgg:_String_Concat_m2000667605
nRl:_Text_set_lineSpacing_m3040793467
btm:__ZN6il2cpp2os19SocketHandleWrapperC2ERKS1_
xVm:__ZN6il2cpp2vm6String8NewUtf16EPKDsi
c3i:__ZL77CarController_t563615006_CustomAttributesCacheGenerator_maxSpeedSteerResponseP21CustomAttributesCache
CRm:__ZN6il2cpp2os10ThreadImpl12QueueUserAPCEPFvPvES2_
hfn:__ZNSt3__211__call_onceERVmPvPFvS2_E
KY:__Z32TransferEnumWithNameForceIntSizeI14SafeBinaryReadN10SampleClip17CompressionFormatEEvRT_RT0_PKc17TransferMetaFlags
Z7e:__ZN20TextRenderingPrivate15DynamicFontData36GetFaceForCharacterIfAvailableInFontERKNS_7FontRefERKNSt3__26vectorI4PPtrIN13TextRendering4FontEE13stl_allocatorIS9_L18MemLabelIdentifier34ELi16EEEEj
WDd:__ZN5physx12PxControllerD2Ev
g2i:__ZL106AeroplaneController_t967620215_CustomAttributesCacheGenerator_AeroplaneController_get_Throttle_m1358788721P21CustomAttributesCache
lXj:_CameraSwitch__ctor_m1400056560
Qyd:__ZNK5physx2Gu15HeightFieldUtil12traceSegmentI25CapsuleTraceSegmentReportLb0ELb0ELb1EEEvRKNS_6PxVec3ES6_PT_PS5_
BBd:__ZN5physx3Cct17CapsuleController13setStepOffsetEf
Sjf:_UNITY_FT_Hypot
MAe:__ZN5physx10PxsContext23prepareCMDiscreteUpdateEPNS_10PxBaseTaskE
Mma:__ZNK14SerializedFile12GetHighestIDEv
f5e:__Z43Register_UnityEngine_SpringJoint_set_damperv
K$m:__ZN6il2cpp2vm13ComObjectBaseINS0_13ManagedObjectE18Il2CppIInspectableNS0_7details6ComNilES5_S5_S5_S5_S5_S5_E6AddRefEv
xyi:__ZL95ASCIIEncoding_t3022927988_CustomAttributesCacheGenerator_ASCIIEncoding_GetByteCount_m1396020051P21CustomAttributesCache
Izj:_Joint_set_anchor_m4209051050
fXd:__ZN5physx6shdfnd5ArrayIPvNS0_19ReflectionAllocatorINS_2Cm5BlockIhLj256EEEEEE4copyINS0_15InlineAllocatorILj256ES7_EEEEvRKNS1_IS2_T_EE
G9m:__ZNSt3__28time_getIcNS_19istreambuf_iteratorIcNS_11char_traitsIcEEEEED2Ev
Eg:_emscripten_glGetError
x0:__Z14FMOD_FILE_SeekPvjS_
GPg:_Enumerator_VerifyState_m435841047_AdjustorThunk
Lmi:__ZL72Enum_t2459695545_CustomAttributesCacheGenerator_Enum_ToObject_m604645223P21CustomAttributesCache
M_d:__ZN5physx6shdfnd8PoolBaseINS_11NpAggregateENS0_19ReflectionAllocatorIS2_EEE15disposeElementsEv
Q5j:_ShimEnumerator_get_Entry_m2387156530_gshared
cyd:__ZThn4_N16RayRTreeCallbackILi1ELb1EE14processResultsEjPj
vib:__ZNK13RenderTexture32CalculateNeedsInvertedProjectionEv
JCd:__ZN5physx2Gu17RadixSortBuffered4SortEPKfj
Mg:emscriptenWebGLGet
Lrf:__ZN14UnityAnalytics15SendCustomEventERK8UnityStr
vZl:_Shader_get_isSupported_m344486701
mmc:__ZN12CubemapArray11InitTextureEiii13TextureFormatb
XBa:__ZN6prcoreL18BlitIntegerToFloatERK14ImageReferenceRS0_
P$l:_Texture_INTERNAL_get_texelSize_m3180609662
VKi:__ZL93Physics_t634932869_CustomAttributesCacheGenerator_Physics_RaycastAll_m410413656____layerMask2P21CustomAttributesCache
v8i:__ZN16VirtFuncInvoker1IP8String_tiE6InvokeEjPvi
D4m:_exp2f
j$a:__ZNK15Lz4Decompressor20DecompressStreamInitEPPv
j5g:_Collection_1_set_Item_m3803272710_gshared
hDj:_Mesh_SetUVs_m841280343
bVj:_MonoMethodInfo_t3646562144_marshal_pinvoke_cleanup
taj:_X509Certificate2_get_SignatureAlgorithm_m3069898012
Q6i:_HttpRequestCreator__ctor_m2513916021
QJd:__ZN27ConvexVsMeshOverlapCallbackC2ERKN5physx2Gu10ConvexMeshERKNS0_11PxMeshScaleERKNS0_2Cm23FastVertex2ShapeScalingERKNS0_11PxTransformESE_bRKNS1_3BoxE
Quc:__Z18SetIParticleSystemP15IParticleSystem
Kxj:_GUIStyle_INTERNAL_CALL_Internal_CalcSizeWithConstraints_m1203344891
YN:__ZN7mecanim5human13HumanFixTwistEPKNS0_5HumanEPNS_8skeleton13SkeletonPoseTIN4math4trsXEEES9_iiRKf
fdb:__ZL24AssignProjectorQueuesJobP30AssignProjectorQueuesJobHeader
iYk:_TimeSpan_get_Hours_m3804628138
Xuh:_FontData_set_alignByGeometry_m2819509290
bGl:_Regex__ctor_m3250610064
Rll:_AudioSource_get_clip_m2127996365
Igc:__ZN9ShaderLab20SerializedSubProgram14SetConstBufferEPKci
C9c:__ZN11ShapeModule9ResetSeedERK27ParticleSystemReadOnlyState
M6h:_ArgumentNullException__ctor_m911049464
sTj:_TargetParameterCountException__ctor_m2760108938
t2e:__ZN13PhysicsModule17SetRigidBodyStateER9RigidbodyRKN8IPhysics14RigidBodyStateE
kKf:__ZN5physx18RepXPropertyFilterINS_2Sn17RepXVisitorReaderINS_23PxVehicleDriveSimDataNWEEEEclILj663ENS_21PxVehicleDriveSimDataERKNS_19PxVehicleEngineDataES8_EEvRKNS_14PxPropertyInfoIXT_ET0_T1_T2_EEj
v6l:_InvokableCall_4_Find_m1467690987_gshared
xjh:_Comparison_1_Invoke_m345024424_gshared
rgf:_cf2_getStdVW
Cgh:_ReadOnlyCollection_1_System_Collections_IList_Insert_m3936197025_gshared
ZLg:_EventHandler_BeginInvoke_m3027583606
Tca:__Z40DebugStringToFilePostprocessedStacktraceRK21DebugStringToFileData
Ore:__ZN5physx2Sq12BucketPruner11shiftOriginERKNS_6PxVec3E
QWc:__Z29Transfer_Blittable_ArrayFieldI8JSONReadjEvRT_R9ArrayInfoRK23StaticTransferFieldInfo
bel:_InternalEnumerator_1__ctor_m3220229132_AdjustorThunk
eNd:__ZN5physx6shdfnd5ArrayIPNS_2Sc16ArticulationCoreENS0_19ReflectionAllocatorIS4_EEE15growAndPushBackERKS4_
t_l:_StateMachineBehaviour_OnStateEnter_m1095276890
eEj:_Object_GetInstanceID_m1920497914
RBl:_ContextAttribute__ctor_m4006843177
mR:__ZN18StreamedBinaryReadILb1EE21TransferSTLStyleArrayI13dynamic_arrayI4PPtrI13AnimationClipELj4EEEEvRT_17TransferMetaFlags
pal:_InternalEnumerator_1_get_Current_m314017974_AdjustorThunk
sh:__setLetterbox
FAa:__ZNSt3__26__treeINS_12__value_typeIN9ShaderLab16FastPropertyNameEfEENS_19__map_value_compareIS3_S4_NS_4lessIS3_EELb1EEENS_9allocatorIS4_EEE12__find_equalIS3_EERPNS_16__tree_node_baseIPvEENS_21__tree_const_iteratorIS4_PNS_11__tree_nodeIS4_SE_EEiEESH_RKT_
iHe:__ZN5physx19normalizePartitionsERNS_6shdfnd5ArrayIjNS0_19ReflectionAllocatorIjEEEEPNS_23PxcSolverConstraintDescEPKNS_13PxcSolverBodyEjjS5_
t$l:_TextGenerator_Populate_Internal_m1817393161
Jpi:__ZL57CollectionBase_t1101587467_CustomAttributesCacheGeneratorP21CustomAttributesCache
Std:__ZN18ContactCapsuleMesh20processTriangleCacheILj16EEEbRN5physx2Gu13TriangleCacheIXT_EEE
L1i:__ZL73AeroplaneController_t967620215_CustomAttributesCacheGenerator_pitchEffectP21CustomAttributesCache
aOb:__ZNSt3__26vectorI17BlendShapeChannelNS_9allocatorIS1_EEE6assignINS_11__wrap_iterIPS1_EEEENS_9enable_ifIXaasr21__is_forward_iteratorIT_EE5valuesr16is_constructibleIS1_NS_15iterator_traitsISA_E9referenceEEE5valueEvE4typeESA_SA_
jCh:_LayoutElement_set_preferredWidth_m3072758716
r7l:_UnityEvent_1_AddListener_m1708363187_gshared
zil:_Animation_Play_m112733823
c9i:_AsnEncodedData_ToString_m724151831
Xhb:__ZN11TimeManager11GetRealtimeEv
d4g:_Collection_1_System_Collections_IList_get_IsFixedSize_m2408637569_gshared
Iog:__ZN21InterfaceFuncInvoker1IdP12Il2CppObjectE6InvokeEjP11Il2CppClassPvS1_
NId:__ZN5physx2Sc16InteractionScene25removeFromActiveActorListERNS0_5ActorE
ewc:__Z15WeldVertexArrayR13dynamic_arrayI8Vector3fLj4EERS_I13BoneInfluenceLj16EERS_ItLj2EES7_
CTj:_MonoMethodInfo_GetDeclaringType_m4186531677
fhj:_SoapTypeAttribute_SetReflectionObject_m1566293812
bdk:_DefaultComparer__ctor_m418731767_gshared
vP:__ZN4PPtrI6AvatarE8TransferI18StreamedBinaryReadILb0EEEEvRT_
W4c:__ZNK11MinMaxCurve20FindMinMaxIntegratedEv
SDd:__ZN5physx3Ext21InertiaTensorComputer6rotateERKNS_7PxMat33E
Sdm:_Enumerator_System_Collections_IEnumerator_Reset_m2573763156_AdjustorThunk
eXj:_VirtualAxis_Remove_m66413991
Xij:_RemotingServices_CreateClientProxy_m1631035355
B1k:_UInt64_ToString_m2892887310
uGf:__ZN5physx3Pvd17PvdPropertyFilterINS_2Sn17RepXVisitorWriterINS_27PxVehicleTireLoadFilterDataEEEE14handleAccessorILj565ENS_22PxRepXPropertyAccessorILj565ES4_ffEEEEvRKT0_
Vuf:__ZN18UnityConnectClient27OnPlayerSessionStateChangedEjyy
cHa:_stbir_resize
PVj:_ParameterInfo_get_ParameterType_m1441012169
KPb:__ZN4PPtrI4MeshE8TransferI14SafeBinaryReadEEvRT_
ljd:__ZN24b2ChainAndCapsuleContact6CreateEP9b2FixtureiS1_iP16b2BlockAllocator
t0c:__ZN14ParticleSystem31PlaybackSubEmitterCommandBufferERKS_R19ParticleSystemStateb
M$a:__Z37ReadDirectoryInfo_UnityWebAndUnityRawR12FileAccessorRKN20ArchiveStorageHeader6HeaderERNS1_13DirectoryInfoE
MTf:_Array_InternalArray__IEnumerable_GetEnumerator_TisInt64_t909078037_m1219751804_gshared
zia:__ZNSt3__26__treeINS_12__value_typeIPKciEENS_19__map_value_compareIS3_S4_15compare_tstringIS3_ELb1EEENS_9allocatorIS4_EEE7destroyEPNS_11__tree_nodeIS4_PvEE
Doi:__ZL96RuntimeTypeHandle_t2330101084_CustomAttributesCacheGenerator_RuntimeTypeHandle_Equals_m452760426P21CustomAttributesCache
bym:_FieldWithTarget_get_fieldPath_m354282076
jck:_Dictionary_2_ToTValue_m1381983709_gshared
XVh:_MulticastDelegate_KPM_m1592985119
oen:__ZNSt3__26locale5__imp7installINS_5ctypeIcEEEEvPT_
tu:__ZN9dtNavMesh17removeLinkBetweenEyy
n$i:__ZL49Clouds_t1640953016_CustomAttributesCacheGeneratorP21CustomAttributesCache
zOi:__ZL59DepthTextureMode_t1156392273_CustomAttributesCacheGeneratorP21CustomAttributesCache
Nbh:_Collection_1_ConvertItem_m3941916604_gshared
fnf:__ZN2UI6Canvas26MarkAllNestedCanvasesDirtyEv
hXa:__ZN16GeometryJobTasks20ScheduleGeometryJobsER9GfxDevicePFvP15GeometryJobDataEPK22GeometryJobInstructionjb
fnb:__ZN25PathNamePersistentManagerD2Ev
lka:__ZN17PersistentManager48IntegrateObjectAndUnlockIntegrationMutexInternalEi
LR:__ZN15SerializeTraitsI9OffsetPtrIN7mecanim9animation19Blend2dDataConstantEEE8TransferI18StreamedBinaryReadILb1EEEEvRS4_RT_
khh:_ReadOnlyCollection_1_System_Collections_IList_get_IsReadOnly_m3872065502_gshared
Xri:__ZL112TypeBuilder_t3308873219_CustomAttributesCacheGenerator_TypeBuilder_MakeGenericType_m4282022646____typeArguments0P21CustomAttributesCache
DNk:__Z89RuntimeInvoker_Il2CppObject_Scene_t1684909666_Scene_t1684909666_Il2CppObject_Il2CppObjectPK10MethodInfoPvPS2_
nnd:__ZN9b2Fixture11SynchronizeEP12b2BroadPhaseRK11b2TransformS4_
eXe:__ZN9Rigidbody23VirtualRedirectTransferER14SafeBinaryRead
don:_emscripten_glGetFramebufferAttachmentParameteriv__wrapper
X5a:__ZN13RendererScene15InitializeUmbraEv
skl:_AnimatorTransitionInfo_IsName_m2561957738_AdjustorThunk
dGa:__Z28CalculateGlobalMatrixInverse23TransformAccessReadOnly
SYc:__ZN4PPtrI6ObjectE8TransferI9JSONWriteEEvRT_
pcn:__ZNSt3__29money_putIwNS_19ostreambuf_iteratorIwNS_11char_traitsIwEEEEED0Ev
Hnh:_PointerEventData_ToString_m1218584363
T3m:___ctype_toupper_loc
hrg:_Char_System_IConvertible_ToChar_m1489061093_AdjustorThunk
ZUk:_UTF7Encoding_GetCharCount_m2589913583
KIi:__ZL77Material_t193706927_CustomAttributesCacheGenerator_Material_GetTag_m847488492P21CustomAttributesCache
e9d:__ZNK5physx15PxsParticleData15getWorldBoundsVEv
u5a:_UNITY_png_write_sCAL_s
hgj:__ZN21InterfaceFuncInvoker0IP8String_tE6InvokeEjP11Il2CppClassPv
XPh:_MemoryStream_CalculateNewCapacity_m3533542025
rPi:__ZL66ExcludeFromDocsAttribute_t665825653_CustomAttributesCacheGeneratorP21CustomAttributesCache
Ozd:__ZN12_GLOBAL__N_124HfTrianglesEntityReport27onEventEjPj
_rg:_Char_IsUpper_m4083577610
Ebe:__ZN5physx22NpParticleBaseTemplateINS_16PxParticleSystemENS_16NpParticleSystemEE17setStaticFrictionEf
_5k:_InternalEnumerator_1_Dispose_m318835130_AdjustorThunk
NJl:_Uri_Reduce_m2577728307
JYk:_TimeSpan_Equals_m4102942751_AdjustorThunk
_Pk:_Vignetting__ctor_m1527564855
kzk:__Z67RuntimeInvoker_Void_t1841601450_Scene_t1684909666_Scene_t1684909666PK10MethodInfoPvPS2_
pOk:_Quads_HasMeshes_m1064921877
hJk:__Z59RuntimeInvoker_Void_t1841601450_X509ChainStatus_t4278378721PK10MethodInfoPvPS2_
a8j:_ValueCollection_System_Collections_Generic_ICollectionU3CTValueU3E_Add_m1903672223_gshared
Edn:__ZNSt3__25ctypeIcE13classic_tableEv
pad:__ZN15CollisionModule8AllocateERK27ParticleSystemReadOnlyStateR19ParticleSystemState
XY:__ZN4FMOD6SoundI7releaseEv
bee:__ZN5physx20NpRigidActorTemplateINS_14PxRigidDynamicEE15setActorSimFlagEb
sQb:__ZN14SpriteRenderer13AwakeFromLoadE17AwakeFromLoadMode
joh:_MouseButtonEventData__ctor_m618518000
pgk:_EqualityComparer_1_get_Default_m3222318365_gshared
Hcn:__ZNKSt3__27codecvtIDic11__mbstate_tE5do_inERS1_PKcS5_RS5_PDiS7_RS7_
B0a:__ZN10MemoryFile9SetLengthEy
ZS:__ZN7mecanim10ValueArray8TransferI19StreamedBinaryWriteILb0EEEEvRT_
dQf:__ZL24StaticInitializeIUnityVRPv
Rhd:__ZNK15b2RevoluteJoint10GetAnchorBEv
mCd:__ZNK5physx3Cct26CharacterControllerManager16getNbControllersEv
Ji:_glTexStorage2D
Q$c:__ZN16ParticleRenderer11UVAnimation8TransferI18StreamedBinaryReadILb1EEEEvRT_
X$i:__ZL53FPSCounter_t3957683581_CustomAttributesCacheGeneratorP21CustomAttributesCache
z_f:_Array_InternalArray__Insert_TisRaycastHit2D_t4063908774_m3174907903_gshared
vgc:__ZNK9ShaderLab10SubProgram14EnsureCompiledEv
F_i:__ZL54Tonemapping_t4130158214_CustomAttributesCacheGeneratorP21CustomAttributesCache
Llj:_ObjectManager_RecordFixup_m3572285566
PSf:_ExecuteEvents_CanHandleEvent_TisIl2CppObject_m1201779629_gshared
Aqi:__ZL55DaylightTime_t3800227331_CustomAttributesCacheGeneratorP21CustomAttributesCache
w_e:__ZN5physx7profile10DataBufferINS_6shdfnd6MutexTINS0_26WrapperReflectionAllocatorIhEEEENS0_14ScopedLockImplIS6_EEE17handleBufferFlushEPKhj
gyg:_SortedList_InitTable_m460350503
oKj:_Assembly_GetType_m2378249586
h7k:_InternalEnumerator_1_get_Current_m4279678504_AdjustorThunk
ww:__ZNK16LevelGameManager7GetNameEv
f4g:_Collection_1_System_Collections_IList_get_Item_m2415649949_gshared
mQj:_ILTokenInfo_t149559338_marshal_pinvoke_cleanup
iah:_Collection_1_Remove_m2358120395_gshared
zh:_JS_SystemInfo_HasWebGL
Buf:__ZN18UnityConnectClient15GetCloudServiceEv
L3b:__Z18Transfer_BlittableI24GenerateTypeTreeTransferLb0EiEvRK29SerializationCommandArgumentsR31RuntimeSerializationCommandInfo
VJe:__ZN5physx20PxsConstraintProjectEPKNS_13PxsConstraintEbf
M1d:__ZN5physx7NpShape7setFlagENS_11PxShapeFlag4EnumEb
_sm:__ZN6il2cpp2os19SocketHandleWrapperD2Ev
Rid:__ZN15b2CircleContact6CreateEP9b2FixtureiS1_iP16b2BlockAllocator
APg:_Enumerator_System_Collections_IEnumerator_Reset_m1436660297_gshared
Snn:_emscripten_glBufferData__wrapper
bxb:__ZN10TagManager32RegisterDefaultTagsAndLayerMasksEv
b9l:_TweenRunner_1_StopTween_m2135918118_gshared
B8g:__ZN21InterfaceFuncInvoker1I22UILineInfo_t3621277874iE6InvokeEjP11Il2CppClassPvi
O8j:_ValueCollection_get_Count_m4142113966_gshared
XNi:__ZL118AttributeHelperEngine_t958797062_CustomAttributesCacheGenerator_AttributeHelperEngine_GetRequiredComponents_m120894667P21CustomAttributesCache
SFe:__ZN5physx2Sc35ParticleElementRbElementInteraction12onDeactivateEj
VLf:__ZNK5physx27PxVehicleDriveGeneratedInfo23visitInstancePropertiesINS_18RepXPropertyFilterINS_2Sn17RepXVisitorWriterINS_16PxVehicleDriveNWEEEEEEEjT_j
Q9m:__ZNKSt3__220__time_get_c_storageIcE8__monthsEv
FWk:_SynchronizationLockException__ctor_m549086841
XNf:__Z36getPxVehicleDrive4W_ConcreteTypeNamePKN5physx16PxVehicleDrive4WE
RUe:__ZN19CharacterController9GetBoundsEv
wsf:__Z56Register_UnityEngine_Analytics_CustomEventData_AddUInt32v
Zsg:_ArrayList_InsertRange_m1478230997
VPa:__ZN4gles8InitCapsEP7ApiGLESP12GraphicsCapsR16GfxDeviceLevelGL
Log:__ZN21InterfaceFuncInvoker1IP8String_tP12Il2CppObjectE6InvokeEjP11Il2CppClassPvS3_
aBa:__ZN6prcore14BlitImageFloatERK14ImageReferenceRS0_NS0_8BlitModeE
Ing:_Swapper_EndInvoke_m677693941
PBb:__Z24CalculateVertexLightDataRK15SharedLightDataR14GfxVertexLight
eCj:_Matrix4x4_Equals_m1321236479_AdjustorThunk
qj:_glEnable
ovb:__ZNK13Lz4Compressor29CalculateCompressedBufferSizeEj
Stm:__ZN6il2cpp2vm19SocketPollingThreadC2Ev
hse:__ZN5physx2Sq10AABBPrunerC2Eb
Omj:_RuntimeMethodHandle__ctor_m2437574937_AdjustorThunk
yne:__ZN5physx2Sq8AABBTreeC2Ev
m$k:_UInt16_System_IConvertible_ToInt64_m2835280558_AdjustorThunk
SBb:__ZN20SphericalHarmonicsL28TransferI18StreamedBinaryReadILb1EEEEvRT_
D2h:__ZN18VirtActionInvoker2IP22ByteU5BU5D_t3397334013S1_E6InvokeEjPvS1_S1_
OFi:__ZL53g_UnityEngine_Assembly_CustomAttributesCacheGeneratorP21CustomAttributesCache
fgm:_Predicate_1_BeginInvoke_m3926587117_gshared
d0l:_Texture3D_SetPixels_m946476760
Acd:__ZN11TrailModuleD2Ev
JIc:__ZN13MonoBehaviour22StartCoroutineManaged2EP12Il2CppObject
PKj:_AssemblyName_get_Name_m1815759940
Ykj:_ObjectReader_ReadType_m997247161
qsk:__Z56RuntimeInvoker_Void_t1841601450_MonoEnumInfo_t2335995564PK10MethodInfoPvPS2_
e1g:_List_1__cctor_m1022807427_gshared
xpi:__ZL63KeyNotFoundException_t1722175009_CustomAttributesCacheGeneratorP21CustomAttributesCache
Ezf:__ZN5physx21PxVehicleDriveDynDataC2Ev
Lzg:_Convert_ToBoolean_m2188088811
otf:__ZN11UnityEngine7Connect15DeviceInfoEvent16CollectExtraInfoEv
ask:__Z115RuntimeInvoker_Boolean_t3825574718_Il2CppObject_Int32_t2071877448_Il2CppObject_SByte_t454417549_Int32U26_t455636984PK10MethodInfoPvPS2_
eWm:__ZN6il2cpp2os11Environment22SetEnvironmentVariableERKNSt3__212basic_stringIcNS2_11char_traitsIcEENS2_9allocatorIcEEEESA_
Evl:_CustomAnimationPlayable__ctor_m2580931540
XMe:__ZN5physx2Gu10ConvexMeshD2Ev
slg:_UnicodeEncoding_GetChars_m3765282346
NLh:_IntPtr__ctor_m4104029105
mGf:__ZN5physx18RepXPropertyFilterINS_2Sn17RepXVisitorWriterINS_22PxVehicleWheelsSimDataEEEEclILj625ES3_KjjEEvRKNS_14PxPropertyInfoIXT_ET0_T1_T2_EEj
awi:__ZL114BinaryFormatter_t1866979105_CustomAttributesCacheGenerator_BinaryFormatter_get_DefaultSurrogateSelector_m219714691P21CustomAttributesCache
e7g:_Collection_1_Clear_m4150923953_gshared
$5m:_atol
F_m:__ZN6il2cpp6icalls8mscorlib6System10Reflection9FieldInfo25internal_from_handle_typeE12Il2CppIntPtrS5_
PNf:__ZN5physx18RepXPropertyFilterINS_2Sn17RepXVisitorReaderINS_16PxVehicleDrive4WEEEEclILj674ENS_14PxVehicleDriveENS_21PxVehicleDriveDynDataES8_EEvRKNS_14PxPropertyInfoIXT_ET0_T1_T2_EEj
WNf:__ZN5physx29PxVehicleDrive4WGeneratedInfoC2Ev
hCg:_Convert_ToDouble_m4236754739
Fii:_SslClientStream_get_PrivateKeyCertSelectionDelegate_m3715949545
luh:_Dropdown_CreateItem_m2702141380
fta:__ZNK6Sprite24GetRenderDataForPlayModeEv
eqi:__ZL48Stack_t1043988394_CustomAttributesCacheGeneratorP21CustomAttributesCache
sq:FUNCTION_TABLE_viifi
vq:FUNCTION_TABLE_viiff
YGd:__ZNK5physx2Sc8ShapeSim10getBodySimEv
NTj:_MonoEvent_GetAddMethod_m4289563120
iLi:__ZL93Physics_t634932869_CustomAttributesCacheGenerator_Physics_SphereCast_m402220965____layerMask3P21CustomAttributesCache
moi:__ZL37Type_t_CustomAttributesCacheGeneratorP21CustomAttributesCache
fkf:_UNITY_tt_face_free_hdmx
kFm:__ZN6il2cpp2vm14TypeNameParser5ParseEb
pLl:_ReflectionMethodsCache__ctor_m1835220
aZm:_GC_check_finalizer_nested
uNj:_DerivedType_IsArrayImpl_m684825803
Qul:_Playable_INTERNAL_CALL_IsValidInternal_m3509544226
crk:__Z51RuntimeInvoker_Int16_t4041245914_Single_t2076509932PK10MethodInfoPvPS2_
Epi:__ZL71SynchronizedArrayListWrapper_t3317806524_CustomAttributesCacheGeneratorP21CustomAttributesCache
jXd:__ZN5physx6shdfnd5ArrayIPvNS0_19ReflectionAllocatorINS_2Cm5BlockIhLj128EEEEEE15growAndPushBackERKS2_
Mwf:__ZN23UnityPurchasingSettingsC2Ev
EKg:_Double_ToString_m1864290157
Vlb:__ZNK9Transform13GetWorldScaleEv
X9k:_InternalEnumerator_1_get_Current_m4154059426_AdjustorThunk
lMd:__ZN5physx2Sc11Interaction10onActivateEj
xyd:__ZNK5physx2Gu29EPASupportMapPairRelativeImplINS0_4BoxVENS0_11ConvexHullVEE6getDirEv
s2d:__ZN5physx14NpShapeManager15setupSceneQueryERNS_2Sq17SceneQueryManagerERKNS_12PxRigidActorERKNS_7NpShapeE
dGf:__ZN5physx3Pvd17PvdPropertyFilterINS_2Sn17RepXVisitorWriterINS_22PxVehicleWheelsSimDataEEEE27handleExtendedIndexPropertyILj616ES4_NS_6PxVec3EKjNS_18PxUnknownClassInfoEEEvjRKNS_29PxExtendedIndexedPropertyInfoIXT_ET0_T2_T1_EERKT3_
Gpa:__ZNSt3__26__treeINS_12__value_typeI18VertexChannelsInfo16MeshVertexFormatEENS_19__map_value_compareIS2_S4_NS_4lessIS2_EELb1EEE13stl_allocatorIS4_L18MemLabelIdentifier16ELi16EEE12__find_equalIS2_EERPNS_16__tree_node_baseIPvEENS_21__tree_const_iteratorIS4_PNS_11__tree_nodeIS4_SF_EEiEESI_RKT_
X9g:_Collection_1_System_Collections_IList_get_Item_m1122792492_gshared
iHa:__ZL37stbir__resample_horizontal_downsampleP11stbir__infoiPf
cok:__Z78RuntimeInvoker_IntPtr_t_Il2CppObject_Int32U26_t455636984_ModuleU26_t4102634234PK10MethodInfoPvPS2_
HEa:__ZNK5Unity9Component38MarkGameObjectAndComponentDependenciesER27GarbageCollectorThreadState
QJe:__ZN22ScAfterIntegrationTask11runInternalEv
WOd:__ZNK5physx2Sc9ClothCore23getExternalAccelerationEv
Xtf:__ZN11UnityEngine15PlatformWrapper13IsDebugDeviceEv
k4:__ZNK7Texture21GetShadowSamplingModeEv
Bxd:__ZN5physx2Gu13coarseCullingERKNS_6PxVec3ES3_ffRKNS_10PxTriangleE
Ida:__ZN13ScreenManager21OnWindowRegainedFocusEv
X7b:__Z18Transfer_BlittableI18StreamedBinaryReadILb0EELb1EdEvRK29SerializationCommandArgumentsR31RuntimeSerializationCommandInfo
vBc:__Z56Register_UnityEngine_Camera_INTERNAL_get_backgroundColorv
vol:_WillRenderCanvases_BeginInvoke_m1914028027
tOh:_FileStream_get_CanRead_m4148920720
rBm:__ZN6il2cpp2gc19AppendOnlyGCHashMapINSt3__24pairIPK12PropertyInfoP11Il2CppClassEEP24Il2CppReflectionProperty17ReflectionMapHashIS9_E19ReflectionMapEqualsIS9_EE11TryGetValueERKS9_PSB_
sGe:__ZN5physx2Sc5Scene29processNarrowPhaseTouchEventsEv
lSa:__ZN4crnd12symbol_codec32decode_receive_static_data_modelERNS_25static_huffman_data_modelE
jwl:_Playables_GetTimeValidated_m788360268
ZDb:__ZN18ScriptingArguments8AddFloatEf
Ur:__ZN12NavMeshAgent16AddToCrowdSystemEv
Psh:_FloatTween_get_targetValue_m2120061648_AdjustorThunk
yvl:_AnimatorControllerPlayable_get_node_m127621219_AdjustorThunk
VJk:__Z71RuntimeInvoker_Void_t1841601450_Int32_t2071877448_UriScheme_t1876590943PK10MethodInfoPvPS2_
ERf:_Array_InternalArray__ICollection_Contains_TisVector2_t2243707579_m3625698589_gshared
ZQd:__ZN5physx6shdfnd5ArrayIPvNS0_15InlineAllocatorILj256ENS0_19ReflectionAllocatorINS_18NpArticulationLinkEEEEEE15growAndPushBackERKS2_
dYc:__Z18Transfer_BlittableI9JSONWriteLb0EaEvRK29SerializationCommandArgumentsR31RuntimeSerializationCommandInfo
mYe:__ZN5Unity11SpringJoint8TransferI19StreamedBinaryWriteILb0EEEEvRT_
O7:__ZN11UnityEngine15CloudWebService14DataDispatcher34OnSessionContainerArchivedAndReadyERNS0_16SessionContainerE
ckd:__ZN7b2World11CreateJointEPK10b2JointDef
DXb:__ZN13EmscriptenWWW10OnResponseEPviS0_jPc
Sgn:__ZNSt13runtime_errorD0Ev
q1c:__ZN23ParticleSystemParticles20SetUsesTriggerEventsEb
$Cd:__ZNK5physx3Cct15ObstacleContext11getObstacleEj
sci:_CipherSuiteCollection__ctor_m2154226461
f5b:__Z18Transfer_BlittableI19StreamedBinaryWriteILb0EELb0E8Vector3fEvRK29SerializationCommandArgumentsR31RuntimeSerializationCommandInfo
ftj:_RectOffset__ctor_m2227510254
ull:_AudioClip_get_length_m3881628918
Obf:_gray_move_to
jzm:__ZN15dense_hashtableINSt3__24pairIK10KeyWrapperINS1_IPK9FieldInfoP11Il2CppClassEEEjEES9_17ReflectionMapHashIS8_EN14dense_hash_mapIS9_jSD_19ReflectionMapEqualsIS8_ENS0_9allocatorISB_EEE9SelectKeyESG_SI_ED2Ev
Keb:__Z34GetNonInterpolatedLightAttenuationRK17LightProbeContextjPK15SharedLightData
mul:_UnityAction_BeginInvoke_m407736228
jbh:_Collection_1_System_Collections_IEnumerable_GetEnumerator_m4174600764_gshared
$Cl:_ConstructionCall_InitDictionary_m4046452035
YBm:__ZN6il2cpp2vm10Reflection14GetEventObjectEP11Il2CppClassPK9EventInfo
xDk:__Z43RuntimeInvoker_VerticalWrapMode_t3668245347PK10MethodInfoPvPS2_
Mdi:_TlsStream_Write_m2271546135
Ffa:__ZN20LocalFileSystemPosixD0Ev
Myc:__Z23GetGlobalBoolPreferencePKcb
ENg:_CultureInfo_ConstructInternalLocaleFromCurrentLocale_m1342751405
wrk:__Z50RuntimeInvoker_UInt16_t986882611_Int16_t4041245914PK10MethodInfoPvPS2_
X1c:__Z25GetTransformationMatricesPN4math8float3x3ES1_bbRK10Matrix4x4fS4_
oub:__ZN21AssetBundleFileSystem5WriteER13FileEntryDatayPvPy
Nkg:_Latin1Encoding_GetString_m3553289597
N8c:__ZN4PPtrI14ParticleSystemE8TransferI19StreamedBinaryWriteILb0EEEEvRT_
Odd:__ZL22DrawParticlesWithPivotILb1EEvPhRK22ParticleSystemTempDataRK26ParticleSystemRendererData32ParticleSystemGeometryJobModulesRK23ParticleSystemParticlesRK31ParticleSystemParticlesTempData
Yqe:__ZN5physx13IslandManager6resizeEj
kdf:_tt_cmap_init
uql:_Color_get_grey_m1961362537
TNf:__ZN5physx2Sn21RepXVisitorReaderBaseINS_16PxVehicleDrive4WEE15complexPropertyINS_22PxRepXPropertyAccessorILj674ENS_14PxVehicleDriveENS_21PxVehicleDriveDynDataES7_EEKNS_34PxVehicleDriveDynDataGeneratedInfoEEEvPjRKT_RT0_
Qb:invoke_viidi
tQg:_Enumerator_System_Collections_IEnumerator_get_Current_m3461301268_gshared
L4j:_Enumerator_get_Current_m1020413567_AdjustorThunk
KTg:_List_1_System_Collections_IList_get_IsFixedSize_m1122077912_gshared
IKk:__Z48RuntimeInvoker_Link_t865133271_Int32_t2071877448PK10MethodInfoPvPS2_
vjc:__ZN9TextAssetC2E18MemLabelIdentifier18ObjectCreationMode
RLd:__ZN5physx6shdfnd8PoolBaseINS_2Cm5BlockIPvLj16EEENS0_19ReflectionAllocatorIS5_EEE17releaseEmptySlabsEv
DSg:_List_1_System_Collections_ICollection_CopyTo_m2020941110_gshared
Ksl:_Display_RecreateDisplayList_m3412638488
TBi:__ZL79Convert_t2607082565_CustomAttributesCacheGenerator_Convert_ToUInt64_m2215781574P21CustomAttributesCache
nMk:__Z52RuntimeInvoker_KeyValuePair_2_t38854645_Il2CppObjectPK10MethodInfoPvPS2_
y6b:__ZN19StreamedBinaryWriteILb0EE21TransferSTLStyleArrayINSt3__26vectorINS2_12basic_stringIcNS2_11char_traitsIcEE13stl_allocatorIcL18MemLabelIdentifier1ELi16EEEES7_ISA_LS8_1ELi16EEEEEEvRT_17TransferMetaFlags
$tn:_emscripten_glCheckFramebufferStatus__wrapper
fSb:__ZNSt3__26__treeIjNS_4lessIjEENS_9allocatorIjEEE12__find_equalIjEERPNS_16__tree_node_baseIPvEENS_21__tree_const_iteratorIjPNS_11__tree_nodeIjS8_EEiEESB_RKT_
LDd:__ZL20updateMassAndInertiabRN5physx11PxRigidBodyEPKfjPKNS_6PxVec3Eb
sVc:__Z18Transfer_BlittableI8JSONReadLb0EdEvRK29SerializationCommandArgumentsR31RuntimeSerializationCommandInfo
K_e:__ZN5physx24NpPtrTableStorageManagerC2Ev
$Q:__ZN7mecanim9animation21BlendTreeNodeConstant35Transfer_4_0_BackwardsCompatibilityI14SafeBinaryReadEEvRT_
Itn:_glCreateShader__wrapper
Iqf:__Z44Register_UnityEngine_Canvas_set_sortingOrderv
ZWk:_Thread_ClrState_m822263449
PYh:_SimpleCollator_LastIndexOfOrdinalIgnoreCase_m550798345
uym:__ZN15dense_hashtableINSt3__24pairIK10KeyWrapperINS1_IPK14Il2CppAssemblyP11Il2CppClassEEEjEES9_17ReflectionMapHashIS8_EN14dense_hash_mapIS9_jSD_19ReflectionMapEqualsIS8_ENS0_9allocatorISB_EEE9SelectKeyESG_SI_E13clear_deletedER30dense_hashtable_const_iteratorISB_S9_SD_SK_SG_SI_E
ptm:__ZN6il2cpp2vm21ThreadPoolCompartment13QueueWorkItemEP17Il2CppAsyncResult
go:FUNCTION_TABLE_viiiiiifiii
tLa:__ZNK9GfxDevice13GetViewMatrixEv
Oje:__ZN5physx7NpScene15flushSimulationEb
G0d:__ZN5physx6shdfnd8PoolBaseINS_10NpMaterialENS0_19ReflectionAllocatorIS2_EEE12allocateSlabEv
ina:__ZN8TypeTree8BlobReadERPKhS1_ib
qXj:_Displace_OnEnable_m3508279476
rzc:__Z36CreateScriptingArrayFromUnityObjectsI13dynamic_arrayIP6ObjectLj4EEEP11Il2CppArrayRKT_i
BQe:__ZN5physx18ReducedVertexCloudC2EPKNS_6PxVec3Ej
cFa:__ZN18LoadSceneOperation23GetAllowSceneActivationEv
ijn:dynCall_vifiiiii
mwa:__ZN15SerializeTraitsI14ConstantStringE8TransferI19StreamedBinaryWriteILb0EEEEvRS0_RT_
bDa:__ZN11prophecysdk4half7convertEi
gyb:__ZN6CameraD0Ev
qHi:__ZL105GameObject_t1756533147_CustomAttributesCacheGenerator_GameObject_BroadcastMessage_m3472370570____options2P21CustomAttributesCache
o_h:_ModulusRing_Multiply_m386339435
Xqa:__ZN31CanvasBatchIntermediateRenderer16StaticInitializeEPv
Nwh:_GraphicRaycaster_U3CRaycastU3Em__0_m3971200721
seh:_ReadOnlyCollection_1_System_Collections_IList_RemoveAt_m3004588099_gshared
nCf:__ZN5physx3Pvd17PvdPropertyFilterINS_2Sn17RepXVisitorReaderINS_22PxVehicleWheelsSimDataEEEE27handleExtendedIndexPropertyILj621ES4_NS_12PxFilterDataEKjNS_18PxUnknownClassInfoEEEvjRKNS_29PxExtendedIndexedPropertyInfoIXT_ET0_T2_T1_EERKT3_
PBg:_Decimal_op_Implicit_m4246329390
O6h:_ArgumentNullException__ctor_m2252076819
dkb:__ZN10GameObjectC2E18MemLabelIdentifier18ObjectCreationMode
Raf:_raccess_guess_apple_double
o1l:_Transform_INTERNAL_set_localScale_m3680777866
o5i:_ListDictionary_GetEnumerator_m1511032609
_Nj:_TypeBuilder_get_FullName_m1626507516
glj:_SerializationInfo__ctor_m4016423422
R3e:__Z48Rigidbody_CUSTOM_INTERNAL_CALL_AddExplosionForceP12Il2CppObjectfRK8Vector3fffi
sTa:__ZL18ProgramUniform1uivPK7ApiGLESjiihPKv
b4c:__ZN27ShapeModulePropertyBindings13GetFloatValueERK14ParticleSystemi
xmc:__ZN14Texture2DArray13RebuildMipMapEv
_nm:__ZN13Il2CppHashSetIPK17Il2CppGenericInstN6il2cpp8metadata21Il2CppGenericInstHashENS4_24Il2CppGenericInstCompareENSt3__29allocatorI10KeyWrapperIS2_EEEEC2EjRKS5_RKS6_
$$b:__Z18Transfer_BlittableI14SafeBinaryReadLb1EaEvRK29SerializationCommandArgumentsR31RuntimeSerializationCommandInfo
eTm:__ZN6il2cpp2gc16GarbageCollector14RemoveWeakLinkEPPv
Jgc:__ZN9ShaderLab20SerializedSubProgram14AddVectorParamEPKcii15ShaderParamTypei
Pof:__ZN2UI14CanvasRenderer12CleanupClassEv
VUd:__ZNK5physx19NpRigidBodyTemplateINS_18PxArticulationLinkEE27getMinCCDAdvanceCoefficientEv
Dhh:_ReadOnlyCollection_1_System_Collections_IEnumerable_GetEnumerator_m1734360860_gshared
Xdg:_SecurityException_get_PermissionState_m824616682
Udg:_SystemException__ctor_m2688248668
Hxl:_ResourceSet_ReadResources_m1669023823
Ky:__ZN11DynamicMesh10DetailHullaSERKS0_
hFm:__ZN6il2cpp2vm6Thread7SetNameEP12Il2CppThreadP12Il2CppString
YNj:_TypeBuilder_get_DeclaringType_m3236598700
rKi:__ZL107Collision_t2876846408_CustomAttributesCacheGenerator_Collision_t2876846408____frictionForceSum_PropertyInfoP21CustomAttributesCache
Jr:__ZN6Object23VirtualRedirectTransferER19StreamedBinaryWriteILb1EE
Lsa:__ZN13ScreenManager18SetAllowCursorLockEb
wWb:__ZN30RuntimeInitializeOnLoadManager15ClassMethodInfo8TransferI14SafeBinaryReadEEvRT_
DMm:__ZNK15dense_hashtableINSt3__24pairIK10KeyWrapperINS1_IPKcS4_EEEiEES6_24NamespaceAndNamePairHashN14dense_hash_mapIS6_iS9_26NamespaceAndNamePairEqualsNS0_9allocatorIS8_EEE9SelectKeyESB_SD_E13find_positionERS7_
oPd:__ZNK5physx2Sc10ClothShape8isActiveEv
Q0c:__ZN23ParticleSystemParticles14element_assignEjj
fZb:__ZN9TextAsset8TransferI14SafeBinaryReadEEvRT_
XFf:__ZN5physx3Pvd17PvdPropertyFilterINS_2Sn17RepXVisitorWriterINS_16PxVehicleNoDriveEEEE14handleAccessorILj640ENS_22PxRepXPropertyAccessorILj640ENS_15PxVehicleWheelsENS_22PxVehicleWheelsDynDataESA_EEEEvRKT0_
W5:__ZL22InitializeModule_Audiov
Bre:__ZN5physx2Sq11PruningPoolD0Ev
Gld:__ZN16Physics2DManager13DynamicUpdateEv
Opb:__ZN16MemoryFileSystem8IsLockedERK13FileEntryData
tze:__ZN3MBP15removeBoxPrunerEj
f2l:_Vector2_get_Item_m2792130561_AdjustorThunk
uTj:_MonoCMethod_Invoke_m931478014
Oxl:_SatelliteContractVersionAttribute__ctor_m2605651717
_l:_emscripten_glBindRenderbuffer
LOj:_EnumBuilder_HasElementTypeImpl_m1414733955
ESc:__Z32GUIStyle_Set_Custom_PropClippingP12Il2CppObjecti
fjg:_DecoderExceptionFallbackBuffer_GetNextChar_m1727394816
RYm:_GC_dirty_init
GLf:__Z39getPxVehicleDriveDynDataMGearSwitchTimePKN5physx21PxVehicleDriveDynDataE
lkj:_MessageFormatter_ReadMethodResponse_m4134629501
fQm:__ZN6il2cpp2vm5Field14GetValueObjectEP9FieldInfoP12Il2CppObject
iof:__ZNK2UI6Canvas16GetTargetDisplayEv
MLg:_Environment_get_OSVersion_m1247315981
Xcb:__ZN23ForwardShaderRenderLoop23RenderForwardShadowMapsEPK11ActiveLightbN6Camera10RenderFlagER17ShaderPassContext
k_i:__ZL52GlowEffect_t862651802_CustomAttributesCacheGeneratorP21CustomAttributesCache
$ud:__ZL15SweepBoxCapsulePKN5physx3Cct9SweepTestEPKNS0_11SweptVolumeEPKNS0_11TouchedGeomERKNS_14PxExtendedVec3ERKNS_6PxVec3ERNS0_12SweptContactE
Zpa:__ZN6Object17FindObjectsOfTypeEPKN5Unity4TypeER13dynamic_arrayIPS_Lj4EEb
W3i:__ZL57CarUserControl_t1726005452_CustomAttributesCacheGeneratorP21CustomAttributesCache
Uqc:__ZNSt3__26vectorINS_4pairIiiEE13stl_allocatorIS2_L18MemLabelIdentifier1ELi16EEE21__push_back_slow_pathIKS2_EEvRT_
odj:_Capture_get_Length_m1952322390
ZYc:__ZN9JSONWrite8TransferI4PPtrI9Texture2DEEEvRT_PKc17TransferMetaFlags
uan:__ZNKSt3__220__time_get_c_storageIwE7__weeksEv
_dk:_DefaultComparer__ctor_m2967376735_gshared
GZb:__ZN13MonoBehaviour17RemoveFromManagerEv
Zsa:__ZN14GraphicsHelper5ClearEjRK10ColorRGBAffjR17ShaderPassContext
ZKe:__ZN5physx2Sc19ParticlePacketShapeD2Ev
Yof:__ZL23RegisterModuleICalls_UIv
VJb:__ZL11DecodeValuePPKcS0_
i6j:_ShimEnumerator_MoveNext_m2013866013_gshared
Zba:__ZN13MemoryManagerC2Ev
muc:__ZN12SkinMeshInfo10DeallocateEPS_
u1l:_Transform_SetParent_m1963830867
kG:__ZN15SerializeTraitsI22OffsetPtrArrayTransferIN7mecanim13ValueConstantEEE8TransferI19StreamedBinaryWriteILb0EEEEvRS3_RT_
b2a:__ZN20ArchiveStorageReader28AcquireAndPrefillUnusedBlockEjPNS_11CacheResultE
U4g:__ZN21InterfaceFuncInvoker1I40CustomAttributeTypedArgument_t1498197914iE6InvokeEjP11Il2CppClassPvi
zsk:__Z78RuntimeInvoker_Il2CppObject_SByte_t454417549_SByte_t454417549_SByte_t454417549PK10MethodInfoPvPS2_
qmc:__Z12NHxRoughnessIA4_tEvP9Texture2DPT_iiii
y0l:_Touch_get_phase_m196706494_AdjustorThunk
jEl:_MethodDictionary_get_SyncRoot_m673971424
gma:__ZN16ScriptingManager27NativeTypeForScriptingClassEP11Il2CppClass
uMb:__ZN13TrailRenderer19UpdateTransformInfoEv
vqa:__ZN18AsyncUploadManagerD2Ev
PKb:__ZN9Transform5ResetEv
R3b:__Z22TransferField_NonArrayI24GenerateTypeTreeTransfer16Converter_StringEvRK23StaticTransferFieldInfoR31RuntimeSerializationCommandInfoRT0_
MYb:__ZN9TextAsset9SetScriptERK8UnityStr
Ced:__ZL35RegisterModuleICalls_ParticleSystemv
Dsa:__Z17MainLoopKeepalivePv
IOd:__ZN5physx7NpScene16addActorInternalERNS_7PxActorE
yNf:__ZN5physx2Sn18writeAllPropertiesINS_18PxVehicleDriveTankEEEvPKT_RNS_9XmlWriterERNS_12MemoryBufferERNS_12PxCollectionE
MEl:_MatchCollection__ctor_m1944681790
F5f:_HMACSHA512__ctor_m1667460019
f8a:__Z24ScheduleCullingAllGroupsR8JobFenceRK22SceneCullingParameters4PPtrI6CameraERK13CullingOutputRK13dynamic_arrayIP12CullingGroupLj4EERKS_
Nag:_ToBase64Transform_get_OutputBlockSize_m949275583
MVh:_MonoType_ToString_m473949831
l7a:__Z14CalcHullBoundsPK8Vector3fPKhhRK5PlaneRK10Matrix4x4fR10MinMaxAABB
aij:_RealProxy__ctor_m2147093603
dIj:_RaycastHit2D_get_point_m442317739_AdjustorThunk
Pac:__ZN11PreloadData39ShouldIgnoreInGarbageDependencyTrackingEv
H4:__ZNK14SoundHandleAPI12GetFrequencyEv
f$g:_List_1__ctor_m3511181530_gshared
Obb:__Z19SetupLODFadeKeywordR17ShaderPassContexti
Pcf:_UNITY_FT_Stream_ReadFields
Deh:_ReadOnlyCollection_1_get_Count_m2180604490_gshared
CGh:_DateTimeFormatInfo_GetAllDateTimePatternsInternal_m1587126173
NRm:__ZN6il2cpp2os10ThreadImpl22SetNativeThreadCleanupEPFvPvE
NVa:__ZL25CheckCopyTextureArgumentsRK7ApiGLESP11GLESTextureS3_
p4c:__ZN24UVModulePropertyBindings13AddPropertiesER10vector_mapIi22ParticleModulePropertyNSt3__24lessIiEENS2_9allocatorINS2_4pairIiS1_EEEEE
qqa:__ZN13dynamic_arrayI26EnlightenSystemInformationLj8EE6insertEPS0_PKS0_S4_
Hcf:_tt_name_entry_ascii_from_utf16
ZVh:_MulticastNotSupportedException__ctor_m2164514827
OEg:_DateTime_System_IConvertible_ToChar_m2489529194_AdjustorThunk
F6l:_UnityAction_1_Invoke_m1279804060_gshared
C4b:__Z29Transfer_Blittable_ArrayFieldI24GenerateTypeTreeTransferyEvRT_R9ArrayInfoRK23StaticTransferFieldInfo
USg:__ZN23InterfaceActionInvoker2IP24ObjectU5BU5D_t3614634134iE6InvokeEjP11Il2CppClassPvS1_i
oWe:__ZN14PhysicsManager23VirtualRedirectTransferER18StreamedBinaryReadILb1EE
Xdl:_InternalEnumerator_1_System_Collections_IEnumerator_get_Current_m2755348574_AdjustorThunk
a0:__ZN4FMOD7SystemI9playSoundE17FMOD_CHANNELINDEXPNS_5SoundEbPPNS_7ChannelE
s6:__Z42Register_UnityEngine_AudioSource_set_pitchv
s2e:__ZN13PhysicsModule31GetColliderComponentsInChildrenERK10GameObjectbbR13dynamic_arrayIPN5Unity9ComponentELj4EE
sQi:__ZL78ExecuteEvents_t1693084770_CustomAttributesCacheGenerator_U3CU3Ef__mgU24cache10P21CustomAttributesCache
_fa:__GLOBAL__sub_I_runtime_graphics_mesh2_lump_cpp
MOi:__ZL68PreferBinarySerialization_t2472773525_CustomAttributesCacheGeneratorP21CustomAttributesCache
OSb:__ZN19StreamedBinaryWriteILb0EE21TransferSTLStyleArrayINSt3__26vectorI17SubstanceEnumItemNS2_9allocatorIS4_EEEEEEvRT_17TransferMetaFlags
uvl:_AnimationPlayableUtilities_SetInputValidated_m2748997465
OF:__ZN18StreamedBinaryReadILb0EE21TransferSTLStyleArrayI13dynamic_arrayI12PPtrKeyframeLj4EEEEvRT_17TransferMetaFlags
lSg:_List_1_Remove_m2616693989_gshared
zNb:__ZN10VertexData13SwapEndianessEv
p6m:_realloc
u3c:__ZN27ColorModulePropertyBindings13GetFloatValueERK14ParticleSystemi
wOc:__Z57Register_UnityEngine_Transform_INTERNAL_get_localRotationv
iWb:__ZN30RuntimeInitializeOnLoadManager23VirtualRedirectTransferER17RemapPPtrTransfer
nkn:dynCall_viif
JFi:__ZL181U3CCreateWhereIteratorU3Ec__Iterator1D_1_t2523986802_CustomAttributesCacheGenerator_U3CCreateWhereIteratorU3Ec__Iterator1D_1_System_Collections_IEnumerable_GetEnumerator_m3687475306P21CustomAttributesCache
eUj:_MonoField_get_DeclaringType_m1591666235
F4k:_InternalEnumerator_1__ctor_m2111763266_AdjustorThunk
Jfj:_Enumerator_MoveNext_m4234629003
fcb:__ZN29MotionVectorRenderLoopScratchD2Ev
oqh:_ButtonClickedEvent__ctor_m938038541
SJe:__ZN5physx2Sc24ConstraintProjectionTree11projectPoseERNS0_19ConstraintGroupNodeE
h2b:__ZL26Transfer_SimpleNativeClassI17RemapPPtrTransfer8GradientLb0EEvRK29SerializationCommandArgumentsR31RuntimeSerializationCommandInfo
EL:__ZN17AnimationPlayable26DisconnectNoTopologyChangeEPS_i
wum:__ZN6il2cpp6icalls8mscorlib6System8MonoType14get_attributesEP20Il2CppReflectionType
atb:__Z43DestroyWithoutLoadingButDontDestroyFromFilei
A2e:__ZN13PhysicsModule29GetColliderMaterialInstanceIDER8Collider
PUh:_MonoType_GetDefaultConstructor_m925465120
xUd:__ZNK5physx20NpRigidActorTemplateINS_18PxArticulationLinkEE14getConstraintsEPPNS_12PxConstraintEjj
Nof:__ZZN2UI14CanvasRenderer15InitializeClassEvEN34FunctorImpl_802kCanvasGroupChanged4CallEPviR11MessageData
bin:dynCall_viiiiiffi
GLi:__ZL95Physics2D_t2540166467_CustomAttributesCacheGenerator_Physics2D_Raycast_m2303387255____distance2P21CustomAttributesCache
Dd:_emscripten_glBlendFuncSeparate
Cz:__ZL8ClipPolyPK8Vector3fiPS_RS0_f
CPj:_GenericTypeParameterBuilder_IsPrimitiveImpl_m1198748291
zja:__Z20scripting_string_newPKc
iLc:__Z43Material_CUSTOM_Internal_CreateWithMaterialP12Il2CppObjectS0_
GJc:__Z86Register_UnityEngine_Experimental_Director_Playable_INTERNAL_CALL_SetPlayStateInternalv
mNh:_Directory_GetCurrentDirectory_m44486537
Wnk:__Z45RuntimeInvoker_RuntimeFieldHandle_t2331729674PK10MethodInfoPvPS2_
EMm:__ZNK24NamespaceAndNamePairHashclERKNSt3__24pairIPKcS3_EE
qUf:_Array_InternalArray__IEnumerable_GetEnumerator_TisRenderBuffer_t2767087968_m1001895547_gshared
opm:__ZNK15dense_hashtableINSt3__24pairIK10KeyWrapperINS0_12basic_stringIcNS0_11char_traitsIcEENS0_9allocatorIcEEEEEP11Il2CppClassEES9_N6il2cpp5utils11StringUtils12StringHasherIS8_EEN14dense_hash_mapIS9_SC_SI_NS0_8equal_toIS9_EENS6_ISD_EEE9SelectKeyESL_SM_E5beginEv
zsb:__ZN29AssetBundleLoadAssetOperation34CollectFullPreloadDataDependenciesER13dynamic_arrayIiLj4EE
w2g:_Collection_1_System_Collections_ICollection_CopyTo_m1047946700_gshared
c5e:__Z44Register_UnityEngine_Joint_set_connectedBodyv
YCg:_Convert_ToInt64_m4057339019
c0i:__ZL120U3CDoBobCycleU3Ec__Iterator0_t1213055510_CustomAttributesCacheGenerator_U3CDoBobCycleU3Ec__Iterator0_Dispose_m1103528774P21CustomAttributesCache
XUd:__ZNK5physx19NpRigidBodyTemplateINS_18PxArticulationLinkEE27getMaxDepenetrationVelocityEv
iZi:__ZL111ThirdPersonCharacter_t3368419691_CustomAttributesCacheGenerator_ThirdPersonCharacter_get_lookTarget_m1623956301P21CustomAttributesCache
a0j:_VirtualInput_RegisterVirtualButton_m578041152
j9i:_AsnEncodedData_Default_m4197142414
VT:__ZN6Avatar23VirtualRedirectTransferER17RemapPPtrTransfer
obg:_X509Certificate_GetCertHashString_m419611192
TNe:__ZThn8_N5physx2Gu11HeightFieldD1Ev
vHm:__ZNSt3__218uninitialized_copyIPNS_4pairIK10KeyWrapperIP11Il2CppClassES4_EES8_EET0_T_SA_S9_
pee:__ZN5physx19NpRigidBodyTemplateINS_14PxRigidDynamicEED0Ev
NSd:__ZNK5physx19PxArticulationJoint19getConcreteTypeNameEv
MZ:__ZN17AudioCustomFilterD2Ev
ARc:__ZN11IMGUIModule26SetDeveloperConsoleVisibleEb
hRc:__ZNK8GUIStyle13GetLineHeightEv
QUa:__ZN18GfxFramebufferGLES18ReleaseFramebufferEP17RenderSurfaceBaseP14GfxContextGLES
eBl:_Context_GetDynamicPropertyCollection_m1987747444
waj:_X509Certificate2_get_Version_m1927399907
CWc:__Z18Transfer_BlittableI8JSONReadLb1EiEvRK29SerializationCommandArgumentsR31RuntimeSerializationCommandInfo
zyh:_Image_RadialCut_m3229543088
Saa:__ZN19CloudServiceHandler34HandleSaveFileWebRequestPlayerLoopEv
fM:__ZN7mecanim21ValueArrayReverseCopyEPKNS_18ValueArrayConstantEPKNS_10ValueArrayES2_PS3_PKi
CZ:__Z31GetParentSampleClipFromInstancePN11SoundHandle8InstanceE
Ww:__ZNK14NavMeshManager19GetSourceTileDataAtEiii
AAd:__ZN5physx11PxHitBufferINS_12PxOverlapHitEE14processTouchesEPKS1_j
vfe:__ZL22addOrRemoveRigidObjectILb0ELb0ELb0ELb1EN5physx3Scb11RigidStaticEEvRNS0_2Sc5SceneERT3_b
j2m:__ZN6il2cpp2os16ThreadLocalValue8GetValueEPPv
Ocl:_InternalEnumerator_1_System_Collections_IEnumerator_Reset_m196087328_AdjustorThunk
E7g:__ZN18VirtActionInvoker2Ii22UICharInfo_t3056636800E6InvokeEjPviS0_
Un:FUNCTION_TABLE_iiiiifiif
N9f:_SHA384Managed_Initialize_m712692291
A5k:_InternalEnumerator_1__ctor_m2688327768_gshared
lNg:_CompareInfo_get_LCID_m3346446356
d7g:_Collection_1_Add_m123318341_gshared
Bti:__ZL60CallingConvention_t3354538265_CustomAttributesCacheGeneratorP21CustomAttributesCache
LE:__ZN17PackedFloatVector8TransferI18StreamedBinaryReadILb1EEEEvRT_
VOc:__Z52Object_CUSTOM_GetOffsetOfInstanceIDInCPlusPlusObjectv
g1l:_Transform_get_right_m440863970
bMd:__ZN5physx6shdfnd4sortIPvNS0_4LessIS2_EENS0_19ReflectionAllocatorINS_2Cm5BlockIS2_Lj8EEEEEEEvPT_jRKT0_RKT1_j
z4:__ZN9AudioClip15InitializeClassEv
n0d:__ZNK5physx9NpPhysics11getNbShapesEv
or:setThrew
skk:__Z36RuntimeInvoker_IntPtr_t_Il2CppObjectPK10MethodInfoPvPS2_
imc:__ZL21BuildEmptyCubeTexturePKci11ColorRGBA3217TextureColorSpace
wcc:__ZN14SafeBinaryRead21TransferSTLStyleArrayINSt3__26vectorIN9ShaderLab20SerializedSubProgramENS1_9allocatorIS4_EEEEEEvRT_17TransferMetaFlags
jwf:__ZN13RuntimeStaticI20HardwareInfoReporterE10InitializeEv
Loh:_StandaloneInputModule_set_cancelButton_m2642677329
xWc:__Z15Transfer_StringI8JSONReadLb1EEvRK29SerializationCommandArgumentsR31RuntimeSerializationCommandInfo
YGc:__Z35Light_Set_Custom_PropShadowStrengthP12Il2CppObjectf
bbb:__Z25DoForwardShaderRenderLoopR17RenderLoopContextR13dynamic_arrayI16RenderObjectDataLj4EERK11CullResultsbbbN6Camera10RenderFlagE
Aad:__ZN28ParticleSystemSubEmitterData4InitEP14ParticleSystemi
b6:__Z31AudioClip_Get_Custom_PropLengthP12Il2CppObject
s3h:_PKCS12_GetSymmetricAlgorithm_m1812022677
pVk:_UTF8Encoding_GetByteCount_m2372933408
bBl:_Context_get_NeedsContextSink_m1907794755
Ybf:_UNITY_ft_service_list_lookup
e9h:_ARC4Managed_GenerateKey_m716135508
Q2b:__Z18Transfer_BlittableI17RemapPPtrTransferLb1E11ColorRGBA32EvRK29SerializationCommandArgumentsR31RuntimeSerializationCommandInfo
Ugl:__ZN16VirtFuncInvoker2Ii40CustomAttributeTypedArgument_t1498197914S0_E6InvokeEjPvS0_S0_
Ttd:__ZN5physx2Gu20intersectTriangleBoxERKNS_6PxVec3ES3_S3_S3_S3_
i$d:__ZN5physx10NpMaterial8setFlagsENS_7PxFlagsINS_14PxMaterialFlag4EnumEtEE
Lqb:__ZN13BaseAllocator13TryDeallocateEPv
o6b:__Z29Transfer_Blittable_ArrayFieldI19StreamedBinaryWriteILb0EEfEvRT_R9ArrayInfoRK23StaticTransferFieldInfo
Fmg:_Array_CreateInstance_m1054139389
gvj:_GUIStyleState_GetGUIStyleState_m2816150617
V5k:_InternalEnumerator_1__ctor_m967618647_AdjustorThunk
wpb:__ZN16MemoryFileSystem5WriteER13FileEntryDatayPvPy
Kxh:_LayoutGroup_GetAlignmentOnAxis_m1783063916
uzb:__ZNSt3__26vectorIN12FlareManager10FlareEntryENS_9allocatorIS2_EEE21__push_back_slow_pathIKS2_EEvRT_
zLj:_Default_check_arguments_with_score_m1714931543
Jpl:_Collision_get_impactForceSum_m521972354
e9f:_SHA1_Create_m4086509717
olk:__Z57RuntimeInvoker_Il2CppObject_RuntimeTypeHandle_t2330101084PK10MethodInfoPvPS2_
J7l:_UnityEvent_1_GetDelegate_m3098147632_gshared
PUj:_MonoMethodInfo_GetMethodInfo_m3298558752
h_:__ZN13AudioListener17RemoveFromManagerEv
ye:_glAttachShader
puh:_Dropdown_SetAlpha_m2769981009
_Ye:__ZN5physx6shdfnd8internal8HashBaseINS0_4PairIKtPKcEEtNS0_4HashItEENS1_11HashMapBaseItS6_S9_NS_7profile26WrapperReflectionAllocatorIS6_EEE6GetKeyESD_Lb1EE6createERS4_Rb
S3a:__ZNK6Camera19GetProjectionMatrixEv
Jfm:_Predicate_1_BeginInvoke_m1856151290_gshared
oLe:__ZNK5physx2Cm12DelegateTaskINS_2Sc5SceneEXadL_ZNS3_18clothPreprocessingEPNS_10PxBaseTaskEEEE7getNameEv
Hke:__ZNK5physx7NpScene24getWakeCounterResetValueEv
Gde:__ZN5physx20NpRigidActorTemplateINS_14PxRigidDynamicEE17resolveReferencesERNS_24PxDeserializationContextE
Yfh:_ReadOnlyCollection_1_System_Collections_IList_Contains_m673434054_gshared
Tlm:__ZN15dense_hashtableINSt3__24pairIK10KeyWrapperIPK22Il2CppGenericParameterEP11Il2CppClassEES6_N6il2cpp5utils11PointerHashIS4_EEN14dense_hash_mapIS6_S9_SE_NS0_8equal_toIS6_EENS0_9allocatorISA_EEE9SelectKeyESH_SJ_E8min_sizeEjj
Ewk:__Z139RuntimeInvoker_Il2CppObject_Il2CppObject_Int32_t2071877448_SByte_t454417549_SByte_t454417549_SByte_t454417549_SByte_t454417549_Il2CppObjectPK10MethodInfoPvPS2_
CJg:_StackTrace__ctor_m2404985356
W0i:__ZL91WaypointProgressTracker_t2749171610_CustomAttributesCacheGenerator_lookAheadForTargetFactorP21CustomAttributesCache
_Be:__ZN5physx2Gu32PCMConvexVsMeshContactGeneration20generateLastContactsEv
ula:__Z38PreallocateObjectFromPersistentManagerib
aFg:_DateTime_System_IConvertible_ToSingle_m3927769066
gcn:__ZNSt3__211__money_getIwE13__gather_infoEbRKNS_6localeERNS_10money_base7patternERwS8_RNS_12basic_stringIcNS_11char_traitsIcEENS_9allocatorIcEEEERNS9_IwNSA_IwEENSC_IwEEEESJ_SJ_Ri
s$d:__ZThn12_N5physx10NpMaterialD0Ev
bFb:__ZNK9Texture2D20GetUnscaledTextureIDEv
M4:__ZN9AudioClip7PRODUCEE18MemLabelIdentifier18ObjectCreationMode
Wen:__ZNSt3__26vectorIPNS_6locale5facetENS_15__sso_allocatorIS3_Lj28EEEE26__swap_out_circular_bufferERNS_14__split_bufferIS3_RS5_EE
hDg:_Convert_ToSByte_m883113940
CRe:__ZN5physx6shdfnd4sortIjNS_19SortBoundsPredicateENS0_19ReflectionAllocatorIjEEEEvPT_jRKT0_RKT1_j
Yqn:_glFenceSync__wrapper
OVh:_MonoType_get_ContainsGenericParameters_m3229732653
S1d:__ZN5physx7NpShape14onRefCountZeroEv
lyc:__ZN13ComputeBufferC2Ejjj
O3c:__ZNK14ParticleSystem7GetLoopEv
MWf:_Array_InternalArray__IndexOf_TisContactPoint_t1376425630_m3651364246_gshared
ATi:__ZL53InputField_t1631627530_CustomAttributesCacheGeneratorP21CustomAttributesCache
G$m:__ZN6il2cpp2vm13ComObjectBaseINS0_13ManagedObjectE18Il2CppIInspectableNS0_7details6ComNilES5_S5_S5_S5_S5_S5_E16__CreateInstanceEP12Il2CppObject
aFe:__ZN5physx2Cm18DelegateFanoutTaskINS_2Sc5SceneEXadL_ZNS3_14postBroadPhaseEPNS_10PxBaseTaskEEEED0Ev
H4i:__ZL65Ball_t675055681_CustomAttributesCacheGenerator_maxAngularVelocityP21CustomAttributesCache
$Qe:__ZL15TestContainmentRKN5physx6PxVec3EPKfjPKNS_2Gu15HullPolygonDataE
gFb:__ZNK9Texture2D26CanReuploadDataToGfxDeviceEv
w8b:__ZN18StreamedBinaryReadILb0EE21TransferSTLStyleArrayI13dynamic_arrayI4AABBLj4EEEEvRT_17TransferMetaFlags
g$k:_UInt16_System_IConvertible_ToDouble_m4100549304_AdjustorThunk
cLi:__ZL80Physics_t634932869_CustomAttributesCacheGenerator_Physics_SphereCast_m1844421565P21CustomAttributesCache
Dnk:__Z116RuntimeInvoker_Il2CppObject_Il2CppObject_Il2CppObject_Int32_t2071877448_Int32_t2071877448_MonoIOErrorU26_t1029615899PK10MethodInfoPvPS2_
DFa:__Z29ClearRepeatingLogMessageStatev
$Pc:__ZN13TextRendering17TextMeshGenerator13GetTextOffsetERK5RectTIfE
xem:_HashSet_1_OnDeserialization_m1222146673_gshared
aOe:__ZN5physx2Gu11HeightField12loadFromDescERKNS_17PxHeightFieldDescEb
pkc:__ZN15QualitySettings12CleanupClassEv
Npa:__ZN21EnlightenSceneMappingaSERKS_
oah:_Collection_1_SetItem_m546457615_gshared
C2m:__ZNK6il2cpp8metadata21Il2CppGenericInstHashclEPK17Il2CppGenericInst
ofg:_Single_System_IConvertible_ToUInt32_m2447833283
ygh:_ReadOnlyCollection_1_System_Collections_IList_Add_m3806843030_gshared
OZa:__ZN7ApiGLESD2Ev
y_j:_FirstPersonController_ProgressStepCycle_m4011140757
xjb:__ZN9Transform47ClearTransformHierarchyAndApplyToSerializedDataEv
D9k:_InternalEnumerator_1_get_Current_m4083613828_AdjustorThunk
eed:__ZN14qsort_internal31_FindAndMovePivotToLastPositionIP16ParticleSortDataiPFbRKS1_S4_EEEvT_S7_T0_T1_
Nhe:__ZN5physx6shdfnd8PoolBaseINS_2Gu30LargePersistentContactManifoldENS0_19ReflectionAllocatorIS3_EEE12allocateSlabEv
hLc:__Z41Material_CUSTOM_Internal_CreateWithShaderP12Il2CppObjectS0_
Y6f:_RijndaelManaged_GenerateKey_m3366247933
UMh:_BinaryReader_ReadUInt64_m1893783375
Aml:_Bounds_op_Equality_m2161830280
HIf:__ZN5physx2Sn21RepXVisitorReaderBaseINS_19PxVehicleClutchDataEE8pushNameEPKc
mnb:__ZN17PersistentManager9AddStreamEv
Mkn:dynCall_fidi
DTc:__Z47Register_UnityEngine_GUIStyle_set_imagePositionv
cGe:__ZN5physx20getVertexEdgeIndicesERKNS_2Gu11HeightFieldEjjjPNS_8EdgeDataE
eTc:__Z49GUIStyle_CUSTOM_INTERNAL_CALL_Internal_DrawCursor13Il2Cpp_IntPtrRK5RectTIfEP12Il2CppObjectiRK10ColorRGBAf
dNl:_ScrollRect_set_movementType_m3292965850
iAi:__ZL59AttributeTargets_t1984597432_CustomAttributesCacheGeneratorP21CustomAttributesCache
Ume:__ZN5physx6shdfnd5ArrayIPNS_2Sc8BodyCoreENS0_19ReflectionAllocatorIS4_EEE6resizeEjRKS4_
oJj:_RectTransform_set_anchorMin_m4247668187
pCd:__ZN5physx3Cct26CharacterControllerManager16createControllerERNS_9PxPhysicsEPNS_7PxSceneERKNS_16PxControllerDescE
R9:__ZN11UnityEngine15CloudWebService14RestDownloaderD2Ev
_nb:__Z29StdTemplateConversionFunctionIjhEbPvR14SafeBinaryRead
tBb:__ZN22RenderingCommandBufferC2ERKS_
zYe:__ZNK12PhysXRaycast12BatchOverlapER13dynamic_arrayI15BatchedOverlapsLj4EEPP8Colliderj
VRg:_List_1_GrowIfNeeded_m2986672263_gshared
b4k:_ArrayReadOnlyList_1_Remove_m2325516426_gshared
wSb:__ZN14SubstanceInput8TransferI24GenerateTypeTreeTransferEEvRT_
Rwg:_Hashtable_get_Count_m830088216
Rxc:__ZNK13MonoBehaviour13GetScriptTypeEv
hOe:__ZN5physx6shdfnd8internal8HashBaseIPNS_2Gu12TriangleMeshES5_NS0_4HashIS5_EENS1_11HashSetBaseIS5_S7_NS0_9AllocatorELb1EE6GetKeyES9_Lb1EE15reserveInternalEj
SYl:_ScriptableObject_CreateInstance_m3921674852
DYi:__ZL73FirstPersonController_t4132991167_CustomAttributesCacheGenerator_runSpeedP21CustomAttributesCache
rLf:__Z39setPxVehicleDriveDynData_GearSwitchTimePN5physx21PxVehicleDriveDynDataEf
Cqj:_GameObject_Internal_AddComponentWithType_m214735204
pf:_SDL_FreeRW
$pe:__ZN5physx6shdfnd8PoolBaseINS_2Cm5BlockIhLj128EEENS0_19ReflectionAllocatorIS4_EEE15disposeElementsEv
mHf:__ZN5physx3Pvd17PvdPropertyFilterINS_2Sn17RepXVisitorWriterINS_23PxVehicleSuspensionDataEEEE14handleAccessorILj590ENS_22PxRepXPropertyAccessorILj590ES4_ffEEEEvRKT0_
n9f:_SHA1Internal_FillBuff_m891541953
xDi:__ZL62ResolveEventHandler_t3842432458_CustomAttributesCacheGeneratorP21CustomAttributesCache
cae:__ZN5physx3Scb14ParticleSystem14setRestOffsetsEjRKNS_16PxStrideIteratorIKjEERKNS2_IKfEE
f3:__ZN20SoundChannelInstance8getDelayE14FMOD_DELAYTYPEPjS1_
$tb:__ZN21AssetBundleFileSystemC2EPKc
Skk:__Z61RuntimeInvoker_Void_t1841601450_Il2CppObject_Int64_t909078037PK10MethodInfoPvPS2_
Ezh:_InputField_set_customCaretColor_m3534590098
nNl:_ScrollRect_set_viewport_m323693490
jJa:__ZN10UnitySceneD0Ev
UFh:_NumberFormatter_FormatExponential_m3975285307
r6e:__ZNSt3__26vectorIN20TextRenderingPrivate8FontImpl13CharacterInfoE13stl_allocatorIS3_L18MemLabelIdentifier1ELi16EEE8__appendEj
u:tempBigInt
xf:_emscripten_glVertexAttrib1fv
Ncc:__ZNSt3__26vectorIN9ShaderLab20SerializedSubProgram12UAVParameterENS_9allocatorIS3_EEE7reserveEj
b4f:_Array_InternalArray__get_Item_TisTypeTag_t141209596_m1747911007_gshared
z5i:_NameObjectCollectionBase__ctor_m2433753948
Iil:_AnimationCurve_Init_m1486386337
Qql:_Component_GetComponents_m3712441745
Hle:__ZN5physx13NpVolumeCacheC2EPNS_2Sq17SceneQueryManagerEjj
ZMd:__ZThn24_N5physx2Sc20ArticulationJointSimD1Ev
oAh:_InputField_get_selectionAnchorPosition_m466595604
Hzi:__ZL99Thread_t241561612_CustomAttributesCacheGenerator_Thread_t241561612____ExecutionContext_PropertyInfoP21CustomAttributesCache
B0:__ZN12AudioManager14systemCallbackEP11FMOD_SYSTEM24FMOD_SYSTEM_CALLBACKTYPEPvS3_
n7l:_UnityAction_4_Invoke_m3312096275_gshared
lXi:__ZL111LayoutUtility_t4076838048_CustomAttributesCacheGenerator_LayoutUtility_U3CGetPreferredHeightU3Em__5_m1524880643P21CustomAttributesCache
XKk:__Z57RuntimeInvoker_ResourceInfo_t3933049236_Int32_t2071877448PK10MethodInfoPvPS2_
Olm:__ZN15dense_hashtableINSt3__24pairIK10KeyWrapperIPK22Il2CppGenericParameterEP11Il2CppClassEES6_N6il2cpp5utils11PointerHashIS4_EEN14dense_hash_mapIS6_S9_SE_NS0_8equal_toIS6_EENS0_9allocatorISA_EEE9SelectKeyESH_SJ_EC2ERKSM_j
wom:__ZN15dense_hashtableINSt3__24pairIK10KeyWrapperIPK19Il2CppGenericMethodEPK26Il2CppGenericMethodIndicesEES6_N6il2cpp8metadata23Il2CppGenericMethodHashEN14dense_hash_mapIS6_SA_SE_NSD_26Il2CppGenericMethodCompareENS0_9allocatorISB_EEE9SelectKeyESG_SI_E13set_empty_keyERKSB_
dae:__ZN5physx2Sc18ParticleSystemCore14setRestOffsetsEjRKNS_16PxStrideIteratorIKjEERKNS2_IKfEE
iud:__ZN5physx2Gu16testPolyDataAxisERKNS0_8CapsuleVERKNS0_13PolygonalDataEPNS0_12SupportLocalERKNS_6shdfnd3aos6FloatVERSB_RNSA_5Vec3VE
YVl:_RectTransformUtility_ScreenPointToRay_m1842507230
Zhb:__ZN16ReflectionProbes16UpdateSampleDataEv
Xkk:__Z71RuntimeInvoker_Int32_t2071877448_Il2CppObject_Il2CppObject_Il2CppObjectPK10MethodInfoPvPS2_
bUk:_AeroplaneController_set_ThrottleInput_m3465345446
n2c:__Z9UpdateTplIL27ParticleSystemCurveEvalMode1EEvRK11MinMaxCurveR23ParticleSystemParticlesjjPKN4math8floatNx3E
QPd:__ZN5physx2Sc17ParticleSystemSimD0Ev
AOm:__ZNK15dense_hashtableI10KeyWrapperIP18Il2CppGenericClassES3_N6il2cpp8metadata22Il2CppGenericClassHashEN14dense_hash_setIS3_S6_NS5_25Il2CppGenericClassCompareENSt3__29allocatorIS3_EEE8IdentityES8_SB_E10test_emptyERK30dense_hashtable_const_iteratorIS3_S3_S6_SD_S8_SB_E
X3j:_Enumerator_VerifyState_m2118679243_gshared
jbc:__ZN14SafeBinaryRead21TransferSTLStyleArrayI10vector_setI4PPtrI10MonoScriptENSt3__24lessIS4_EE13stl_allocatorIS4_L18MemLabelIdentifier76ELi16EEEEEvRT_17TransferMetaFlags
Vok:__Z103RuntimeInvoker_Il2CppObject_Il2CppObject_StreamingContext_t1417235061_ISurrogateSelectorU26_t2635255864PK10MethodInfoPvPS2_
DRb:__ZN18ProceduralMaterial23VirtualRedirectTransferER17RemapPPtrTransfer
_yl:_SafeHandle_Finalize_m1839546519
OLb:__ZN14Texture2DArray5ResetEv
dXc:__ZN8JSONRead21TransferSTLStyleArrayINSt3__26vectorI10RectOffset13stl_allocatorIS3_L18MemLabelIdentifier1ELi16EEEEEEvRT_S5_17TransferMetaFlags
Cel:_InternalEnumerator_1_MoveNext_m252820768_AdjustorThunk
MBl:_Context_AllocateNamedDataSlot_m3200404053
Hab:__ZN14BatchAllocator6CommitE18MemLabelIdentifier
u9i:_X509EnhancedKeyUsageExtension_Decode_m3866320499
QFh:_NumberFormatter_AppendIntegerStringWithGroupSeparator_m1401773574
S$g:_List_1_Remove_m1237648310_gshared
Hbi:_CipherSuite_get_ServerHMAC_m3566778727
kqi:__ZL64DebuggerBrowsableState_t944457511_CustomAttributesCacheGeneratorP21CustomAttributesCache
Uf:_JS_Sound_Play
Oyh:_Image_IsRaycastLocationValid_m864962354
ynl:_Camera_INTERNAL_CALL_ViewportToWorldPoint_m3505854934
p9m:__ZNSt3__219__libcpp_asprintf_lEPPcP15__locale_structPKcz
_bc:__ZN9ShaderLab16SerializedShader8TransferI14SafeBinaryReadEEvRT_
jIa:__ZN5Mutex7TryLockEv
jZj:_TouchPad_OnPointerUp_m4002565982
ckk:__Z51RuntimeInvoker_Int16_t4041245914_Decimal_t724701077PK10MethodInfoPvPS2_
y4k:_InternalEnumerator_1_get_Current_m2151132603_gshared
Bpl:_Collision_get_collider_m3340328360
_N:__ZN7mecanim8skeleton13SkeletonAlignEPKNS0_8SkeletonERKN4math7_float4ES7_i
fxb:__ZN14SafeBinaryRead21TransferSTLStyleArrayIN4core12basic_stringIcNS1_20StringStorageDefaultIcEEEEEEvRT_17TransferMetaFlags
yij:_RemotingConfiguration_RegisterWellKnownServiceType_m2491506630
GHi:__ZL89Screen_t786852042_CustomAttributesCacheGenerator_Screen_t786852042____height_PropertyInfoP21CustomAttributesCache
vO:__ZNK26AnimatorControllerPlayable34GetAnimatorStateInfoFromStateIndexEiiR17AnimatorStateInfo
vui:__ZL55_TypeBuilder_t2783404358_CustomAttributesCacheGeneratorP21CustomAttributesCache
Wkm:__ZL25UnresolvedVirtualCall_204P12Il2CppObjectPK10MethodInfo
Cob:__Z29StdTemplateConversionFunctionIayEbPvR14SafeBinaryRead
afe:__ZNK5physx20NpRigidActorTemplateINS_13PxRigidStaticEE14getConstraintsEPPNS_12PxConstraintEjj
Gwd:__ZN25MeshMTDGenerationCallbackD0Ev
LRk:_U3CDoBobCycleU3Ec__Iterator0_Reset_m4223190140
WCh:_LayoutRebuilder_Initialize_m2671585490
yWg:_List_1_System_Collections_IList_IndexOf_m4061554721_gshared
waa:__ZN11UnityEngine15CloudWebService14DataDispatcher4StopEv
H5c:__ZN15CollisionModule16CheckConsistencyEv
dHc:__Z40Register_UnityEngine_Light_get_intensityv
Q9h:_MD4Managed_H_m4236752602
Pcc:__ZNSt3__26vectorIN9ShaderLab20SerializedSubProgram12UAVParameterENS_9allocatorIS3_EEE8__appendEj
hQg:_Enumerator_System_Collections_IEnumerator_Reset_m4029239424_AdjustorThunk
$4g:_Collection_1_GetEnumerator_m434271983_gshared
DQc:__ZN5IMGUI9GUIWindow5OnGUIER8GUIState
Isf:__ZN22BaseUnityConnectClient24OnSaveFileFromServerDoneERK8UnityStrS2_bi
nS:__ZN18StreamedBinaryReadILb0EE19TransferSTLStyleMapINSt3__23mapIj8UnityStrNS2_4lessIjEENS2_9allocatorINS2_4pairIKjS4_EEEEEEEEvRT_17TransferMetaFlags
D7j:_Enumerator_get_Current_m2986380627_gshared
jvc:__ZNK17AnimationCurveTplI11QuaternionfE8GetRangeEv
NAl:_LifetimeServices_set_LeaseTime_m1487876644
L0e:__ZN19CharacterController12CleanupClassEv
LMj:_ConstructorBuilder_not_supported_m3687319507
m0i:__ZL65U3CStartU3Ec__Iterator0_t522092548_CustomAttributesCacheGeneratorP21CustomAttributesCache
joi:__ZL48IList_t3321498491_CustomAttributesCacheGeneratorP21CustomAttributesCache
IXc:__Z33EmitSerializationCommandsForFieldI9JSONWriteEvR18TransferField_InfoR32SerializationCommandQueueBuilderRP20AllowNameConversions
YVd:__ZN5physx12NpConstraint8comShiftEPNS_12PxRigidActorE
ffg:_Single_System_IConvertible_ToInt64_m3555853323_AdjustorThunk
Jac:__Z23TransferScriptingObjectI19StreamedBinaryWriteILb0EEEvRT_P12Il2CppObjectP11Il2CppClassPK15MonoScriptCache
ejn:dynCall_iifiii
JCk:__Z48RuntimeInvoker_PersistentListenerMode_t857969000PK10MethodInfoPvPS2_
oGk:__Z77RuntimeInvoker_Boolean_t3825574718_AspectModeU26_t218518220_Int32_t2071877448PK10MethodInfoPvPS2_
wPm:__ZNK15dense_hashtableINSt3__24pairIK10KeyWrapperIP12Il2CppObjectEN6il2cpp2gc9CachedCCWEEES5_NS7_5utils11PointerHashIS3_EEN14dense_hash_mapIS5_S9_SD_NS0_8equal_toIS5_EENS0_9allocatorISA_EEE9SelectKeyESG_SI_E3endEv
Ook:__Z87RuntimeInvoker_Il2CppObject_Il2CppObject_Il2CppObject_Il2CppObject_StringU26_t638738783PK10MethodInfoPvPS2_
ZGa:__Z21HasAlphaTextureFormat13TextureFormat
g5:__ZN12AudioManager6UpdateEv
XGa:__ZN14ImageReference9BlitImageERKS_NS_8BlitModeE
EUj:_MonoMethod_get_MethodHandle_m1882915015
YG:__ZN8Animator12AddToManagerEv
ysi:__ZL93ConstructorInfo_t2851816542_CustomAttributesCacheGenerator_ConstructorInfo_Invoke_m2144827141P21CustomAttributesCache
juc:__Z26ApplyBlendShapesToVerticesR12SkinMeshInfoRKN4math5_int4EPNS1_8floatNx3ES6_
Tgb:__ZNK9ShaderLab9IntShader6GetTagEib
itd:__ZNK5physx2Gu16SupportLocalImplINS0_11ConvexHullVEE9doSupportERKNS_6shdfnd3aos5Vec3VERNS5_6FloatVESA_
WZb:__ZN23CachedSerializationDataD2Ev
dqd:__ZNK5physx3Cct13BoxController8getActorEv
nCb:__ZN14RenderSettings23VirtualRedirectTransferER14SafeBinaryRead
ZFf:__ZN5physx3Pvd17PvdPropertyFilterINS_2Sn17RepXVisitorWriterINS_22PxVehicleWheelsDynDataEEEE27handleExtendedIndexPropertyILj632ES4_fKjNS_18PxUnknownClassInfoEEEvjRKNS_29PxExtendedIndexedPropertyInfoIXT_ET0_T2_T1_EERKT3_
Nfd:__ZNK13b2CircleShape5CloneEP16b2BlockAllocator
KRm:__ZN6il2cpp2os10ThreadImpl15CurrentThreadIdEv
_y:__ZNSt3__227__insertion_sort_incompleteIR17DetailNodeYSorterP16DetailMeshBVNodeEEbT0_S5_T_
GM:__ZN30dense_hashtable_const_iteratorINSt3__24pairIKN11UnityEngine9Animation14GenericBindingENS3_10BoundIndexEEES4_NS3_25GenericBindingHashFunctorEN14dense_hash_mapIS4_S6_S8_NS3_30GenericBindingValueArrayUniqueE13stl_allocatorIS7_L18MemLabelIdentifier1ELi16EEE9SelectKeyESA_SD_E30advance_past_empty_and_deletedEv
Zu:__ZN14dtNavMeshQuery18initSlicedFindPathEyyPKfS1_PK13dtQueryFilter
nRf:_Array_InternalArray__ICollection_Contains_TisColor32_t874517518_m2818328910_gshared
qAb:__ZN17GlobalGameManager8TransferI17RemapPPtrTransferEEvRT_
TOe:__ZN5physx6shdfnd8internal8HashBaseIPNS_2Gu12TriangleMeshES5_NS0_4HashIS5_EENS1_11HashSetBaseIS5_S7_NS0_9AllocatorELb1EE6GetKeyES9_Lb1EE5eraseERKS5_
v6h:_AppDomainInitializer_EndInvoke_m4003801172
clm:__ZL25UnresolvedVirtualCall_212P12Il2CppObjecti38CustomAttributeNamedArgument_t94157543PK10MethodInfo
cIj:_RaycastHit2D_get_point_m442317739
Nsk:__Z72RuntimeInvoker_Il2CppObject_Il2CppObject_Decimal_t724701077_Il2CppObjectPK10MethodInfoPvPS2_
Us:__ZNK11OffMeshLink17HasEndpointsMovedEv
_Bb:__ZN16LevelGameManager8TransferI18StreamedBinaryReadILb0EEEEvRT_
kkf:_UNITY_tt_face_load_fpgm
dTk:_WaypointProgressTracker_set_targetPoint_m3598253577
WSb:__ZN12InputManagerD0Ev
x0m:__ZN6il2cpp6icalls8mscorlib6System11Diagnostics10StackTrace9get_traceEP15Il2CppExceptionib
dHh:_NumberFormatInfo_set_NumberNegativePattern_m1050626150
FDk:__Z37RuntimeInvoker_FillMethod_t1640962579PK10MethodInfoPvPS2_
Qwj:_GUIStyle_get_overflow_m1125058093
kNl:_ScrollRect_get_scrollSensitivity_m1160815603
mlg:_UnicodeEncoding_GetBytes_m1337660232
Pld:__ZN16Physics2DManager10CircleCastERK8Vector2ffS2_fiffPK10Collider2DbP12RaycastHit2Di
sZl:_SerializePrivateVariables__ctor_m806793207
uWd:__ZN5physx2Sc9RigidCore20removeShapeFromSceneERNS0_9ShapeCoreEb
WYe:__ZN5physx6shdfnd8internal8HashBaseINS0_4PairIKPKcjEES5_NS0_4HashIS5_EENS1_11HashMapBaseIS5_jS9_NS_7profile26WrapperReflectionAllocatorIjEEE6GetKeyESD_Lb1EE15reserveInternalEj
R3m:___ctype_b_loc
Jha:__ZN13RuntimeStaticI11WindManagerE16StaticInitializeEPv
EPl:_VertexHelper_GetUIVertexStream_m3849188814
I8a:__ZNK19RenderEventsContext21ExecuteCommandBuffersEiR17ShaderPassContextRK15RenderNodeQueueP19ProfilerInformationi
xRe:__ZN5physx11RTreeCooker18buildFromTrianglesERNS_2Gu5RTreeEPKNS_6PxVec3EjPKtPKjjRNS_6shdfnd5ArrayIjNSB_19ReflectionAllocatorIjEEEEPNS0_13RemapCallbackEfNS_17PxMeshCookingHint4EnumE
FQd:__ZN5physx6shdfnd5ArrayIPvNS0_15InlineAllocatorILj256ENS0_19ReflectionAllocatorINS_14NpArticulationEEEEEE15growAndPushBackERKS2_
Y1g:_List_1_get_Count_m1249351212_gshared
zfl:_InternalEnumerator_1_get_Current_m747506907_AdjustorThunk
anl:_Camera_get_eventMask_m4241372419
JBg:_Decimal_op_Implicit_m623319612
Kuj:_GUILayoutUtility_LayoutFromEditorWindow_m1847418289
zbi:_CertificateValidationCallback2_BeginInvoke_m3996282202
Dii:_SslClientStream_get_ClientCertSelectionDelegate_m2316959461
Cug:_SynchronizedArrayListWrapper_get_SyncRoot_m1466044127
xla:__ZNK15MonoScriptCache7ReleaseEv
Nlh:_EventTrigger_OnPointerExit_m2119176877
EDe:__ZN5physx9PxTaskMgrC2EPNS_15PxCpuDispatcherEPNS_15PxGpuDispatcherEPNS_15PxSpuDispatcherE
hh:_glBindTexture
Y4g:_Collection_1_ClearItems_m3585785594_gshared
w4m:_snprintf
Cfh:_ReadOnlyCollection_1_System_Collections_IList_get_IsReadOnly_m2918085566_gshared
rWi:__ZL84HorizontalOrVerticalLayoutGroup_t1968298610_CustomAttributesCacheGenerator_m_SpacingP21CustomAttributesCache
eLj:_Binder__ctor_m1361613966
lAh:_InputField_set_caretPosition_m888572237
dQj:_ILGenerator__cctor_m3943061018
Stg:_ArrayListWrapper_Clone_m1506311066
Wbi:_CipherSuite_set_Context_m4127897124
HXa:__ZN16UniformCacheGLES6CreateERK20GpuProgramParameters
yVk:_UTF8Encoding_Fallback_m811555654
A9c:__ZN14ParticleSystem10ResetSeedsEv
XYl:_ScriptableObject_t1975622470_marshal_pinvoke_cleanup
qkg:_Encoding_GetString_m1894033578
Reh:_ReadOnlyCollection_1_System_Collections_IList_Clear_m1918003010_gshared
D$l:_TextGenerator_t647235000_marshal_pinvoke_cleanup
bon:_emscripten_glGetProgramInfoLog__wrapper
EMi:__ZL94Font_t4239498691_CustomAttributesCacheGenerator_Font_InvokeTextureRebuilt_Internal_m2007522718P21CustomAttributesCache
NW:__ZN8Animator16GetDeltaPositionEv
hoa:__ZN17PersistentManager23DestroyFromFileInternalEi
BJi:__ZL98Object_t1021602117_CustomAttributesCacheGenerator_Object_DoesObjectWithInstanceIDExist_m2570795274P21CustomAttributesCache
ETc:__Z43Register_UnityEngine_GUIStyle_get_alignmentv
BLg:_Enum_ToString_m2112979707
c$l:_TextGenerator_ValidatedSettings_m1640214759
Vvi:__ZL55SoapServices_t3397513225_CustomAttributesCacheGeneratorP21CustomAttributesCache
Rfj:_MonoMethodMessage_get_MethodName_m3580519713
QO:__ZN26AnimatorControllerPlayable18PrepareForPlaybackERN7mecanim6memory9AllocatorE
AU:__ZN18StreamedBinaryReadILb1EE21TransferSTLStyleArrayI22OffsetPtrArrayTransferIN4math4trsXEEEEvRT_17TransferMetaFlags
Mte:__ZN5physx19PxsMaterialCombiner24combineIsotropicFrictionERKNS_15PxsMaterialDataES3_
ILg:_Enum_t2459695545_marshal_pinvoke_cleanup
tVk:_UTF8Encoding_GetBytes_m4170182058
Xfm:_Predicate_1__ctor_m1020292372_gshared
m5f:_Mesh_GetAllocArrayFromChannel_TisColor32_t874517518_m2030100417_gshared
jbe:__ZN5physx22NpParticleBaseTemplateINS_16PxParticleSystemENS_16NpParticleSystemEE20lockParticleReadDataEv
w0e:__ZN11BoxCollider7PRODUCEE18MemLabelIdentifier18ObjectCreationMode
Zxa:__ZN22CreateGpuProgramOutputC2Ev
BHi:__ZL97Graphics_t2412809155_CustomAttributesCacheGenerator_Graphics_BlitMultiTap_m1361831915____offsets3P21CustomAttributesCache
Aqj:_Object__ctor_m197157284
fB:__Z21GetAnimatableBindTypeRK16TypeTreeIterator
JPh:_MemoryStream_InternalConstructor_m2423667240
lIl:_CapturingGroup_set_Index_m2175936006
qfn:__ZNSt13runtime_errorC2ERKNSt3__212basic_stringIcNS0_11char_traitsIcEENS0_9allocatorIcEEEE
YQk:_DragRigidbody_DragObject_m1982259948
nhk:__Z70RuntimeInvoker_Il2CppObject_Il2CppObject_Il2CppObject_SByte_t454417549PK10MethodInfoPvPS2_
Pgj:_SoapMethodAttribute_SetReflectionObject_m3431595769
FPe:__ZN5physx7Cooking16cookTriangleMeshERKNS_18PxTriangleMeshDescERNS_14PxOutputStreamE
WPl:_Slider_set_maxValue_m2951480075
hoc:__ZN8GUILayer12CleanupClassEv
RNd:__ZN5physx2Sc7ElementD0Ev
cSe:__ZN5physx6shdfnd10Foundation7releaseEv
Omm:__ZN6il2cpp2vm5Class4InitEP11Il2CppClass
Tha:__ZN19ShaderPropertySheet27AddNewPropertyUninitializedERKN9ShaderLab16FastPropertyNameENS_12PropertyTypeEijj
Hf:_emscripten_glBindBuffer
tuc:__ZNK15GUIEventManager15GetEventAtIndexEi
Hnf:__ZN2UI14CanvasRenderer17SyncDirtyElementsER8JobFence
i7b:__Z18Transfer_BlittableI18StreamedBinaryReadILb0EELb0ExEvRK29SerializationCommandArgumentsR31RuntimeSerializationCommandInfo
sEf:__Z35getPxVehicleSuspensionDataMMaxDroopPKN5physx23PxVehicleSuspensionDataE
KQm:__ZN6il2cpp5utils11StringUtils15StringDuplicateEPKc
PLm:__ZN6il2cpp2vm9Exception32GetPlatformNotSupportedExceptionEPKc
qxa:__ZNK9ShaderLab21ShaderRasterStateDesc16ToGfxRasterStateEPK19ShaderPropertySheetS3_R14GfxRasterState
Lzh:_InputField_set_onValueChange_m1749304609
Ydb:__Z16RenderShadowMapsPK18ShadowMapJobHeaderR17ShaderPassContext
Doj:_CspParameters__ctor_m2480441577
yil:_Animation_PlayDefaultAnimation_m3276120146
z2m:__ZN6il2cpp2os9EventImplC2Ebb
g3c:__Z12RangedRandomR5RandNRKiS2_
nBl:_DynamicPropertyCollection_NotifyMessage_m840388347
wJl:_Uri_ParseUri_m5711497
VS:__ZN4PPtrI13MonoBehaviourE8TransferI19StreamedBinaryWriteILb0EEEEvRT_
X5e:__ZN14SafeBinaryRead21TransferSTLStyleArrayINSt3__26vectorI8UnityStr13stl_allocatorIS3_L18MemLabelIdentifier34ELi16EEEEEEvRT_17TransferMetaFlags
zwb:__ZNK5Unity9Component26GetTypeInfoVirtualInternalEv
oia:__Z20IsMatrixBuiltinParamPKcPi
Gsk:__Z63RuntimeInvoker_Void_t1841601450_Il2CppObject_Decimal_t724701077PK10MethodInfoPvPS2_
qUi:__ZL108MaskableGraphic_t540192618_CustomAttributesCacheGenerator_MaskableGraphic_ParentMaskStateChanged_m3643747340P21CustomAttributesCache
Eam:_CarController_set_CurrentSteerAngle_m1498636155
Vul:_Playable_INTERNAL_CALL_GetInputInternal_m1720243548
Imc:__ZN8Renderer19PostInitializeClassEv
Yoa:__ZN13RuntimeStaticINSt3__23mapINS0_12basic_stringIcNS0_11char_traitsIcEENS0_9allocatorIcEEEES7_NS0_4lessIS7_EE13stl_allocatorINS0_4pairIKS7_S7_EEL18MemLabelIdentifier12ELi16EEEEE16StaticInitializeEPv
y_m:__ZN6il2cpp5utils10MemoryPool6MallocEj
k9e:__ZN20TextRenderingPrivate15DynamicFontDataD2Ev
X4k:_InternalEnumerator_1_get_Current_m1943362081_AdjustorThunk
q3l:_Vector3_get_sqrMagnitude_m1814096310_AdjustorThunk
$8m:__ZNKSt3__27num_getIwNS_19istreambuf_iteratorIwNS_11char_traitsIwEEEEE15__do_get_signedIxEES4_S4_S4_RNS_8ios_baseERjRT_
a_m:__ZN6il2cpp6icalls8mscorlib6System8Delegate23CreateDelegate_internalEP20Il2CppReflectionTypeP12Il2CppObjectP22Il2CppReflectionMethodb
a7m:__ZNSt3__214basic_iostreamIcNS_11char_traitsIcEEED0Ev
tLj:_Default_check_type_m2363631305
RZb:__ZN18DelayedCallManager18CancelCallDelayed2E4PPtrI6ObjectEPF15CallObjectStatePS1_PvES7_
sWg:_List_1__cctor_m911493842_gshared
Qqb:__ZN25ThreadsafeLinearAllocator10ReallocateEPvji
R$b:__Z18Transfer_BlittableI14SafeBinaryReadLb1E11QuaternionfEvRK29SerializationCommandArgumentsR31RuntimeSerializationCommandInfo
$Td:__ZNK5physx18PxArticulationLink8isKindOfEPKc
UWf:_Array_InternalArray__IndexOf_TisRaycastHit2D_t4063908774_m3739817942_gshared
nVj:_MonoProperty_GetAccessors_m3704698731
fok:__Z146RuntimeInvoker_Il2CppObject_Int32_t2071877448_Il2CppObject_ObjectU5BU5DU26_t3223402458_Il2CppObject_Il2CppObject_Il2CppObject_ObjectU26_t597476745PK10MethodInfoPvPS2_
q1e:__Z25CreatePxMeshFromUnityMeshP4MeshbbRK10Matrix4x4f13TransformTypef
CZm:_GC_disable
VNb:__ZN10Matrix4x4f8TransferI14SafeBinaryReadEEvRT_
Mn:FUNCTION_TABLE_vifiiiiiiiiiiiiiiiiii
$Sh:_UnmanagedMemoryStream_ReadByte_m2501145010
zbk:_Dictionary_2__ctor_m406310120_gshared
xC:__ZN15SerializeTraitsI13dynamic_arrayIN11UnityEngine9Animation14GenericBindingELj4EEE19ResizeSTLStyleArrayERS4_i18MemLabelIdentifier
wkj:_ObjectRecord_UnchainFixup_m3025030310
OO:__ZN14AvatarPlayback8StopTimeEv
vcn:__ZNSt3__28messagesIcED0Ev
zmi:__ZL60MulticastDelegate_t3201952435_CustomAttributesCacheGeneratorP21CustomAttributesCache
p2e:__ZN14PhysicsManager7PRODUCEE18MemLabelIdentifier18ObjectCreationMode
_mc:__ZN19ShaderPropertySheet16SetVectorIndexedERKN9ShaderLab16FastPropertyNameEifRK8Vector4fNS_8SetFlagsE
tEa:__ZL14OnWorldStoppedv
TRk:_U3CResetCoroutineU3Ec__Iterator0_System_Collections_IEnumerator_get_Current_m2060129645
Q8b:__Z18Transfer_BlittableI18StreamedBinaryReadILb1EELb0E8Vector3fEvRK29SerializationCommandArgumentsR31RuntimeSerializationCommandInfo
Qyk:__Z35RuntimeInvoker_Playable_t3667545548PK10MethodInfoPvPS2_
Fae:__ZN5physx3Scb14ParticleSystem12ForceUpdates7destroyEv
uTi:__ZL61Image_t2042527209_CustomAttributesCacheGenerator_m_FillCenterP21CustomAttributesCache
MQa:__ZN7ApiGLES18ClearBufferSubDataEjN2gl12BufferTargetEll
UW:__ZN8Animator7SetBoolEib
VAc:__Z37Camera_Get_Custom_PropAllCamerasCountv
hMb:__ZN14Texture2DArray8TransferI18StreamedBinaryReadILb0EEEEvRT_
vXd:__ZN5physx15NpActorTemplateINS_18PxArticulationLinkEED2Ev
wTc:__Z38Register_UnityEngine_GUIStyle_get_namev
zYl:_Scene_get_buildIndex_m3735680091_AdjustorThunk
aPh:_FileStreamAsyncResult__ctor_m1096228032
Nef:_Split_Cubic
zb:invoke_fiiii
AWb:__ZNSt3__26vectorIN30RuntimeInitializeOnLoadManager15ClassMethodInfoE13stl_allocatorIS2_L18MemLabelIdentifier12ELi16EEE26__swap_out_circular_bufferERNS_14__split_bufferIS2_RS5_EE
dph:_StandaloneInputModule_ProcessMouseEvent_m3840335260
YGg:_DBNull_System_IConvertible_ToSByte_m1228193074
E4g:_Collection_1__ctor_m2818834331_gshared
A4f:_Array_InternalArray__get_Item_TisUICharInfo_t3056636800_m3872982785_gshared
d1e:__Z19ExtractDataFromMeshR4MeshR13dynamic_arrayI8Vector3fLj4EERS1_ItLj2EES6_
dpl:_CapsuleCollider_INTERNAL_get_center_m2069429931
Dwl:_Playables_InternalDestroy_m3873600434
MRm:__ZN6il2cpp2os10ThreadImpl22CreateForCurrentThreadEv
Y7g:_Collection_1_Insert_m3041550124_gshared
_wg:_Hashtable_PutImpl_m3318435614
Bdn:__ZNKSt3__25ctypeIcE9do_narrowEPKcS3_cPc
NYd:__ZN5physx2Sc16ArticulationCore26setMaxProjectionIterationsEj
qdg:_SecurityElement__ctor_m1988489885
AOh:_FileStream_FlushBuffer_m2594140542
kAd:__ZN26IntersectAnyVsMeshCallbackILi1ELb0EED2Ev
XCb:__ZN6Skybox12AddToManagerEv
hKk:__Z76RuntimeInvoker_Void_t1841601450_Int32U5BU5DU26_t1341332175_Int32_t2071877448PK10MethodInfoPvPS2_
gpd:__ZN15ContactFilter2D13ShouldCollideEP9b2FixtureS1_
zef:_ft_black_render
_Vm:__ZN6il2cpp2vm8Profiler12GCHeapResizeEx
Wkn:dynCall_viiifi
uUa:__ZN18GfxFramebufferGLES20ActiveContextChangedEPP17RenderSurfaceBaseS2_
cDi:__ZL51TimeSpan_t3430258949_CustomAttributesCacheGeneratorP21CustomAttributesCache
qUa:__Z19PluginsRenderMarkeri
QSj:_MethodBase_get_ContainsGenericParameters_m1185248753
FJi:__ZL80Object_t1021602117_CustomAttributesCacheGenerator_Object_Instantiate_m2439155489P21CustomAttributesCache
hW:__ZN10HumanTrait18InitializeBoneNameEv
qck:_DefaultComparer__ctor_m899694595_gshared
UPk:_Triangles_Cleanup_m2992823857
iDg:_Convert_ToSByte_m1570938941
Yek:__ZN16VirtFuncInvoker1Ii38CustomAttributeNamedArgument_t94157543E6InvokeEjPvS0_
kym:__ZN6il2cpp2gc19AppendOnlyGCHashMapINSt3__24pairIPK14Il2CppAssemblyP11Il2CppClassEEP24Il2CppReflectionAssembly17ReflectionMapHashIS9_E19ReflectionMapEqualsIS9_EE11TryGetValueERKS9_PSB_
$7b:__Z29Transfer_Blittable_ArrayFieldI18StreamedBinaryReadILb0EEyEvRT_R9ArrayInfoRK23StaticTransferFieldInfo
nFd:__ZNK5physx3Ext5JointINS_15PxDistanceJointENS_30PxDistanceJointGeneratedValuesEE18getConstraintFlagsEv
Kek:_EqualityComparer_1_get_Default_m875724809_gshared
Tbb:__ZN14qsort_internal6_QSortIP15RODataDepthPassi17ROSorterDepthPassEEvT_S4_T0_T1_
zNm:__ZNSt3__214__split_bufferIN6il2cpp2vm5Image20EmbeddedResourceDataERNS_9allocatorIS4_EEEC2EjjS7_
V5a:__ZN5Image13ReformatImageERK14ImageReferenceii13TextureFormatNS0_8BlitModeE
Hti:__ZL57DispIdAttribute_t607560947_CustomAttributesCacheGeneratorP21CustomAttributesCache
UZ:__ZN12AudioManager17RemoveAudioSourceEP11AudioSource
l1j:_TiltInput__ctor_m3359564467
Qrl:_CullingGroup_Finalize_m3172731580
dNe:__ZNK5physx2Gu10ConvexMesh17getReferenceCountEv
j4f:_Array_InternalArray__get_Item_TisUInt64_t2909196914_m2580870875_gshared
E_i:__ZL66TiltShiftHdr_t2699709599_CustomAttributesCacheGenerator_downsampleP21CustomAttributesCache
dle:__ZN5physx2Sc5Scene22setNbContactDataBlocksEj
bLf:__Z38getNbPxVehicleDriveDynData_AnalogInputPKN5physx21PxVehicleDriveDynDataE
V4h:_SecurityParser_OnEndElement_m2909940377
L6:__ZN5physx14PxLightCpuTask12addReferenceEv
fmd:__Z10b2DistanceP16b2DistanceOutputP14b2SimplexCachePK15b2DistanceInput
tHb:__ZN21EnlightenSceneMapping8TransferI19StreamedBinaryWriteILb0EEEEvRT_
GPm:__ZN6il2cpp2gc16GarbageCollector19InitializeFinalizerEv
sQc:__ZN10GUIManager10DoGUIEventER10InputEventb
mci:_Context_get_ClientWriteKey_m2235605337
S4j:_Enumerator__ctor_m3597047336_AdjustorThunk
EWm:_GC_bl_init_no_interiors
T0m:__ZN6il2cpp2vm13LibraryLoader21SetFindPluginCallbackEPFPKcS3_E
JHi:__ZL76GL_t1765937205_CustomAttributesCacheGenerator_GL_Clear_m2110364678____depth3P21CustomAttributesCache
jia:__Z20CalculateSqrDistanceRK8Vector3fRK4AABB
d8k:_InternalEnumerator_1_get_Current_m2415979394_AdjustorThunk
Hsb:__Z20GetAssetBundlePrefixRKNSt3__212basic_stringIcNS_11char_traitsIcEENS_9allocatorIcEEEE
M1e:__ZN14PhysicsManager15ProcessContactsEv
Oxd:__ZN21BoxTraceSegmentReport7onEventEjPj
ITd:__ZN5physx2Sc21ArticulationJointCore13setSwingLimitEff
T1:__Z32AudioMixerDuckingProcessCallbackP21UnityAudioEffectStatePfS1_jii
ztd:__ZL20HullProjectionCB_BoxRKN5physx2Gu13PolygonalDataERKNS_6PxVec3ERKNS_2Cm8Matrix34ERKNS7_23FastVertex2ShapeScalingERfSE_
dMj:_CustomAttributeTypedArgument_GetHashCode_m999147081_AdjustorThunk
Vhk:__Z48RuntimeInvoker_Void_t1841601450_SByte_t454417549PK10MethodInfoPvPS2_
bne:__ZN5physx17PxcNpMemBlockPool19releaseUnusedBlocksEv
KOh:_FileStream_Read_m3880951166
Eze:__ZN5physx14PxsAABBManager21selfCollideAggregatesEPKNS_19AggregateSortedDataE
D_:__ZN12AudioManager8TransferI24GenerateTypeTreeTransferEEvRT_
XAa:__Z25GetBytesFromTextureFormat13TextureFormat
UGa:__ZN9Texture3D19UnloadFromGfxDeviceEb
MHe:__ZN5physx12_GLOBAL__N_112innerProductERKNS_14Px1DConstraintERS1_RKNS0_9MassPropsE
wcn:__ZNKSt3__28messagesIcE7do_openERKNS_12basic_stringIcNS_11char_traitsIcEENS_9allocatorIcEEEERKNS_6localeE
m2b:__Z18Transfer_BlittableI17RemapPPtrTransferLb0EsEvRK29SerializationCommandArgumentsR31RuntimeSerializationCommandInfo
WJf:__Z35setPxVehicleDriveSimData4W_DiffDataPN5physx23PxVehicleDriveSimData4WERKNS_27PxVehicleDifferential4WDataE
djn:dynCall_iifff
Rcb:__Z26FindForwardLightsForObjectR13dynamic_arrayIhLj1EEPK11CulledLightjRK12ActiveLightsRK10RenderNodebRK23FindForwardLightsParams
Rj:_emscripten_webgl_init_context_attributes
WC:__Z14resize_trimmedINSt3__26vectorIN13AnimationClip9PPtrCurveE13stl_allocatorIS3_L18MemLabelIdentifier25ELi16EEEEEvRT_j
gmd:__ZN9b2Simplex9ReadCacheEPK14b2SimplexCachePK15b2DistanceProxyRK11b2TransformS5_S8_
E9j:_Dictionary_2_Resize_m2532139610_gshared
r_l:_StackTraceUtility__cctor_m1132099289
N$g:_List_1_IndexOf_m2019441835_gshared
Sve:__ZN5physx26PxcFrictionPatchStreamPairC2ERNS_17PxcNpMemBlockPoolE
FYk:_TimeSpan_Equals_m2029123271_AdjustorThunk
m2i:__ZL109AeroplaneController_t967620215_CustomAttributesCacheGenerator_AeroplaneController_get_EnginePower_m3220732976P21CustomAttributesCache
SYa:__ZN9GfxDevice21RegisterNativeTextureE9TextureIDi16TextureDimension
ANg:_CultureInfo__ctor_m456863818
m$m:__ZN6il2cpp6icalls8mscorlib6System10Reflection4Emit11TypeBuilder20create_generic_classEP27Il2CppReflectionTypeBuilder
zBm:__ZNK15dense_hashtableINSt3__24pairIK10KeyWrapperINS1_IPK12PropertyInfoP11Il2CppClassEEEjEES9_17ReflectionMapHashIS8_EN14dense_hash_mapIS9_jSD_19ReflectionMapEqualsIS8_ENS0_9allocatorISB_EEE9SelectKeyESG_SI_E13find_positionERSA_
kkm:__ZL25UnresolvedVirtualCall_166P12Il2CppObject22UILineInfo_t3621277874PK10MethodInfo
pta:__ZN12ScriptMapper10FindShaderERKNSt3__212basic_stringIcNS0_11char_traitsIcEENS0_9allocatorIcEEEE
NXg:_List_1_AsReadOnly_m1925066867_gshared
IQg:_Enumerator_MoveNext_m2504790928_gshared
yVi:__ZL61Slider_t297367283_CustomAttributesCacheGenerator_m_HandleRectP21CustomAttributesCache
bda:__ZN3WWW20GetCachedErrorStringEv
IZl:_SliderState__ctor_m1096533539
hhc:__ZN12ScriptMapperD2Ev
Oya:__ZNSt3__26__treeINS_12__value_typeI8UnityStrS2_EENS_19__map_value_compareIS2_S3_NS_4lessIS2_EELb1EEE13stl_allocatorIS3_L18MemLabelIdentifier1ELi16EEE7destroyEPNS_11__tree_nodeIS3_PvEE
XWe:__ZN9Rigidbody13AwakeFromLoadE17AwakeFromLoadMode
vQi:__ZL85AxisEventData_t1524870173_CustomAttributesCacheGenerator_U3CmoveDirU3Ek__BackingFieldP21CustomAttributesCache
K5c:__ZN9SubModule8TransferI14SafeBinaryReadEEvRT_
AEg:_CurrentSystemTimeZone_System_Runtime_Serialization_IDeserializationCallback_OnDeserialization_m489233422
C0c:__ZN14ParticleSystem15AddCustomLightsERK27LocalLightCullingParametersRK11CullResultsR12ActiveLightsRi9LightType
nZd:__ZNK5physx14NpSceneQueries10multiQueryINS_12PxOverlapHitEEEbRKNS_15MultiQueryInputERNS_13PxHitCallbackIT_EENS_7PxFlagsINS_9PxHitFlag4EnumEtEEPKNS_12PxQueryCacheERKNS_17PxQueryFilterDataEPNS_21PxQueryFilterCallbackEPNS_20BatchQueryFilterDataE
iCh:_LayoutElement_get_preferredWidth_m3246897845
tTl:_X509Certificate_PEM_m49854707
e1e:__ZL21GetMeshLocationDetailR4Mesh
x9i:_X509BasicConstraintsExtension__ctor_m3320418592
DSl:_ExtendedKeyUsageExtension_Decode_m901297139
Qdc:__Z32TransferEnumWithNameForceIntSizeI14SafeBinaryRead7FogModeEvRT_RT0_PKc17TransferMetaFlags
fNc:__Z52Register_UnityEngine_RenderTexture_Internal_GetWidthv
epi:__ZL89SafeWaitHandle_t481461830_CustomAttributesCacheGenerator_SafeWaitHandle__ctor_m1710231470P21CustomAttributesCache
mYm:_GC_check_leaked
Sfc:__ZN9ShaderLab20SerializedSubProgram16TextureParameter8TransferI19StreamedBinaryWriteILb0EEEEvRT_
Hbm:_Wheel_set_OnGround_m4260591879
Tb:invoke_fiiiiiiiifiiiif
J_f:_Array_InternalArray__Insert_TisVector4_t2243707581_m1643342708_gshared
eEm:__ZN15dense_hashtableINSt3__24pairIK10KeyWrapperINS1_IPK14Il2CppAssemblyP11Il2CppClassEEEjEES9_17ReflectionMapHashIS8_EN14dense_hash_mapIS9_jSD_19ReflectionMapEqualsIS8_ENS0_9allocatorISB_EEE9SelectKeyESG_SI_EC2EjRKSD_RKSG_RKSK_
Blb:__Z18SkinGenericMathLibILi4ELb0ELb0EEvR12SkinMeshInfo
DDh:_Mask_OnSiblingGraphicEnabledDisabled_m865494155
Z5i:_KeysCollection_System_Collections_ICollection_get_SyncRoot_m2289369147
Faa:__ZN11UnityEngine15CloudWebService16SessionContainer8AddEventEPNS0_14CloudEventInfoE
zBc:__Z45Register_UnityEngine_Camera_set_targetTexturev
bRl:_Text_set_resizeTextMaxSize_m4034967714
Wzf:__ZN5physx23PxVehicleDriveSimDataNW11setDiffDataERKNS_27PxVehicleDifferentialNWDataE
Moi:__ZL55GuidAttribute_t222072359_CustomAttributesCacheGeneratorP21CustomAttributesCache
Gsj:_GUIStyle_SetDefaultFont_m2095841351
TLj:_CustomAttributeNamedArgument_Equals_m2691468532
nOm:__ZN15dense_hashtableI10KeyWrapperIP18Il2CppGenericClassES3_N6il2cpp8metadata22Il2CppGenericClassHashEN14dense_hash_setIS3_S6_NS5_25Il2CppGenericClassCompareENSt3__29allocatorIS3_EEE8IdentityES8_SB_E14squash_deletedEv
Jli:__ZL74String_t_CustomAttributesCacheGenerator_String_Concat_m3881798623____args0P21CustomAttributesCache
Nwi:__ZL103CryptoConfig_t896479599_CustomAttributesCacheGenerator_CryptoConfig_CreateFromName_m2169102076____args1P21CustomAttributesCache
yNb:__ZN10VertexData8TransferI14SafeBinaryReadEEvRT_
PSd:__ZN5physx19NpArticulationJointD0Ev
W$:__ZN4FMOD8ChannelI8setDelayE14FMOD_DELAYTYPEjj
Vyg:_Stack__ctor_m2410583781
rqg:_Byte_System_IConvertible_ToSByte_m2306605695
wsb:__ZN15SerializeTraitsINSt3__24pairI8UnityStrN11AssetBundle9AssetInfoEEEE8TransferI18StreamedBinaryReadILb0EEEEvRS5_RT_
C4e:__Z59Register_UnityEngine_Physics_INTERNAL_CALL_Internal_Raycastv
pAm:__ZNK19ReflectionMapEqualsINSt3__24pairIPK10MethodInfoP11Il2CppClassEEEclERK10KeyWrapperIS7_ESC_
rLj:_Default_GetBetterMethod_m4255740863
WMj:_ConstructorBuilder_GetILGenerator_m1731893569
I2c:__Z9UpdateTplIL27ParticleSystemCurveEvalMode0EEvRK11MinMaxCurveS3_S3_R23ParticleSystemParticlesjjbRKN4math8float3x3E
Fje:__ZNK5physx7NpScene17getFilterCallbackEv
XMk:__Z48RuntimeInvoker_UIVertex_t1204258818_Il2CppObjectPK10MethodInfoPvPS2_
BNm:__ZNSt3__214__split_bufferIN6il2cpp2vm5Image20EmbeddedResourceDataERNS_9allocatorIS4_EEED2Ev
tka:__ZL20SortItemByInstanceIDRKN18AwakeFromLoadQueue4ItemES2_
g$e:__ZN5physx6shdfnd5ArrayIPvNS0_15InlineAllocatorILj256ENS0_19ReflectionAllocatorINS_24NpPtrTableStorageManager8PtrBlockILi16EEEEEEEE15growAndPushBackERKS2_
HRj:_TypeBuilder_create_runtime_class_m2719530260
X7f:_RNGCryptoServiceProvider_RngClose_m2921734810
AJf:__Z46getPxVehicleEngineDataMDampingRateFullThrottlePKN5physx19PxVehicleEngineDataE
Jlb:__Z26SkinVerticesGenericMathLibILi1ELb1ELb1EEvPKhiiiiPhiPKvS4_
xUf:_Array_InternalArray__IEnumerable_GetEnumerator_TisVector2_t2243707579_m829381124_gshared
Cvf:__ZN20UnityConnectSettings8TransferI24GenerateTypeTreeTransferEEvRT_
yN:__ZN34BlobWriteTransferSTLStyleArrayImplI22OffsetPtrArrayTransferIbEEclERS1_17TransferMetaFlagsR9BlobWrite
xLk:__Z37RuntimeInvoker_LabelFixup_t4090909514PK10MethodInfoPvPS2_
Rch:_ReadOnlyCollection_1_Contains_m1227826160_gshared
Byl:_GCHandle_GetHashCode_m1664905595_AdjustorThunk
bYh:_SimpleCollator_IsHalfKana_m4255579023
Jji:_InternalAsyncResult_get_Count_m1291942796
A2g:_Collection_1_System_Collections_IList_Contains_m3365884450_gshared
K1d:__ZN5physx7NpShape13setRestOffsetEf
xr:__ZN12NavMeshAgent5ResetEv
q$c:__ZN16ParticleRenderer13AwakeFromLoadE17AwakeFromLoadMode
i7j:_Enumerator__ctor_m2988407410_gshared
nah:_Collection_1_set_Item_m3440986310_gshared
j2h:_KeyGeneratedEventHandler_Invoke_m760006389
gqh:_BaseMeshEffect__ctor_m2843647600
y8h:_ASN1__ctor_m3688855288
k2d:__ZN5physxL11getTriangleERKNS_2Gu12TriangleMeshEjPNS_6PxVec3EPKS4_PKvRKNS_2Cm8Matrix34Eb
U4:__ZN13AudioListener12CleanupClassEv
rPm:__ZN15dense_hashtableINSt3__24pairIK10KeyWrapperIP12Il2CppObjectEN6il2cpp2gc9CachedCCWEEES5_NS7_5utils11PointerHashIS3_EEN14dense_hash_mapIS5_S9_SD_NS0_8equal_toIS5_EENS0_9allocatorISA_EEE9SelectKeyESG_SI_E9copy_fromERKSL_j
IWe:__ZN14SafeBinaryRead21TransferSTLStyleArrayINSt3__26vectorIjNS1_9allocatorIjEEEEEEvRT_17TransferMetaFlags
fei:_ClientSessionInfo_Dispose_m2571428025
Vpa:__Z13GetIEnlightenv
zhi:_RecordProtocol_decryptRecordFragment_m2510859489
q3d:__ZNK5physx7NpCloth16lockParticleDataEv
Ykh:_BaseRaycaster_get_sortOrderPriority_m3340181311
QTb:__ZN11TimeManager8TransferI19StreamedBinaryWriteILb0EEEEvRT_
tPh:_DelegatePInvokeWrapper_ReadDelegate_t3184826381
CFi:__ZL91HashSet_1_t2624254809_CustomAttributesCacheGenerator_HashSet_1_OnDeserialization_m627602129P21CustomAttributesCache
Mff:_compare_uni_maps
Hkf:__ZL34RegisterModuleICalls_TextRenderingv
Rtf:__ZN11UnityEngine15PlatformWrapper27GetGraphicsCapsSupportFlagsEv
Ylf:__ZNSt3__218__insertion_sort_3IRPFbPN2UI6CanvasES3_EPS3_EEvT0_S8_T_
$li:__ZL80Decimal_t724701077_CustomAttributesCacheGenerator_Decimal_op_Explicit_m714968249P21CustomAttributesCache
S4e:__Z63Register_UnityEngine_Rigidbody_INTERNAL_CALL_AddForceAtPositionv
nIg:_Decimal_Equals_m1115043331
Roe:__ZN5physx13NpRigidStatic9visualizeERNS_2Cm12RenderOutputEPNS_7NpSceneE
x6b:__ZN12NativeBufferI16Converter_StringE15SetupForWritingER9ArrayInfo
ssn:___cxa_end_catch__wrapper
bbn:__ZNSt3__210moneypunctIcLb0EED0Ev
pk:_emscripten_glVertexAttrib3fv
aPf:__Z22CleanupVehiclesManagerv
Nbe:__ZNK5physx22NpParticleBaseTemplateINS_16PxParticleSystemENS_16NpParticleSystemEE13getRestOffsetEv
lre:__ZN5physx6shdfnd8PoolBaseINS_2Sc35ParticleElementRbElementInteractionENS0_19ReflectionAllocatorIS3_EEE15disposeElementsEv
D8j:_ValueCollection_System_Collections_Generic_ICollectionU3CTValueU3E_Clear_m231380274_gshared
bmh:_Entry__ctor_m1176697586
TMh:_BinaryReader_ReadUInt32_m1363572147
HVh:_MonoType_get_Module_m3769241394
MBi:__ZL79Convert_t2607082565_CustomAttributesCacheGenerator_Convert_ToUInt32_m3391339025P21CustomAttributesCache
aNk:__Z37RuntimeInvoker_Enumerator_t1147558387PK10MethodInfoPvPS2_
Ojb:__ZN13MonoBehaviour22DoScriptRebuildWarningEv
U$j:_ButtonHandler_SetAxisNeutralState_m2106512231
kRl:_Text_get_verticalOverflow_m3134063496
mJm:__ZN6il2cpp6icalls8mscorlib6System5Array13ClearInternalEP11Il2CppArrayii
T3i:__ZL68Advanced_t2889439100_CustomAttributesCacheGenerator_revRangeBoundaryP21CustomAttributesCache
wzk:__Z155RuntimeInvoker_Boolean_t3825574718_Vector3_t2243707580_Vector3_t2243707580_RaycastHitU26_t1969197280_Single_t2076509932_Int32_t2071877448_Int32_t2071877448PK10MethodInfoPvPS2_
xMm:__ZN15dense_hashtableINSt3__24pairIK10KeyWrapperINS1_IPKcS4_EEEiEES6_24NamespaceAndNamePairHashN14dense_hash_mapIS6_iS9_26NamespaceAndNamePairEqualsNS0_9allocatorIS8_EEE9SelectKeyESB_SD_E4findERS7_
_kf:__Z38TextGenerator_Get_Custom_PropLineCountP12Il2CppObject
Txd:__ZN5physx2Gu26EPASupportMapPairLocalImplINS0_9TriangleVENS0_4BoxVEED0Ev
yhn:_llvm_cttz_i32
S9i:_PublicKey_DecodeDSA_m1169363495
bIm:__ZNK15dense_hashtableINSt3__24pairIK10KeyWrapperINS1_IP11Il2CppClassjEEES4_EES6_N6il2cpp8metadata14ArrayClassHashEN14dense_hash_mapIS6_S4_SB_NSA_17ArrayClassCompareENS0_9allocatorIS8_EEE9SelectKeyESD_SF_E12test_deletedEj
yRc:__ZN11IMGUIModule25GetGUIStyleScriptingClassEv
Kif:_tt_get_interface
loj:_AsymmetricKeyExchangeFormatter__ctor_m3362140205
P4e:__Z46Register_UnityEngine_Rigidbody_set_isKinematicv
Mof:__ZZN2UI14CanvasRenderer15InitializeClassEvEN32FunctorImpl_801kTransformChanged4CallEPviR11MessageData
Oze:__ZN5physx14PxsAABBManager16processBPResultsERKNS_20PxsComputeAABBParamsE
KZc:__ZN9JSONWrite8TransferI13dynamic_arrayIiLj4EEEEvRT_PKc17TransferMetaFlags
Vxe:__ZN5physx23PxsBroadPhaseContextSapD2Ev
Cv:__ZN14NavMeshManager9PurgeDataEPK11NavMeshData
_Ed:__ZNK5physx15PxDistanceJoint19getConcreteTypeNameEv
ndn:__ZNSt3__2L13utf8_to_utf16EPKhS1_RS1_PtS3_RS3_mNS_12codecvt_modeE
Bja:__Z18ConvertUTF16toUTF8PPKtS0_PPhS2_15ConversionFlags
gVm:__ZN6il2cpp2os20PathErrnoToErrorCodeERKNSt3__212basic_stringIcNS1_11char_traitsIcEENS1_9allocatorIcEEEEi
XZk:_TypeLoadException__ctor_m1903359728
Kgm:__ZL16my_g_bit_nth_msfj
_6j:_Transform_1_BeginInvoke_m3014766640_gshared
kPm:__ZN14dense_hash_mapI10KeyWrapperIP12Il2CppObjectEN6il2cpp2gc9CachedCCWENS4_5utils11PointerHashIS1_EENSt3__28equal_toIS3_EENSA_9allocatorINSA_4pairIKS3_S6_EEEEE15set_deleted_keyERSF_
Tjm:__ZL25UnresolvedVirtualCall_147P12Il2CppObjectiiPK10MethodInfo
ilb:__Z20DeformSkinnedMeshJobP12SkinMeshInfo
P5f:_KeySizes__ctor_m3526899007
OIh:_Int16_System_IConvertible_ToInt32_m191782913_AdjustorThunk
uV:__ZN9Animation12CleanupClassEv
ZOi:__ZL69ArgumentCache_t4810721_CustomAttributesCacheGenerator_m_FloatArgumentP21CustomAttributesCache
A3g:_Collection_1_CopyTo_m1578267616_gshared
Ijg:_EncoderReplacementFallback__ctor_m2208438262
Wpk:__Z77RuntimeInvoker_Void_t1841601450_StringBuilderU26_t731233658_Int32_t2071877448PK10MethodInfoPvPS2_
cnm:__ZN6il2cpp2vm5Class15GetInstanceSizeEPK11Il2CppClass
Lq:FUNCTION_TABLE_iiiifiifiii
V9j:_Dictionary_2__ctor_m871840915_gshared
hb:invoke_iiiifiiii
cUk:_AeroplaneController_Start_m1175246430
Zbk:_Dictionary_2_CopyTo_m1495142643_gshared
h$c:__ZN9rapidjson8internal6u64toaEyPc
Kgj:_SoapFieldAttribute_IsInteropXmlElement_m4243409842
p8l:_EventFunction_1_BeginInvoke_m3064802067_gshared
uCi:__ZL67IndexOutOfRangeException_t3527622107_CustomAttributesCacheGeneratorP21CustomAttributesCache
Q5d:__ZNK5physx2Sc9ClothCore16getRestPositionsEPNS_6PxVec4E
Cue:__ZN5physx20PxcSweepConvexConvexERKNS_11PxsCCDShapeES2_PKNS_12PxsRigidBodyES5_RKNS_11PxTransformES8_S8_S8_fRNS_6PxVec3ESA_RNS_10PxcNpCacheERNS_18PxcNpThreadContextEf
xNh:_Directory_GetFiles_m4036267478
ZKg:_Enum_System_IConvertible_ToType_m2669300536
X8d:__ZN5physx15PxsParticleDataD0Ev
YUa:__ZL19BlitFramebufferImplRN4gles23BlitFramebufferDrawQuadER9GfxDevice9TextureIDRK8Vector4f
l2b:__Z18Transfer_BlittableI17RemapPPtrTransferLb0EhEvRK29SerializationCommandArgumentsR31RuntimeSerializationCommandInfo
vPe:__ZN5physx6shdfnd5ArrayIPvNS0_19ReflectionAllocatorIN17PxcPoolMallocData9PoolData8EEEE15growAndPushBackERKS2_
phk:__Z44RuntimeInvoker_Byte_t3683104436_Il2CppObjectPK10MethodInfoPvPS2_
gdh:_ReadOnlyCollection_1_System_Collections_IList_Add_m2333231354_gshared
XAi:__ZL78Convert_t2607082565_CustomAttributesCacheGenerator_Convert_ToSByte_m2470292806P21CustomAttributesCache
r8e:_UNITY_FT_List_Add
xRj:_OpCodes__cctor_m939885911
kmc:__ZN14Texture2DArray11InitTextureEiii13TextureFormatb
gai:_PKCS1_RSASP1_m1748738009
Kkj:_ObjectReader_ReadPrimitiveTypeValue_m3808038676
wTe:__ZN5physx15PxGeometryQuery14getWorldBoundsERKNS_10PxGeometryERKNS_11PxTransformEf
dii:_RSASslSignatureDeformatter_SetHashAlgorithm_m4048969080
d7d:__ZN5physx2Sc9ClothCore18setSolverFrequencyEf
JKl:_UriParser_InitializeAndValidate_m251943319
Eag:_SymmetricAlgorithm_set_Padding_m3081984460
Acl:_InternalEnumerator_1_MoveNext_m2906956792_AdjustorThunk
Hvc:__Z5SlerpRK8Vector3fS1_f
xTb:__ZN9InputAxis8TransferI18StreamedBinaryReadILb0EEEEvRT_
Kzj:_Keyframe__ctor_m2042404667
RNe:__ZN5physx2Gu11HeightField8requiresERNS_23PxProcessPxBaseCallbackE
Fwi:__ZL91X509Certificate_t283079845_CustomAttributesCacheGenerator_X509Certificate_Reset_m1676863543P21CustomAttributesCache
etd:__ZN5physx2Gu16buildPartialHullERKNS0_13PolygonalDataEPNS0_12SupportLocalERNS0_14SeparatingAxesERKNS_6shdfnd3aos5Vec3VESC_
atg:_ArrayList_RemoveAt_m2578928333
L_b:__Z18Transfer_BlittableI14SafeBinaryReadLb0EaEvRK29SerializationCommandArgumentsR31RuntimeSerializationCommandInfo
h2c:__Z9UpdateTplIL27ParticleSystemCurveEvalMode0EEvRK11MinMaxCurveS3_S3_R23ParticleSystemParticlesjjbRKN4math8float3x3ERKNS6_7_float4E
mch:_ReadOnlyCollection_1_System_Collections_IList_set_Item_m1233322304_gshared
KSl:_GeneralNames_get_DNSNames_m2721668874
z2c:__ZN11NoiseModule17CalculateNoiseJobILi3ELb1ELb1EEEvP12NoiseJobData
PKg:_Enum_System_IConvertible_ToByte_m38374586
Wbh:_ReadOnlyCollection_1_System_Collections_Generic_IListU3CTU3E_RemoveAt_m1592158292_gshared
Amn:_emscripten_glFrustum__wrapper
bSd:__ZNK5physx2Sc16ArticulationCore17releaseDriveCacheERNS_9PxcFsDataE
Shi:_ReceiveRecordAsyncResult_get_CompletedWithError_m2670396551
QBf:__ZN5physx2Sn21RepXVisitorReaderBaseINS_16PxVehicleNoDriveEE15complexPropertyINS_22PxRepXPropertyAccessorILj640ENS_15PxVehicleWheelsENS_22PxVehicleWheelsDynDataES7_EEKNS_35PxVehicleWheelsDynDataGeneratedInfoEEEvPjRKT_RT0_
_Hg:_Decimal_Equals_m1798565377
JU:__ZN24GenerateTypeTreeTransfer8TransferIN7mecanim8skeleton8SkeletonEEEvRT_PKc17TransferMetaFlags
PFc:__Z38Register_UnityEngine_GL_MultiTexCoord2v
Yyb:__Z30scripting_method_has_attribute21ScriptingMethodIl2CppP11Il2CppClass
nGd:__ZN5physx11NpAggregate7releaseEv
OTi:__ZL66InputField_t1631627530_CustomAttributesCacheGenerator_m_CaretColorP21CustomAttributesCache
hOj:_TypeBuilder_check_created_m2929267877
pG:__ZN19StreamedBinaryWriteILb0EE8TransferIKN4math7_float3EEEvRT_PKc17TransferMetaFlags
vWa:__ZN15TextureTFMethod20IsBoneCountSupportedEi
Mvj:_GUISkin_set_horizontalScrollbarThumb_m2119687595
ghj:_ObjRef__ctor_m1486312270
h6f:__ZN18VirtActionInvoker06InvokeEjPv
pCg:_Convert_ToInt16_m416789348
$Eg:_DateTime_System_IConvertible_ToSByte_m2575078084_AdjustorThunk
z2b:__Z22TransferField_NonArrayI17RemapPPtrTransfer27Converter_SimpleNativeClassI8GUIStyleEEvRK23StaticTransferFieldInfoR31RuntimeSerializationCommandInfoRT0_
pkl:_AnimatorStateInfo_IsTag_m1529621725_AdjustorThunk
E1d:__ZN5physx7NpShape12setMaterialsEPKPNS_10PxMaterialEt
C2g:_Collection_1_System_Collections_IList_IndexOf_m4075083918_gshared
Ikc:__ZNK17AnimationCurveTplIfE20EvaluateWithoutCacheEfRf
fUm:__ZN6il2cpp2os6Thread12QueueUserAPCEPFvPvES2_
fVd:__ZNK5physx18NpArticulationLink13isSubordinateEv
yTf:_Array_InternalArray__IEnumerable_GetEnumerator_TisDictionaryEntry_t3048875398_m3498834924_gshared
syj:_GUIStyleState__ctor_m3611888666
l5g:_Collection_1_IsValidItem_m1304951912_gshared
h$j:_ThirdPersonCharacter_PreventStandingInLowHeadroom_m3245806774
msc:__ZN4Mesh10SetNormalsEPK8Vector3fj
dVj:_PropertyInfo__ctor_m1808219471
Tpd:__Z66Register_UnityEngine_Physics2D_INTERNAL_CALL_GetRayIntersectionAllv
iBg:_Convert_ToDateTime_m4161927553
juk:__Z76RuntimeInvoker_Void_t1841601450_RegexOptionsU26_t3063574985_SByte_t454417549PK10MethodInfoPvPS2_
nOj:_TypeBuilder_GetConstructors_m774120094
iD:__ZN17AnimationCurveTplIfE8TransferI14SafeBinaryReadEEvRT_
UGc:__Z31Light_CUSTOM_INTERNAL_get_colorP12Il2CppObjectP10ColorRGBAf
yed:__ZN22ParticleSystemRenderer15InitializeClassEv
ZIl:_RegularExpression_set_GroupCount_m2991393456
LCd:__ZN5physx2Gu9RadixSortD2Ev
yMg:_Calendar_get_EraNames_m452820602
AJb:__ZNSt3__26vectorIN15QualitySettings14QualitySettingENS_9allocatorIS2_EEE6assignIPS2_EENS_9enable_ifIXaasr21__is_forward_iteratorIT_EE5valuesr16is_constructibleIS2_NS_15iterator_traitsIS9_E9referenceEEE5valueEvE4typeES9_S9_
QLf:__Z36getPxVehicleDriveNW_ConcreteTypeNamePKN5physx16PxVehicleDriveNWE
i$i:__ZL59PlanarReflection_t1444615649_CustomAttributesCacheGeneratorP21CustomAttributesCache
kre:__ZN5physx6shdfnd8PoolBaseINS_2Sc10NPhaseCore16ClothListElementENS0_19ReflectionAllocatorIS4_EEE15disposeElementsEv
IAd:__Z15raycast_capsuleRKN5physx10PxGeometryERKNS_11PxTransformERKNS_6PxVec3ES8_fNS_7PxFlagsINS_9PxHitFlag4EnumEtEEjPNS_12PxRaycastHitEbPFbRSD_PvESG_
zag:_SymmetricAlgorithm_set_Key_m2973350820
lXa:__ZN14DrawBufferGLESI12VertexBuffer27VertexBufferUsageMapperGLESE8EndWriteEj
MEg:_DateTime_System_IConvertible_ToByte_m2670443498_AdjustorThunk
O7d:__ZNK5physx15NpActorTemplateINS_15PxParticleFluidEE14getOwnerClientEv
Dwm:_il2cpp_class_get_image
M9l:_JetParticleEffect_Update_m4193053752
Dna:__Z16AsyncReadRequestP16AsyncReadCommand
NEi:__ZL81BigInteger_t925946153_CustomAttributesCacheGenerator_BigInteger__ctor_m4013661868P21CustomAttributesCache
EAk:__Z101RuntimeInvoker_Void_t1841601450_Il2CppObject_Single_t2076509932_Single_t2076509932_Single_t2076509932PK10MethodInfoPvPS2_
FIe:__ZNK5physx34PxsSolverConstraintPostProcessTask7getNameEv
Iu:__ZN9dtNavMesh32setOffMeshConnectionCostModifierEyf
V7h:_BigInteger_op_Addition_m1734797151
nDk:__Z110RuntimeInvoker_Boolean_t3825574718_Vector2_t2243707579_Vector2_t2243707579_Single_t2076509932_SByte_t454417549PK10MethodInfoPvPS2_
oud:__ZN5physx2Gu23distancePointBoxSquaredERKNS_6PxVec3ES3_S3_RKNS_7PxMat33EPS1_
r$e:__ZN5physx9NpPhysics20MeshDeletionListener28onGuMeshFactoryBufferReleaseEPKNS_6PxBaseEtb
h4g:_Collection_1_System_Collections_IList_set_Item_m3488446830_gshared
KOj:_EnumBuilder_CreateNotSupportedException_m62763134
Prf:__Z24GetUnityAnalyticsManagerv
g7f:_RijndaelManagedTransform_TransformBlock_m2558865851
F4g:_Collection_1_System_Collections_Generic_ICollectionU3CTU3E_get_IsReadOnly_m4096071066_gshared
nTb:__ZN9InputAxis8TransferI14SafeBinaryReadEEvRT_
Jka:__ZNK21ExecutionOrderManager30GetCustomAwakeFromLoadQueueForEPKN5Unity4TypeE
_ie:__ZNK5physx7NpScene9getActorsENS_7PxFlagsINS_15PxActorTypeFlag4EnumEtEEPPNS_7PxActorEjj
Pwf:__Z27RegisterModule_UnityConnectv
aRg:_Enumerator_Dispose_m3717265706_AdjustorThunk
Mae:__ZN5physx15PxParticleFluidD0Ev
Rqe:__ZN5physx11NodeManagerD0Ev
u7j:_Enumerator__ctor_m908409898_gshared
v1i:__ZL82AeroplaneAudio_t4039863873_CustomAttributesCacheGenerator_engineFwdSpeedMultiplierP21CustomAttributesCache
rml:_Bounds_get_size_m1728027642_AdjustorThunk
Xhj:_RealProxy__ctor_m3041043303
iFh:_NumberFormatter_Init_m2654758994
t5f:_HMACSHA1__ctor_m1168389339
RGd:__ZNK5physx2Sc8BodyCore6getSimEv
Ven:__ZNSt3__214__split_bufferIPNS_6locale5facetERNS_15__sso_allocatorIS3_Lj28EEEEC2EjjS6_
f0e:__ZNK5physx2Gu15HeightFieldUtil18getVertexFaceIndexEjjj
G1l:_Transform_Rotate_m2449860094
yAf:__ZN5physx16PxVehicleDriveNW12createObjectERPhRNS_24PxDeserializationContextE
tPm:__ZN15dense_hashtableINSt3__24pairIK10KeyWrapperIP12Il2CppObjectEN6il2cpp2gc9CachedCCWEEES5_NS7_5utils11PointerHashIS3_EEN14dense_hash_mapIS5_S9_SD_NS0_8equal_toIS5_EENS0_9allocatorISA_EEE9SelectKeyESG_SI_E8min_sizeEjj
q1:__ZN10ObjectPoolIN4FMOD12ChannelGroupENS0_13ChannelGroupIEE7SetSizeEi
eu:__Z6dtFreePv
__h:_PrimalityTest_BeginInvoke_m966469054
Nfh:_ReadOnlyCollection_1_System_Collections_Generic_ICollectionU3CTU3E_Clear_m1785953911_gshared
zjd:__ZNSt3__26__sortIR26ColliderIdentityComparitorPP10Collider2DEEvT0_S6_T_
_0k:_UInt64_System_IConvertible_ToInt16_m2797150165_AdjustorThunk
kdk:_DefaultComparer__ctor_m2036092614_gshared
X3f:_Array_InternalArray__get_Item_TisLabelData_t3712112744_m863115768_gshared
sKh:_Int32_Parse_m753946802
GF:__ZN18StreamedBinaryReadILb0EE21TransferSTLStyleArrayI22OffsetPtrArrayTransferIN7mecanim9animation10ValueDeltaEEEEvRT_17TransferMetaFlags
kBj:_Material_DisableKeyword_m1204728089
Bca:__Z22ValidateTlsfAllocationPvjiS_
Dva:__ZN18StreamedBinaryReadILb1EE21TransferSTLStyleArrayINSt3__212basic_stringIcNS2_11char_traitsIcEE13stl_allocatorIcL18MemLabelIdentifier1ELi16EEEEEEvRT_17TransferMetaFlags
i0j:__ZN16VirtFuncInvoker0I19Vector3_t2243707580E6InvokeEjPv
K0d:__ZN5physx2Cm12RefCountable14onRefCountZeroEv
sQ:__ZN15SerializeTraitsINSt3__24pairI8StateKey10StateRangeEEE8TransferI14SafeBinaryReadEEvRS4_RT_
aSj:_UnmanagedMarshal_ToMarshalAsAttribute_m3695569337
_3d:__ZNK5physx7NpCloth25getMotionConstraintConfigEv
V0b:__Z14resize_trimmedINSt3__26vectorI17AnimationCurveTplIfE13stl_allocatorIS3_L18MemLabelIdentifier1ELi16EEEEEvRT_j
Gvb:__Z12GUIDToStringRK9UnityGUID
gCh:_LayoutElement_get_minHeight_m2070403283
VQm:__ZN6il2cpp6icalls8mscorlib6System4Enum12get_hashcodeEP12Il2CppObject
zZ:__ZN11SoundHandleC2ERKS_
EDh:_Mask_OnEnable_m501850981
Lwf:__ZN22UnityAnalyticsSettingsC2Ev
iol:_Canvas_get_targetDisplay_m316548313
UP:__ZN18AnimatorController23VirtualRedirectTransferER18StreamedBinaryReadILb0EE
kie:__ZThn8_N5physx2Sc24ElementInteractionMarker7destroyEv
ohc:__ZN12ScriptMapper23VirtualRedirectTransferER18StreamedBinaryReadILb1EE
NE:__ZN11Quaternionf8TransferI18StreamedBinaryReadILb1EEEEvRT_
cob:__Z29StdTemplateConversionFunctionItxEbPvR14SafeBinaryRead
TAl:_FormatterData__ctor_m3974986124
Zqi:__ZL64FileNotFoundException_t4200667904_CustomAttributesCacheGeneratorP21CustomAttributesCache
vwl:_CustomAnimationPlayable_SetInputs_m1393448423
e7f:_RijndaelManagedTransform_get_CanReuseTransform_m3735256596
yCd:__ZN5physx3Cct26CharacterControllerManager24setOverlapRecoveryModuleEb
fwg:_Comparer__cctor_m1327316974
sNh:_MonoIO_ExistsFile_m1421941572
jGg:_DateTime_op_GreaterThanOrEqual_m3818963848
pTh:_Math_IEEERemainder_m340193149
IKa:__ZNSt3__26__treeINS_12__value_typeI18VertexChannelsInfoP17VertexDeclarationEENS_19__map_value_compareIS2_S5_NS_4lessIS2_EELb1EEE13stl_allocatorIS5_L18MemLabelIdentifier14ELi16EEE12__find_equalIS2_EERPNS_16__tree_node_baseIPvEENS_21__tree_const_iteratorIS5_PNS_11__tree_nodeIS5_SG_EEiEESJ_RKT_
gX:__ZNSt3__212basic_stringIcNS_11char_traitsIcEE13stl_allocatorIcL18MemLabelIdentifier66ELi16EEE6resizeEjc
nph:_TouchInputModule_UseFakeInput_m2112019004
rlh:_EventSystem_get_baseEventDataCache_m4294741599
ghn:___cxa_guard_release
sCb:__ZN14RenderSettings18TransferDeprecatedI14SafeBinaryReadEEvRT_
k2c:__Z9UpdateTplIL27ParticleSystemCurveEvalMode3EEvRK11MinMaxCurveS3_S3_R23ParticleSystemParticlesjjbRKN4math8float3x3ERKNS6_7_float4E
tQk:_ParticleSceneControls__cctor_m3644959983
M5h:__ZN6il2cpp2vm13ComObjectBaseI34__Il2CppComDelegate_t3311706788CCW18Il2CppIInspectableNS0_7details6ComNilES5_S5_S5_S5_S5_S5_ED2Ev
Oxm:__ZN16VirtFuncInvoker2IP12Il2CppObjectS1_P24ObjectU5BU5D_t3614634134E6InvokeEjPvS1_S3_
kFk:__Z95RuntimeInvoker_Void_t1841601450_Single_t2076509932_Single_t2076509932_Il2CppObject_Il2CppObjectPK10MethodInfoPvPS2_
ffa:__ZN12TLSAllocatorI14StackAllocatorE8AllocateEji
Mla:__ZN16ScriptingManager18GetMonoScriptCacheEi
KLf:__ZN5physx2Sn21RepXVisitorReaderBaseINS_16PxVehicleDriveNWEE15complexPropertyINS_22PxRepXPropertyAccessorILj640ENS_15PxVehicleWheelsENS_22PxVehicleWheelsDynDataES7_EEKNS_35PxVehicleWheelsDynDataGeneratedInfoEEEvPjRKT_RT0_
Ytj:_GUIStyle_get_stretchHeight_m3396762700
P3m:_wcslen
K$a:__ZN20ArchiveStorageHeader13GetDataOffsetERKNS_6HeaderE
hqm:__ZN13dynamic_arrayIPK10Il2CppTypeLj4EEC2ERKS3_
kZi:__ZL112ThirdPersonCharacter_t3368419691_CustomAttributesCacheGenerator_ThirdPersonCharacter_BlendLookWeight_m2642614356P21CustomAttributesCache
MAj:_Material_INTERNAL_CALL_SetColor_m1364511001
hYi:__ZL64FreeLookCam_t3928264390_CustomAttributesCacheGenerator_moveSpeedP21CustomAttributesCache
fGd:__ZNK5physx3Ext5JointINS_15PxDistanceJointENS_30PxDistanceJointGeneratedValuesEE11getBodyPoseEPKNS_12PxRigidActorE
bxh:_GridLayoutGroup_CalculateLayoutInputHorizontal_m2355123124
zFi:__ZL84Locale_t4255929017_CustomAttributesCacheGenerator_Locale_GetText_m512920887____args1P21CustomAttributesCache
g0b:__Z18Transfer_BlittableI14SafeBinaryReadLb1EyEvRK29SerializationCommandArgumentsR31RuntimeSerializationCommandInfo
cEc:__Z39Gizmos_CUSTOM_INTERNAL_CALL_DrawFrustumRK8Vector3fffff
z1c:__ZNSt3__27__sort5IR31SortCollisionEventsByGameObjectP22ParticleCollisionEventEEjT0_S5_S5_S5_S5_T_
uVc:__ZN8JSONRead8TransferIfEEvRT_PKc17TransferMetaFlagsb
yKi:__ZL105Physics_t634932869_CustomAttributesCacheGenerator_Physics_Raycast_m3475924638____queryTriggerInteraction4P21CustomAttributesCache
Pam:_CarController_get_MaxTorque_m4221753449
jS:__ZN25RuntimeAnimatorController8TransferI17RemapPPtrTransferEEvRT_
FC:__ZN14SafeBinaryRead21TransferSTLStyleArrayI19StaticArrayTransferIiLi155EEEEvRT_17TransferMetaFlags
_ke:__ZNK5physx2Sc10NPhaseCore39getDefaultContactReportStreamBufferSizeEv
Fgh:_ReadOnlyCollection_1_System_Collections_ICollection_get_IsSynchronized_m4063596282_gshared
Hfn:__ZNSt3__212basic_stringIcNS_11char_traitsIcEENS_9allocatorIcEEE6appendEPKcj
Rri:__ZL54TypeBuilder_t3308873219_CustomAttributesCacheGeneratorP21CustomAttributesCache
L4d:__ZN5physx7NpCloth25setSelfCollisionStiffnessEf
iue:__ZZN5physx28PxcSweepEstimateAnyShapeMeshERKNS_11PxsCCDShapeES2_PKNS_12PxsRigidBodyES5_RKNS_11PxTransformES8_fEN2CBD0Ev
$5g:_Collection_1_CheckWritable_m691269733_gshared
mPj:_GenericTypeParameterBuilder_GetAttributeFlagsImpl_m3338182267
h7:__ZN13Simd4iFactoryIN6detail9FourTupleEEC2Eiiii
RRh:_SynchronizedReader__ctor_m1408327515
dYj:_LightShafts_IsVisible_m2194471882
QVl:_X509Store_LoadCrl_m1146720614
Bfa:__ZL41FileEntryInfoListToFolderContentsAbsoluteRK13dynamic_arrayI13FileEntryInfoLj8EERNSt3__23setINS4_12basic_stringIcNS4_11char_traitsIcEENS4_9allocatorIcEEEENS4_4lessISB_EENS9_ISB_EEEE
mMk:__Z54RuntimeInvoker_KeyValuePair_2_t3716250094_Il2CppObjectPK10MethodInfoPvPS2_
Fhh:_ReadOnlyCollection_1_System_Collections_IList_Clear_m1858417639_gshared
qkd:__ZN10Collider2D14FinalizeCreateERK10Matrix4x4fR12b2FixtureDefP6b2BodyPK13dynamic_arrayIP7b2ShapeLj4EE
c3a:__ZZ23InitPlayerLoopCallbacksvEN38PostLateUpdateShaderHandleErrorsstruct7ForwardEv
JGb:__ZN15SerializeTraitsI33EnlightenTerrainChunksInformationE8TransferI14SafeBinaryReadEEvRS0_RT_
fJ:__ZN7mecanim9animation16MotionOutputCopyEPNS0_12MotionOutputEPKS1_bbRKNS_6bitsetILj66EEE
A_d:__ZN5physx2Sc14ConstraintCoreD2Ev
mnd:__ZN6b2Body12SetTransformERK6b2Vec2f
Xmc:__ZNK32RendererMaterialAnimationBinding9BindValueER6ObjectRKN11UnityEngine9Animation14GenericBindingERNS3_10BoundCurveE
nAf:__ZN5physx15PxVehicleWheels17getBinaryMetaDataERNS_14PxOutputStreamE
Cmk:__Z112RuntimeInvoker_Int32_t2071877448_Il2CppObject_Int32_t2071877448_Int32_t2071877448_Il2CppObject_Int32_t2071877448PK10MethodInfoPvPS2_
yXd:__ZN5physx15NpActorTemplateINS_18PxArticulationLinkEE13setActorFlagsENS_7PxFlagsINS_11PxActorFlag4EnumEtEE
Slb:__Z13GetIAnimationv
oHa:__ZL18stbir__support_onef
dPe:__ZN5physx6shdfnd8internal8HashBaseIPNS_11PxAggregateES4_NS0_4HashIS4_EENS1_11HashSetBaseIS4_S6_NS0_9AllocatorELb0EE6GetKeyES8_Lb0EE15reserveInternalEj
EUg:_List_1_System_Collections_IList_Remove_m2040310137_gshared
LEl:_Match_get_Regex_m3526002767
jri:__ZL49Stream_t3255436806_CustomAttributesCacheGeneratorP21CustomAttributesCache
QXc:__Z26Transfer_UnityEngineObjectI9JSONWriteLb0EEvRK29SerializationCommandArgumentsR31RuntimeSerializationCommandInfo
_cd:__ZN14VelocityModuleD2Ev
Ojg:_EncoderReplacementFallback_CreateFallbackBuffer_m3579126537
f0k:_UInt32_System_IConvertible_ToInt16_m2251335934_AdjustorThunk
Vmf:__ZNSt3__27__sort5IRNS_6__lessIN2UI14DepthSortEntryES3_EEPS3_EEjT0_S7_S7_S7_S7_T_
jKg:_Double_System_IConvertible_ToInt64_m3798425616_AdjustorThunk
dhk:__Z31RuntimeInvoker_Void_t1841601450PK10MethodInfoPvPS2_
Y7e:_UNITY_FT_DivFix
HAm:__ZN24dense_hashtable_iteratorINSt3__24pairIK10KeyWrapperINS1_IPK10MethodInfoP11Il2CppClassEEEjEES9_17ReflectionMapHashIS8_EN14dense_hash_mapIS9_jSD_19ReflectionMapEqualsIS8_ENS0_9allocatorISB_EEE9SelectKeyESG_SI_E30advance_past_empty_and_deletedEv
lBm:__ZNSt3__218uninitialized_copyIPNS_4pairIK10KeyWrapperINS1_IPK11Il2CppImageP11Il2CppClassEEEjEESC_EET0_T_SE_SD_
o$c:__ZN16ParticleRendererD2Ev
Pa:invoke_vdd
Yo:FUNCTION_TABLE_fiii
_al:_InternalEnumerator_1_Dispose_m3838127340_AdjustorThunk
RBk:__Z36RuntimeInvoker_FontStyle_t2764949590PK10MethodInfoPvPS2_
qKg:_Double_System_IConvertible_ToUInt32_m624993430
ap:FUNCTION_TABLE_fiif
QQi:__ZL89PointerEventData_t1599784723_CustomAttributesCacheGenerator_U3CdraggingU3Ek__BackingFieldP21CustomAttributesCache
ulc:__ZNK30SpriteRendererAnimationBinding12GetPPtrValueERKN11UnityEngine9Animation10BoundCurveE
R9m:__ZNKSt3__220__time_get_c_storageIcE7__am_pmEv
AXk:_Scheduler_Add_m376749205
Qik:__Z98RuntimeInvoker_Void_t1841601450_Int32_t2071877448_Il2CppObject_Int32_t2071877448_Int32_t2071877448PK10MethodInfoPvPS2_
P0m:__ZN6il2cpp6icalls8mscorlib4Mono8Security12Cryptography18KeyPairPersistence19_IsMachineProtectedEP12Il2CppString
i8m:__ZNSt3__215__num_get_floatIeEET_PKcS3_Rj
url:_ContactPoint2D_t3659330976_marshal_pinvoke_cleanup
_lc:__Z14RandomRotationP9Texture2DPhiiii
hXh:_OutOfMemoryException__ctor_m1932883273
C9k:_InternalEnumerator_1_MoveNext_m1594563423_AdjustorThunk
ZZe:__ZThn132_N5physx7profile8ZoneImplINS_28PxProfileNameProviderForwardEED1Ev
D2b:__Z65EmitSerializationCommandsForLinearCollectionOfManagedObjectsFieldI17RemapPPtrTransferEvRK23TransferArrayField_InfoR20SerializationCommandR32SerializationCommandQueueBuilderRP20AllowNameConversions
RGk:__Z76RuntimeInvoker_Boolean_t3825574718_DirectionU26_t743901654_Int32_t2071877448PK10MethodInfoPvPS2_
Wkj:__ZN16VirtFuncInvoker0ItE6InvokeEjPv
lnk:__Z35RuntimeInvoker_TimeSpan_t3430258949PK10MethodInfoPvPS2_
Mpm:__ZN15dense_hashtableI10KeyWrapperIPK19Il2CppGenericMethodES4_N6il2cpp8metadata23Il2CppGenericMethodHashEN14dense_hash_setIS4_S7_NS6_26Il2CppGenericMethodCompareENSt3__29allocatorIS4_EEE8IdentityES9_SC_E8min_sizeEjj
tZg:_List_1_System_Collections_IList_Insert_m2036969360_gshared
IAh:_InputField_GetUnclampedCharacterLineFromPosition_m1912794077
LZl:_SpaceAttribute__ctor_m1444406696
xje:__ZN5physx7NpScene27setCCDContactModifyCallbackEPNS_26PxCCDContactModifyCallbackE
SOh:_ReadDelegate__ctor_m885671467
gQe:__ZNK5physx17ConvexHullBuilder17ComputeGeomCenterERNS_6PxVec3E
FYj:_PlanarReflection_Start_m2189702546
IGg:_DateTimeOffset_ToString_m2121173678_AdjustorThunk
iFi:__ZL50X509Crl_t1699034837_CustomAttributesCacheGeneratorP21CustomAttributesCache
vye:__ZN3MBPD0Ev
sba:__ZNK13EmscriptenWWW14GetPartialDataEv
Nsn:_glDeleteProgram__wrapper
xBc:__Z50Register_UnityEngine_Camera_INTERNAL_get_pixelRectv
HDa:__ZN19RuntimeSceneManager14LoadSceneAsyncERK8UnityStrS2_S2_RK9UnityGUIDiNS_11LoadingModeEbRP10UnityScene
PGk:__Z53RuntimeInvoker_UIVertex_t1204258818_Int32_t2071877448PK10MethodInfoPvPS2_
Fz:__ZN9Animation17MainThreadCleanupEv
ZBa:__ZN6prcoreL18BlitFloatToIntegerERK14ImageReferenceRS0_
MKk:__Z57RuntimeInvoker_KeyValuePair_2_t38854645_Int32_t2071877448PK10MethodInfoPvPS2_
D4h:_X509CertificateCollection_get_Item_m410866272
duj:_Rect_get_yMax_m2915146103
Eme:__ZNK5physx10PxsContext18getBounceThresholdEv
Fcn:__ZNSt3__217__widen_from_utf8ILj32EED0Ev
QOk:_GlowEffect_OnRenderImage_m1127150626
End:__ZN7b2Timer5ResetEv
V9:__ZN11UnityEngine15CloudWebService14RestDownloader17OnCompleteContentEv
yxh:_LayoutGroup_SetChildAlongAxis_m1615929339
Ghe:__ZN5physx6shdfnd5ArrayIPvNS0_15InlineAllocatorILj256ENS0_19ReflectionAllocatorINS_2Gu31SpherePersistentContactManifoldEEEEEE15growAndPushBackERKS2_
gb:invoke_viffi
ZT:__ZN6Avatar8TransferI14SafeBinaryReadEEvRT_
_Um:__ZNK15dense_hashtableINSt3__24pairIK10KeyWrapperIPK19Il2CppGenericMethodEP10MethodInfoEES6_N6il2cpp8metadata23Il2CppGenericMethodHashEN14dense_hash_mapIS6_S9_SD_NSC_26Il2CppGenericMethodCompareENS0_9allocatorISA_EEE9SelectKeyESF_SH_E13find_positionERS7_
r0g:_List_1_System_Collections_ICollection_get_SyncRoot_m1429670979_gshared
jb:invoke_vifff
E4k:_InternalEnumerator_1__ctor_m2111763266_gshared
kqg:_Byte_System_IConvertible_ToInt16_m1575115635_AdjustorThunk
L8d:__ZN5physx15NpParticleFluid15exportExtraDataERNS_22PxSerializationContextE
srn:_glGetVertexAttribiv__wrapper
sWd:__ZN5physx6shdfnd15atomicDecrementEPVi
Tf:_emscripten_request_fullscreen
HKe:__ZN5physx2Cm12DelegateTaskINS_2Sc5SceneEXadL_ZNS3_11postCCDPassEPNS_10PxBaseTaskEEEED0Ev
xIj:_Rect_get_xMin_m1161102488
mea:__ZN20LocalFileSystemWebGL6DeleteER13FileEntryDatab
MHg:_Decimal_System_IConvertible_ToUInt16_m1621568250
Vf:_emscripten_glDisableVertexAttribArray
DJi:__ZL79Object_t1021602117_CustomAttributesCacheGenerator_Object_Instantiate_m938141395P21CustomAttributesCache
To:FUNCTION_TABLE_iiiifiiii
vYk:_TimeSpan_get_TotalMinutes_m1645177229_AdjustorThunk
S0e:__ZN8Collider18SelfPointerToWordsERjS0_
Pc:invoke_fifffi
Aeg:__ZN16VirtFuncInvoker0IP20Assembly_t4268412390E6InvokeEjPv
bRa:__ZN4gles23ClearCurrentFramebufferEP7ApiGLESbbbRK10ColorRGBAffi
dK:__ZN7mecanim12statemachine20CreateStateWorkspaceEjjjRNS_6memory9AllocatorE
Tpf:__Z64Register_UnityEngine_CanvasRenderer_SplitIndiciesStreamsInternalv
Iwk:__Z34RuntimeInvoker_Vector3_t2243707580PK10MethodInfoPvPS2_
OPe:__ZN5physx2Gu11HeightField13releaseMemoryEb
eg:_emscripten_glDeleteObjectARB
$g:_IMG_Load
JSh:_UnexceptionalStreamReader_Read_m3839775235
oDa:__ZN6prcoreL27StretchGenericFloatBilinearI18TexFormatARGBFloatEEvPKNS_9InnerInfoE
h_a:__ZN10FileSystem25MountDataFolderFileSystemERKNSt3__212basic_stringIcNS0_11char_traitsIcEENS0_9allocatorIcEEEES8_
vJc:__Z47Playable_CUSTOM_INTERNAL_CALL_GetOutputInternalR9HPlayableiS0_
zpi:__ZL49List_1_t1169184319_CustomAttributesCacheGeneratorP21CustomAttributesCache
kij:_RealProxy_SetTargetDomain_m3940877656
bZl:_RequiredByNativeCodeAttribute_set_Optional_m3990085312
_Ca:__ZN6prcoreL17RemapGenericFloatI17TexFormatRGBAHalf18TexFormatARGBFloatEEvPKNS_9InnerInfoE
VKg:_Enum_System_IConvertible_ToInt32_m2459904362
aRc:__ZNK8GUIStyle21DrawWithTextSelectionER8GUIStateRK5RectTIfER10GUIContentbbbbbiiRK10ColorRGBAfSA_
qwc:__ZN10systeminfo21SupportsAccelerometerEv
oRc:__Z14GetBuiltinSkini
tjg:_DecoderReplacementFallbackBuffer_Reset_m2576819665
Tvl:_CustomAnimationPlayable_GetOutput_m2109551724
sxg:_Enumerator__cctor_m298562758
Rdm:_Enumerator_System_Collections_IEnumerator_Reset_m2573763156_gshared
WUh:_MonoType_GetConstructors_internal_m2709619723
jm:_JS_SystemInfo_GetBrowserVersionString
hKb:__ZN2UI13RectTransform23VirtualRedirectTransferER14SafeBinaryRead
AYk:_TimeSpan_CompareTo_m2891128664
gke:__ZN5physx7NpScene17flushQueryUpdatesEv
apa:__ZNSt3__26__treeINS_12__value_typeINS_12basic_stringIcNS_11char_traitsIcEENS_9allocatorIcEEEES7_EENS_19__map_value_compareIS7_S8_NS_4lessIS7_EELb1EEE13stl_allocatorIS8_L18MemLabelIdentifier12ELi16EEE7destroyEPNS_11__tree_nodeIS8_PvEE
Y3g:_Collection_1_System_Collections_IList_Contains_m323652826_gshared
PRg:_List_1_System_Collections_ICollection_get_SyncRoot_m3733894943_gshared
dXg:_List_1_Reverse_m302978607_gshared
l5:__ZZL31InitializeAudioManagerCallbacksvEN33FixedUpdateAudioFixedUpdatestruct7ForwardEv
Sec:__ZN24GenerateTypeTreeTransfer8TransferINSt3__23mapI8UnityStriNS1_4lessIS3_EENS1_9allocatorINS1_4pairIKS3_iEEEEEEEEvRT_PKc17TransferMetaFlags
aec:__ZNSt3__26vectorIN9ShaderLab20SerializedSubProgramENS_9allocatorIS2_EEE6assignIPS2_EENS_9enable_ifIXaasr21__is_forward_iteratorIT_EE5valuesr16is_constructibleIS2_NS_15iterator_traitsIS9_E9referenceEEE5valueEvE4typeES9_S9_
eVc:__Z18Transfer_BlittableI8JSONReadLb0E8BitFieldEvRK29SerializationCommandArgumentsR31RuntimeSerializationCommandInfo
$$c:__ZNSt3__26vectorI8Particle13stl_allocatorIS1_L18MemLabelIdentifier18ELi16EEE7reserveEj
ljj:_SoapServices_RegisterInteropXmlType_m2949236705
_Xg:_List_1_Remove_m1211693753_gshared
enb:__ZN17PersistentManagerC2Eii
udd:__ZZN14ParticleSystem15InitializeClassEvEN46PostLateUpdateParticleSystemEndUpdateAllstruct7ForwardEv
O8b:__ZL17Transfer_GUIStyleI18StreamedBinaryReadILb1EELb0EEvRK29SerializationCommandArgumentsR31RuntimeSerializationCommandInfo
hig:_String_CharCopy_m2550399897
wic:__ZN11TypeManager20RegisterNonClassTypeEiP4RTTIPKcS3_
yke:__ZN5physx7NpScene10unlockReadEv
scc:__ZN9ShaderLab14SerializedPass8TransferI14SafeBinaryReadEEvRT_
gSc:__Z71Register_UnityEngine_GUILayoutUtility_INTERNAL_CALL_Internal_MoveWindowv
d5:__ZN12AudioManager16SetListenerPauseEb
PQk:_CameraRefocus_ChangeParent_m2887023418
Zan:__ZNKSt3__28time_putIwNS_19ostreambuf_iteratorIwNS_11char_traitsIwEEEEE6do_putES4_RNS_8ios_baseEwPK2tmcc
z4g:_Collection_1_IsValidItem_m2254106115_gshared
wOj:_TypeBuilder_GetEvent_m3876348075
sGl:_Parser_ParseDecimal_m4127410766
sQl:_Slider_OnMove_m641164662
ca:invoke_viiiiiiiiiii
U2m:___syscall_ret
DXk:_Scheduler__ctor_m3716265742
E1h:_MACAlgorithm_Final_m4076939925
OZk:_Type_get_ReflectedType_m587395740
VEc:__Z19GL_CUSTOM_TexCoord2ff
vFm:__ZNSt3__212basic_stringIcNS_11char_traitsIcEENS_9allocatorIcEEE6assignINS_11__wrap_iterIPKcEEEENS_9enable_ifIXaasr21__is_forward_iteratorIT_EE5valuesr38__libcpp_string_gets_noexcept_iteratorISC_EE5valueERS5_E4typeESC_SC_
zsf:__Z56Register_UnityEngine_Analytics_CustomEventData_AddDoublev
uPb:__ZN11ChannelInfo8TransferI19StreamedBinaryWriteILb0EEEEvRT_
EQm:__ZN4utf88internal13validate_nextIPKcEENS0_9utf_errorERT_S5_Rj
j5k:_InternalEnumerator_1_System_Collections_IEnumerator_get_Current_m3583252352_gshared
fKm:__ZN6il2cpp2vm14PlatformInvoke21SetFindPluginCallbackEPFPKcS3_E
dYb:__ZN23ArchiveStorageConverter24ReadHeaderFromMemoryFileEv
ZNj:_EnumBuilder_get_FullName_m2818393911
a6d:__ZN5physx2Sc9ClothCore22setFrictionCoefficientEf
rWc:__Z18Transfer_BlittableI8JSONReadLb1E10ColorRGBAfEvRK29SerializationCommandArgumentsR31RuntimeSerializationCommandInfo
_$d:__ZNK5physx9NpPhysics17getNbConvexMeshesEv
QQh:_StreamAsyncResult_get_Done_m2858832609
Vje:__ZNK5physx7NpScene29getContactCorrelationDistanceEv
Y9l:_BrakeLight_Update_m1229844344
lEc:__Z34Register_UnityEngine_Gradient_Initv
nEl:_DictionaryEnumerator_get_Entry_m1597857786
k7c:__ZN13InitialModule8TransferI17RemapPPtrTransferEEvRT_
VWa:__Z26TransformVerticesInnerLoopILb1ELb1ELb0EEvPhRK10Matrix4x4fRK10Matrix3x3fjPKhiiiS8_ii25GfxTransformVerticesFlags
T0j:_MobileInput_SetAxisPositive_m1248185115
Zlj:_SerializationEntry_get_Value_m1628109884_AdjustorThunk
Okh:_BaseInputModule_GetAxisEventData_m3903709281
k4f:_Array_InternalArray__get_Item_TisUriScheme_t1876590943_m1821482697_gshared
c1f:_Array_Sort_TisIl2CppObject_m1954851512_gshared
X6h:_BigInteger__ctor_m3239748086
Hda:__ZN13ScreenManager23SetIsOrientationEnabledE18EnabledOrientationb
$1i:__ZL93AeroplaneController_t967620215_CustomAttributesCacheGenerator_U3CPitchAngleU3Ek__BackingFieldP21CustomAttributesCache
jim:__ZL24UnresolvedVirtualCall_57P12Il2CppObjectiPK10MethodInfo
Gz:__ZN9Animation13AwakeFromLoadE17AwakeFromLoadMode
mBi:__ZL79Convert_t2607082565_CustomAttributesCacheGenerator_Convert_ToUInt16_m1043031438P21CustomAttributesCache
J4e:__Z39Register_UnityEngine_Rigidbody_get_dragv
yTb:__ZN9InputAxis8TransferI19StreamedBinaryWriteILb0EEEEvRT_
yHk:__Z55RuntimeInvoker_Boolean_t3825574718_RaycastHit_t87180320PK10MethodInfoPvPS2_
ZTc:__Z45Register_UnityEngine_GUIStyle_GetFontInternalv
fEf:__ZN5physx18RepXPropertyFilterINS_2Sn17RepXVisitorReaderINS_23PxVehicleSuspensionDataEEEEclILj594ES3_ffEEvRKNS_14PxPropertyInfoIXT_ET0_T1_T2_EEj
cEd:__ZN5physx6shdfnd8SyncImpl4waitEj
uPk:_PostEffectsHelper_DrawLowLevelQuad_m3340269645
y8g:_Collection_1_System_Collections_IList_get_IsFixedSize_m3946690039_gshared
puk:__Z66RuntimeInvoker_Void_t1841601450_UInt16_t986882611_SByte_t454417549PK10MethodInfoPvPS2_
Dck:_DefaultComparer_GetHashCode_m2506382068_gshared
Xql:_Component_SendMessageUpwards_m19741277
sgk:_EqualityComparer_1_System_Collections_IEqualityComparer_GetHashCode_m1012273405_gshared
nYf:_Array_InternalArray__ICollection_Add_TisHitInfo_t1761367055_m2956071622_gshared
YRk:_U3CStartU3Ec__Iterator0__ctor_m421489487
OAb:__Z28BuildSingleStreamChannelInfojRK20VertexChannelsLayoutjS1_P11ChannelInfo
e4c:__ZN33SizeBySpeedModulePropertyBindings13GetFloatValueERK14ParticleSystemi
okb:__ZN10GameObject23VirtualRedirectTransferER18StreamedBinaryReadILb0EE
mTm:__ZN6il2cpp2gc16GarbageCollector13AllocateFixedEjPv
mfl:_InternalEnumerator_1_Dispose_m2270401482_AdjustorThunk
Djj:_ArrayFixupRecord_FixupImpl_m2377725358
wh:_glFrontFace
zlj:_ObjectRecord_get_IsUnsolvedObjectReference_m2202692850
jJi:__ZL96Transform_t3275118058_CustomAttributesCacheGenerator_Transform_Rotate_m2612876682____relativeTo1P21CustomAttributesCache
Edj:_FactoryCache_Cleanup_m4130035987
gQk:_U3CGenerateCloudsU3Ec__Iterator0__ctor_m2148953717
h7c:__ZN14ParticleSystem8TransferI17RemapPPtrTransferEEvRT_
Krf:__ZN18BaseUnityAnalytics7ReleaseEv
Iv:__ZN22NavMeshProjectSettingsD0Ev
NQe:__ZNK5physx20BigConvexDataBuilder4SaveERNS_14PxOutputStreamEbjPKNS_16HullTriangleDataE
oUb:__ZN13BuildSettings8TransferI18StreamedBinaryReadILb1EEEEvRT_
Nle:__ZN5physx13NpVolumeCache17getNbCachedShapesEv
_eb:__ZNSt3__26vectorI16ShadowCasterData13stl_allocatorIS1_L18MemLabelIdentifier2ELi16EEE21__push_back_slow_pathIKS1_EEvRT_
Lum:__ZN6il2cpp6icalls8mscorlib6SystemL16GetFieldFromTypeINS_5utils10functional6FilterINSt3__212basic_stringIcNS7_11char_traitsIcEENS7_9allocatorIcEEEENS4_11StringUtils23CaseInsensitiveComparerEEEEEP21Il2CppReflectionFieldP11Il2CppClassSK_iRKT_
Vdk:_DefaultComparer_GetHashCode_m918846970_gshared
iWl:_Vector3_get_forward_m1201659139
U0g:_List_1_Sort_m269561757_gshared
nlf:__Z51Register_UnityEngine_TextGenerator_GetLinesInternalv
lfh:_ReadOnlyCollection_1_System_Collections_Generic_ICollectionU3CTU3E_Remove_m2970185170_gshared
kem:_HashSet_1_Init_m1258286688_gshared
yIa:__ZN17PersistentManager12UnloadStreamERKNSt3__212basic_stringIcNS0_11char_traitsIcEENS0_9allocatorIcEEEEb
fpb:__Z24CreateDirectoryRecursiveRKNSt3__212basic_stringIcNS_11char_traitsIcEENS_9allocatorIcEEEE
mdh:_ReadOnlyCollection_1_System_Collections_IList_RemoveAt_m525136953_gshared
mFf:__Z54setPxVehicleWheelsSimData_HighForwardSpeedSubStepCountPN5physx22PxVehicleWheelsSimDataEj
Oh:_strftime_l
aL:__ZN26AnimatorControllerPlayable27SetupStateMachineBehavioursEP6Object
Upl:_Collision2D_get_gameObject_m4234358314
pCa:__ZN6prcoreL17RemapGenericFloatI17TexFormatRGBFloat18TexFormatRGBAFloatEEvPKNS_9InnerInfoE
gam:_CarController_ProcessWheels_m2037671356
kM:__Z16AppendPathToHashRKN7mecanim5crc32EPKc
$Yc:__ZN6HelperI9JSONWrite23TransferArrayField_InfoE24SerializationFunctionForERKS1_R23StaticTransferFieldInfoPb
pne:__ZN5physx2Sc5Scene15getRenderBufferEv
O0k:_UInt64_System_IConvertible_ToBoolean_m3012279573_AdjustorThunk
Mtm:__ZNSt3__26vectorIP17Il2CppAsyncResultN6il2cpp2gc9AllocatorIS2_EEE26__swap_out_circular_bufferERNS_14__split_bufferIS2_RS6_EE
Yok:__Z48RuntimeInvoker_Il2CppObject_StringU26_t638738783PK10MethodInfoPvPS2_
A2i:__ZL84AeroplanePropellerAnimator_t4010696859_CustomAttributesCacheGenerator_propellorModelP21CustomAttributesCache
Ksn:_glClearStencil__wrapper
aZj:_SSAOEffect_CreateMaterials_m244674966
TJf:__Z36getPxVehicleDriveSimData_AutoBoxDataPKN5physx21PxVehicleDriveSimDataE
Iwf:__ZN20UnityConnectSettings10InitializeEv
uvk:__Z36RuntimeInvoker_Matrix4x4_t2933234003PK10MethodInfoPvPS2_
GEh:_GregorianCalendar__ctor_m3794576475
E0k:_UInt32_TryParse_m4283512434
sZb:__ZN13MonoBehaviour23VirtualRedirectTransferER19StreamedBinaryWriteILb0EE
nZ:__ZN9AudioClip11CreateSoundEv
kRb:__ZN8Material14DisableKeywordERKNSt3__212basic_stringIcNS0_11char_traitsIcEENS0_9allocatorIcEEEE
P5j:_ShimEnumerator_MoveNext_m3313047792_gshared
m5g:_Collection_1_ConvertItem_m2185647560_gshared
aZk:_TimeSpan_op_Inequality_m257547441
nWk:_ExecutionContext_GetObjectData_m1456913356
t5l:_AesManaged_set_Key_m2884557591
JOm:__ZN14dense_hash_setI10KeyWrapperIP18Il2CppGenericClassEN6il2cpp8metadata22Il2CppGenericClassHashENS5_25Il2CppGenericClassCompareENSt3__29allocatorIS3_EEE6insertERKS3_
ZDj:_Object_set_hideFlags_m2204253440
pTm:__ZN6il2cpp2gc16GarbageCollector21CallWithAllocLockHeldEPFPvS2_ES2_
RNj:_EnumBuilder_get_Assembly_m4285228003
$Qk:_U3CDragObjectU3Ec__Iterator0_System_Collections_Generic_IEnumeratorU3CobjectU3E_get_Current_m1096867925
g5b:__Z18Transfer_BlittableI19StreamedBinaryWriteILb0EELb0E8Vector2fEvRK29SerializationCommandArgumentsR31RuntimeSerializationCommandInfo
zGh:_DateTimeFormatInfo_get_RoundtripPattern_m562440017
mwf:__ZN11UnityEngine7Connect16PersistentValues13RestoreValuesER8JSONRead
GXe:__ZN14SphereCollider22FetchPoseFromTransformEv
tAi:__ZL76Convert_t2607082565_CustomAttributesCacheGenerator_Convert_ToByte_m791636053P21CustomAttributesCache
Cdk:_DefaultComparer__ctor_m3947565964_gshared
S0f:_Array_Sort_TisInt32_t2071877448_TisInt32_t2071877448_m3984301585_gshared
qjj:_TypeEntry_get_AssemblyName_m1762285107
_Fe:__ZNK5physx2Gu11HeightField17getHeightInternalEff
ySm:__ZN6il2cpp2vmL11GetIdentityEP14Il2CppIUnknown
XXm:_GC_push_gc_structures
nje:__ZNK5physx7NpScene22getClientBehaviorFlagsEh
F0d:__ZN5physx9NpFactory14createMaterialEfff
mpm:__ZN15dense_hashtableINSt3__24pairIK10KeyWrapperINS0_12basic_stringIcNS0_11char_traitsIcEENS0_9allocatorIcEEEEEP11Il2CppClassEES9_N6il2cpp5utils11StringUtils12StringHasherIS8_EEN14dense_hash_mapIS9_SC_SI_NS0_8equal_toIS9_EENS6_ISD_EEE9SelectKeyESL_SM_E8min_sizeEjj
tqd:__ZNK5physx3Cct13BoxController8getStatsERNS_17PxControllerStatsE
Pyg:_Enumerator_get_Current_m1271212567
k7:__ZN5physx5cloth11PhaseConfigC2Et
MXa:__Z22GetShaderCachePathGLESv
q2e:__ZN13PhysicsModule21OverlapBoxUserCollectERK8Vector3fS2_RK11Quaternionfi23QueryTriggerInteractionRN8IPhysics12IUserCollectE
vqd:__ZN5physx3Cct13BoxControllerD2Ev
yzj:_Input_set_compositionCursorPos_m1615567306
mza:__ZN18StreamedBinaryReadILb1EE19TransferSTLStyleMapINSt3__23mapIN9ShaderLab16FastPropertyNameEN18UnityPropertySheet11UnityTexEnvENS2_4lessIS5_EENS2_9allocatorINS2_4pairIKS5_S7_EEEEEEEEvRT_17TransferMetaFlags
cxl:_Playable_GetInputWeightInternal_m381407588
Rpd:__Z41Rigidbody2D_CUSTOM_INTERNAL_CALL_AddForceP12Il2CppObjectRK13Vector2fIcallN11Rigidbody2D9ForceModeE
Edd:__ZN22ParticleSystemRenderer23UpdateVertexInputLayoutEv
m7i:_IPAddress_ParseIPV6_m2209709575
o1k:_UInt64_CompareTo_m3513742483
Zhe:__ZThn8_N5physx2Sc19ShapeInstancePairLLD0Ev
Kaa:__ZN19CloudServiceHandler18SaveFileFromServerERK8UnityStrS2_PN11UnityEngine15CloudWebService16WWWRestHeaderMapE
_Ae:__ZN5physx19PxcContactSphereBoxERKNS_2Gu13GeometryUnionES3_RKNS_11PxTransformES6_RKfRNS_10PxcNpCacheERNS0_13ContactBufferE
FRk:_LerpControlledBob_DoBobCycle_m2784477671
MRl:_Toggle_set_group_m3833595685
$Ch:_LayoutRebuilder_ForceRebuildLayoutImmediate_m566681977
Bje:__ZNK5physx7NpScene21getBroadPhaseCallbackEh
_Kd:__ZN5physx6shdfnd5ArrayIPNS_12PxConstraintENS0_19ReflectionAllocatorIS3_EEE15growAndPushBackERKS3_
QFd:__ZN5physx3Ext5JointINS_15PxDistanceJointENS_30PxDistanceJointGeneratedValuesEE10onComShiftEj
kbd:__ZN22ParticleSystemRenderer12GetLocalAABBER4AABB
fSd:__ZNK5physx2Sc15ArticulationSim11checkResizeEv
uBg:_Double_ToString_m1085043609
vYf:_Array_InternalArray__ICollection_Add_TisVector4_t2243707581_m698578249_gshared
KVm:__ZN6il2cpp2os9Directory10GetCurrentEPi
O4m:___strchrnul
Dia:__ZN8keywords6CreateEPKc
Lud:__ZN5physx2Gu11gjkRelativeINS0_8CapsuleVENS0_11ConvexHullVEEEjRKT_RKT0_RKNS_6shdfnd3aos15PsMatTransformVERNSB_5Vec3VESG_SG_RNSB_6FloatVE
CAf:__ZN5physx16PxVehicleNoDrive14setDriveTorqueEjf
iu:__Z20dtDistancePtSegSqr2DPKfS0_S0_Rf
N4b:__ZN24GenerateTypeTreeTransfer8TransferINSt3__26vectorI17AnimationCurveTplIfE13stl_allocatorIS4_L18MemLabelIdentifier1ELi16EEEEEEvRT_PKc17TransferMetaFlags
R:Math_imul
zwj:_GUIStyle_set_active_m2896743432
fYe:__ZN5Unity5Joint22JointTransferPreNoAxisI14SafeBinaryReadEEvRT_
fRb:__ZN14SpriteRenderer15SetupPropertiesEv
Ieg:_SecurityFrame_t1002202659_marshal_pinvoke_back
GFj:_Physics_Raycast_m2036777053
Wkf:__Z45TextGenerator_CUSTOM_INTERNAL_get_rectExtentsP12Il2CppObjectP5RectTIfE
ubi:_CertificateValidationCallback_Invoke_m2500463874
YSf:_SetPropertyUtility_SetStruct_TisChar_t3454481338_m2333420724_gshared
b1j:_StandaloneInput_GetButton_m2157167590
R5g:__ZN23InterfaceActionInvoker2Ii18Color32_t874517518E6InvokeEjP11Il2CppClassPviS0_
C4g:_Collection_1_IsSynchronized_m2601980439_gshared
ixg:_Hashtable_ContainsKey_m2716576664
Y5:__ZN11AudioSource12SetAudioClipEP9AudioClip
kA:__ZN9Animation9CrossFadeER14AnimationStatefib
kDm:__ZN15dense_hashtableINSt3__24pairIK10KeyWrapperIPK10Il2CppTypeEjEES6_N6il2cpp8metadata14Il2CppTypeHashEN14dense_hash_mapIS6_jSB_NSA_17Il2CppTypeCompareENS0_9allocatorIS8_EEE9SelectKeyESD_SF_EC2EjRKSB_RKSD_RKSH_
mFl:_PatternCompiler_EmitCategory_m1696942454
t4c:__ZN30VelocityModulePropertyBindings13GetFloatValueERK14ParticleSystemi
Mbd:__Z9UpdateTplIL22MinMaxGradientEvalMode0EL12GradientMode1ELS1_1EEvRK23ParticleSystemParticlesP11ColorRGBA32RK14MinMaxGradientRK23OptimizedMinMaxGradientRK8Vector2f
OYf:_Array_InternalArray__ICollection_CopyTo_TisInt32_t2071877448_m984622488_gshared
bpf:__Z39CanvasGroup_Get_Custom_PropInteractableP12Il2CppObject
fld:__ZN16CircleCollider2D23VirtualRedirectTransferER18StreamedBinaryReadILb0EE
qen:__ZNSt3__26locale5__imp7installINS_7codecvtIcc11__mbstate_tEEEEvPT_
qon:_emscripten_glStencilOpSeparate__wrapper
Hhf:_cf2_getLanguageGroup
cib:__ZN13ProbeRenderer8ConvolveEbijjb
oRa:__ZN17GenericDynamicVBOC2ER9GfxDevice13GfxBufferModejj
rBl:_Context_get_HasDynamicSinks_m1998518649
cnd:__Z28GetPhysics2DScriptingClassesv
Efe:__ZNK5physx2Sc5Scene7isValidEv
pLi:__ZL97Physics_t634932869_CustomAttributesCacheGenerator_Physics_SphereCastAll_m2962218208____layerMask3P21CustomAttributesCache
Blc:__ZN12ScriptMapper7PRODUCEE18MemLabelIdentifier18ObjectCreationMode
GZi:__ZL105VirtualInput_t2475396235_CustomAttributesCacheGenerator_VirtualInput_get_virtualMousePosition_m3181803957P21CustomAttributesCache
U8:__ZN11UnityEngine15CloudWebService17SessionEventQueue10PurgeItemsEj
Ele:__ZN5physx2Sq17SceneQueryManager29setDynamicTreeRebuildRateHintEj
X8j:_ValueCollection_System_Collections_Generic_ICollectionU3CTValueU3E_get_IsReadOnly_m1530798787_gshared
Xjh:_AbstractEventData_get_used_m4208553917
qdm:_GenericEqualityComparer_1_GetHashCode_m3320722759_gshared
j0j:_CrossPlatformInputManager_SetVirtualMousePositionX_m2342237406
Ilg:_Array_System_Collections_IList_get_Item_m2088124007
amg:_Array_GetLength_m2083296647
nyi:__ZL58SecurityElement_t2325568386_CustomAttributesCacheGeneratorP21CustomAttributesCache
RGc:__Z28LayerMask_CUSTOM_NameToLayerP12Il2CppString
zHj:_Random_INTERNAL_get_onUnitSphere_m734727474
Vug:_SynchronizedArrayListWrapper_ToArray_m1522185111
atk:__Z55RuntimeInvoker_TimeSpan_t3430258949_DateTime_t693205669PK10MethodInfoPvPS2_
Q9b:__Z18Transfer_BlittableI18StreamedBinaryReadILb1EELb1EtEvRK29SerializationCommandArgumentsR31RuntimeSerializationCommandInfo
Idg:_SecurityContext_get_FlowSuppressed_m420202521
CMa:__ZN9GfxDevice20DeallocRenderSurfaceEP17RenderSurfaceBase
WQd:__ZN5physx6shdfnd5ArrayIPvNS0_19ReflectionAllocatorINS_18NpArticulationLinkEEEE4copyINS0_15InlineAllocatorILj256ES5_EEEEvRKNS1_IS2_T_EE
Y4a:_unity_z_deflateEnd
z2k:_ValueType_ToString_m3796301715
_Yj:_SSAOEffect_OnDisable_m2116126913
Sqd:__ZNK5physx3Cct10Controller12getKineShapeEv
Fqk:__Z62RuntimeInvoker_Int64_t909078037_Il2CppObject_Int32_t2071877448PK10MethodInfoPvPS2_
z8c:__ZN20ExternalForcesModule8TransferI19StreamedBinaryWriteILb0EEEEvRT_
g0f:_Array_qsort_TisUICharInfo_t3056636800_m2607408901_gshared
oJd:__ZN5physx6shdfnd4sortIPvNS0_4LessIS2_EENS0_19ReflectionAllocatorINS_2Sc18TriggerInteractionEEEEEvPT_jRKT0_RKT1_j
ctj:_GUILayoutGroup__ctor_m992523271
Ryf:__ZNSt3__26vectorIN5physx25PxVehicleWheelQueryResultENS_9allocatorIS2_EEE21__push_back_slow_pathIKS2_EEvRT_
Wxb:__ZN12BaseRenderer23RendererBecameInvisibleEv
Pde:__ZNK5physx2Sc8BodyCore14getMaxAngVelSqEv
G6e:__ZN20TextRenderingPrivate8FontImpl13CharacterInfo8TransferI18StreamedBinaryReadILb0EEEEvRT_
B4b:__Z29Transfer_Blittable_ArrayFieldI24GenerateTypeTreeTransferfEvRT_R9ArrayInfoRK23StaticTransferFieldInfo
urk:__Z51RuntimeInvoker_Single_t2076509932_Int16_t4041245914PK10MethodInfoPvPS2_
fCj:_Matrix4x4_op_Multiply_m2352863493
TIb:__ZN8Gradient8TransferI14SafeBinaryReadEEvRT_
_nk:__Z41RuntimeInvoker_StackBehaviour_t1390406961PK10MethodInfoPvPS2_
d8l:_UnityEvent_1_Invoke_m1533100983_gshared
fSm:__ZNK15dense_hashtableINSt3__24pairIK10KeyWrapperIP14Il2CppIUnknownEjEES5_N6il2cpp5utils11PointerHashIS3_EEN14dense_hash_mapIS5_jSB_NS0_8equal_toIS5_EENS0_9allocatorIS7_EEE9SelectKeyESE_SG_E5beginEv
o0i:__ZL163U3CStartU3Ec__Iterator0_t522092548_CustomAttributesCacheGenerator_U3CStartU3Ec__Iterator0_System_Collections_Generic_IEnumeratorU3CobjectU3E_get_Current_m841050805P21CustomAttributesCache
B6i:_FileWebRequest__ctor_m4003648606
HVi:__ZL71SpriteState_t1353336012_CustomAttributesCacheGenerator_m_DisabledSpriteP21CustomAttributesCache
_Ja:__ZN16MeshVertexFormat23CreateVertexDeclarationEjPKS_
OLk:__Z34RuntimeInvoker_HitInfo_t1761367055PK10MethodInfoPvPS2_
XKg:_Enum_System_IConvertible_ToSByte_m3488526280
PYa:__ZN9GfxDevice9SkinOnGPUERK18VertexStreamSourceP9GfxBufferP17GPUSkinPoseBufferS4_iijb
SRj:_TypeBuilder_ToString_m1952363535
eX:__ZN8Animator19SetLookAtEyesWeightEf
wCl:_Identity_set_Disposed_m628843469
FDj:_MonoBehaviour_StopAllCoroutines_m1675795839
bIa:__ZN18IDCollectorFunctorD0Ev
ZBe:__ZN5physx2Gu32PCMConvexVsMeshContactGeneration15processTriangleEPKNS_6PxVec3EjhPKj
bkb:__ZN23ManagedAttributeManager21GetRequiredComponentsEP11Il2CppClass
yJi:__ZL82Object_t1021602117_CustomAttributesCacheGenerator_Object_DestroyObject_m2343493981P21CustomAttributesCache
nWh:_NumberFormatter_Init_m1022036773
RWm:_GC_new_free_list_inner
pck:_DefaultComparer_Equals_m85211180_gshared
Llc:__ZN14RenderSettings7PRODUCEE18MemLabelIdentifier18ObjectCreationMode
wWm:_GC_err_printf
t8g:_Collection_1_System_Collections_IList_IndexOf_m1950953062_gshared
YUh:_MonoType_InternalGetEvent_m532443236
y6g:_Collection_1_IndexOf_m2700825189_gshared
BFe:__ZN5physx6shdfnd5ArrayINS_2Cm8Matrix34ENS0_19ReflectionAllocatorIS3_EEE15growAndPushBackERKS3_
Qgl:_Comparer_1_get_Default_m2605397692_gshared
eCe:__ZN5physx2Gu32PCMConvexVsMeshContactGeneration31generatePolyDataContactManifoldERNS0_9TriangleVEjjhPNS0_21MeshPersistentContactERjRKNS_6shdfnd3aos6FloatVERNS8_5Vec3VE
JRe:__ZN5physx10SubSortSAH5splitEPjj
nEf:__Z41setPxVehicleSuspensionDataMSpringStrengthPN5physx23PxVehicleSuspensionDataEf
hQ:__ZN25RuntimeAnimatorController8TransferI14SafeBinaryReadEEvRT_
FVc:__ZN8JSONRead8TransferI10RectOffsetEEvRT_PKc17TransferMetaFlagsb
XP:__ZN18AnimatorController23VirtualRedirectTransferER18StreamedBinaryReadILb1EE
lan:__ZNSt3__28time_getIwNS_19istreambuf_iteratorIwNS_11char_traitsIwEEEEED2Ev
Uig:_Decoder__ctor_m2623573910
b7a:__Z21ClearFenceWithoutSyncR8JobFence
iOf:__ZN5physx3Pvd17PvdPropertyFilterINS_2Sn17RepXVisitorWriterINS_30PxVehicleAckermannGeometryDataEEEE14handleAccessorILj554ENS_22PxRepXPropertyAccessorILj554ES4_ffEEEEvRKT0_
lwd:__ZN5physx2Gu3EPA8addFacetEjjjRKNS_6shdfnd3aos6FloatVES6_
o7c:__ZN14RotationModule8TransferI17RemapPPtrTransferEEvRT_
j0:__ZN12SoundManager20RegisterModifiedClipEP10SampleClip
Dla:__Z21FormatScriptTypeError14MonoScriptTypeRKNSt3__212basic_stringIcNS0_11char_traitsIcEENS0_9allocatorIcEEEE
$Pb:__ZN12MeshRenderer15AddAsRenderNodeER15RenderNodeQueueRK20DeprecatedSourceData
_kk:__Z108RuntimeInvoker_Void_t1841601450_Il2CppObject_Int64_t909078037_Il2CppObject_Int64_t909078037_Int64_t909078037PK10MethodInfoPvPS2_
K2:__ZN11AudioSource4PlayEd
ZZb:__Z26scripting_class_get_fieldsP11Il2CppClassRNSt3__26vectorIP9FieldInfo13stl_allocatorIS4_L18MemLabelIdentifier1ELi16EEEE
NNm:__ZN6il2cpp2vm6Object16GetVirtualMethodEP12Il2CppObjectPK10MethodInfo
XV:__ZZN8Animator15InitializeClassEvEN31FunctorImpl_388kDidModifyMotion4CallEPviR11MessageData
VDd:__ZN5physx3Cct9CCTParamsC2Ev
B3d:__ZN5physx7NpCloth21setStiffnessFrequencyEf
eea:__ZNK20LocalFileSystemPosix8IsHiddenERK13FileEntryData
eOc:__Z37Transform_CUSTOM_INTERNAL_CALL_LookAtP12Il2CppObjectRK8Vector3fS3_
VNe:__ZThn8_N5physx2Gu11HeightField14onRefCountZeroEv
cUl:_X501__cctor_m2610532554
$Hb:__ZThn28_NK8Renderer8GetLayerEv
xHk:__Z52RuntimeInvoker_Boolean_t3825574718_Plane_t3727654732PK10MethodInfoPvPS2_
IId:__ZN5physx2Sc5Actor9setActiveEbj
ozf:__ZN13WheelCollider8TransferI18StreamedBinaryReadILb0EEEEvRT_
Aud:__ZN12_GLOBAL__N_127SphereMeshContactGeneration15processTriangleEjRKN5physx6PxVec3ES4_S4_PKj
bGm:__ZNSt3__214__split_bufferINS_12basic_stringIcNS_11char_traitsIcEENS_9allocatorIcEEEERNS4_IS6_EEED2Ev
R$g:_List_1_CheckCollection_m2220107869_gshared
O3l:_Vector4_get_one_m3039437024
XEb:__ZN7Cubemap23VirtualRedirectTransferER18StreamedBinaryReadILb0EE
Kdi:_RecordProtocol_EncodeRecord_m3884270352
BHc:__ZNSt3__27__sort4IRNS_6__lessI11KeyframeTplIfES3_EEPS3_EEjT0_S7_S7_S7_T_
ojf:_Read_CVT
cJd:__ZN5physx2Sc10NPhaseCore28reserveContactReportPairDataEjjRj
XDg:_Convert_ToUInt32_m776714429
Rud:__ZN5physx2Gu22barycentricCoordinatesERKNS_6shdfnd3aos5Vec3VES5_S5_RNS2_6FloatVE
A$a:__ZN12FileAccessor4SeekEx10FileOrigin
D3b:__ZL26Transfer_SimpleNativeClassI24GenerateTypeTreeTransfer17AnimationCurveTplIfELb0EEvRK29SerializationCommandArgumentsR31RuntimeSerializationCommandInfo
d3d:__ZN5physx15NpActorTemplateINS_7PxClothEE12setActorFlagENS_11PxActorFlag4EnumEb
Vth:__ZN16VirtFuncInvoker1IP22GameObject_t1756533147S1_E6InvokeEjPvS1_
qxk:__Z77RuntimeInvoker_Vector3_t2243707580_Quaternion_t4030073918_Vector3_t2243707580PK10MethodInfoPvPS2_
bQe:__ZL18TestUnifiedNormalsjPKN5physx6PxVec3EjPNS_2Gu9TriangleTIjEEb
ACk:__Z54RuntimeInvoker_Boolean_t3825574718_Vector2_t2243707579PK10MethodInfoPvPS2_
Nrl:_Coroutine_t2299508840_marshal_pinvoke
Lpa:__ZN16LightmapSettings20DidChangeActiveSceneEP10UnitySceneS1_
pLj:_Default_ReorderParameters_m1877749093
dEm:__ZN15dense_hashtableINSt3__24pairIK10KeyWrapperINS1_IPK14Il2CppAssemblyP11Il2CppClassEEEjEES9_17ReflectionMapHashIS8_EN14dense_hash_mapIS9_jSD_19ReflectionMapEqualsIS8_ENS0_9allocatorISB_EEE9SelectKeyESG_SI_E13set_empty_keyERKSB_
O2i:__ZL72CarAIControl_t1975551237_CustomAttributesCacheGenerator_steerSensitivityP21CustomAttributesCache
PXi:__ZL59g_AssemblyU2DCSharp_Assembly_CustomAttributesCacheGeneratorP21CustomAttributesCache
NNc:__Z39Register_UnityEngine_Time_get_timeScalev
C1:__ZN10AudioMixer11SetupGroupsEv
IIi:__ZL91Resources_t339470017_CustomAttributesCacheGenerator_Resources_GetBuiltinResource_m582410469P21CustomAttributesCache
URc:__Z35Register_UnityEngine_Event_get_typev
c2h:_PrivateKeyInfo_DecodeRSA_m1427048948
ZZi:__ZL63ColorCorrectionCurves_t140786675_CustomAttributesCacheGeneratorP21CustomAttributesCache
d8h:_BigInteger_op_GreaterThanOrEqual_m2643115413
qKj:_Assembly_FillName_m1934025015
A4a:_UNITY_png_free
hMh:_IntPtr_op_Explicit_m1073656736
tmn:_emscripten_glDepthRange__wrapper
Wgg:_String_IndexOf_m2126171214
HLh:_Int64_ToString_m1544341651_AdjustorThunk
EMe:__ZNK5physx13GuMeshFactory17getNbConvexMeshesEv
WHh:_Guid_CheckNull_m2903986431
pDi:__ZL62CrossContextDelegate_t754146990_CustomAttributesCacheGeneratorP21CustomAttributesCache
ndd:__ZN14ParticleSystem15InitializeClassEv
yka:__Z63ThreadAndSerializationSafeCheckGetMonoBehaviourBeingTransferredv
BZm:_GC_enable
Ifi:_TlsClientCertificateVerify_ProcessAsSsl3_m3377063356
Bs:__ZNK12NavMeshAgent18GetDesiredVelocityEv
Rkc:__ZN14LineParametersD2Ev
Doh:_StandaloneInputModule_set_repeatDelay_m2820945738
LNh:_EndOfStreamException__ctor_m4268387737
O$k:_UInt16_ToString_m4213290405
yGc:__Z37Register_UnityEngine_Input_GetAxisRawv
H1g:_List_1_GetIndex_m433539411_gshared
ywi:__ZL59StreamingContext_t1417235061_CustomAttributesCacheGeneratorP21CustomAttributesCache
Fbh:_Collection_1_Remove_m3355928137_gshared
cLg:_Enum_GetName_m1226611481
epk:__Z113RuntimeInvoker_Il2CppObject_Byte_t3683104436_Il2CppObject_SByte_t454417549_Il2CppObject_Il2CppObject_Il2CppObjectPK10MethodInfoPvPS2_
y2:__ZN11AudioSource5ResetEv
Pw:__ZN14NavMeshManager8LoadDataEPK11NavMeshData
ZF:__ZN13AnimationClip12Vector3Curve8TransferI19StreamedBinaryWriteILb0EEEEvRT_
SLb:__ZN14Texture2DArray23VirtualRedirectTransferER18StreamedBinaryReadILb0EE
mMb:__ZN13TrailRenderer5ResetEv
s1i:__ZL69AeroplaneAudio_t4039863873_CustomAttributesCacheGenerator_engineSoundP21CustomAttributesCache
ZJb:__ZN2UI13RectTransform13AwakeFromLoadE17AwakeFromLoadMode
d9a:__ZL27GetDestRenderTargetSurfacesP13RenderTextureR12ObjectHandleI17RenderSurface_TagP17RenderSurfaceBaseES6_
WGc:__Z30Light_Set_Custom_PropIntensityP12Il2CppObjectf
lHe:__ZN5physx23PxsSolverSetupSolveTaskD2Ev
fyf:__ZN5physx23PxVehicleWheels4SimData26setSuspForceAppPointOffsetEjRKNS_6PxVec3E
d0b:__Z18Transfer_BlittableI14SafeBinaryReadLb1EiEvRK29SerializationCommandArgumentsR31RuntimeSerializationCommandInfo
Sxl:_DefaultDependencyAttribute__ctor_m107693037
STk:_AeroplaneController_set_ForwardSpeed_m3091469166
hgc:__ZNSt3__26vectorINS_4pairINS_12basic_stringIcNS_11char_traitsIcEENS_9allocatorIcEEEES7_EENS5_IS8_EEE21__push_back_slow_pathIKS8_EEvRT_
aHe:__ZN5physx6shdfnd5ArrayINS_13PxcSolverBodyENS0_16AlignedAllocatorILj128ENS0_19ReflectionAllocatorIS2_EEEEE6resizeEjRKS2_
Beh:_ReadOnlyCollection_1_GetEnumerator_m713393110_gshared
cij:_ProxyAttribute_GetPropertiesForNewContext_m3587421540
$mg:_Array_LastIndexOf_m4096535198
Qsg:_ArrayList_Add_m1719188324
JZd:__ZN18MultiQueryCallbackIN5physx12PxOverlapHitEE6invokeERfPKNS0_2Sq13PrunerPayloadEj
K4m:_uname
lKg:_Double_System_IConvertible_ToSByte_m1653690240_AdjustorThunk
qXe:__ZN14SphereColliderD0Ev
zyd:__ZN5physx2Gu18gjkRelativeRayCastINS0_4BoxVES2_NS0_10ShrunkBoxVES3_EEbRT_RT0_RKNS_6shdfnd3aos15PsMatTransformVERKNS9_6FloatVERKNS9_5Vec3VESI_RSD_RSG_SK_fb
Gl:_glGetStringi
s1c:__Z14WorldCollisionR13dynamic_arrayI20BatchedRaycastResultLj4EERK27ParticleSystemReadOnlyStateR19ParticleSystemStateRK23ParticleSystemParticlesRK33ParticleSystemCollisionParametersjibibRKf
hkm:__ZL25UnresolvedVirtualCall_163P12Il2CppObject22UICharInfo_t3056636800S1_PK10MethodInfo
xyj:_GUIStyleState_t3801000545_marshal_pinvoke
Glj:_ObjectManager_AddFixup_m4148241867
i8d:__ZN5physx22NpParticleBaseTemplateINS_15PxParticleFluidENS_15NpParticleFluidEE14setRestitutionEf
QMb:__ZN18StreamedBinaryReadILb0EE21TransferSTLStyleArrayI13dynamic_arrayI8Vector4fLj4EEEEvRT_17TransferMetaFlags
kNe:__ZThn8_N5physx2Gu10ConvexMeshD0Ev
Bbj:_X509Chain_get_CertificateCollection_m324631835
Hpm:__ZN15dense_hashtableI10KeyWrapperIPK19Il2CppGenericMethodES4_N6il2cpp8metadata23Il2CppGenericMethodHashEN14dense_hash_setIS4_S7_NS6_26Il2CppGenericMethodCompareENSt3__29allocatorIS4_EEE8IdentityES9_SC_EC2ERKSF_j
zfk:_EqualityComparer_1__cctor_m1011898363_gshared
Jre:__ZNK5physx2Sq12BucketPruner7raycastERKNS_6PxVec3ES4_RfRNS0_14PrunerCallbackE
ZVf:_Array_InternalArray__IndexOf_TisClientCertificateType_t4001384466_m1168139450_gshared
Oui:__ZL58IContextProperty_t287246399_CustomAttributesCacheGeneratorP21CustomAttributesCache
kIk:__Z49RuntimeInvoker_Int32_t2071877448_Link_t2723257478PK10MethodInfoPvPS2_
AEj:_ParticleSystemExtensionsImpl_GetSafeCollisionEventSize_m204968556
Jkm:__ZL25UnresolvedVirtualCall_191P12Il2CppObject16Guid_t2533601593S1_PK10MethodInfo
JIk:__Z57RuntimeInvoker_Int32_t2071877448_RenderBuffer_t2767087968PK10MethodInfoPvPS2_
wd:invoke_viiiiifffi
$od:__ZN15dense_hashtableINSt3__24pairIKNS1_IPK10Collider2DS4_EE11Collision2DEES5_NS2_23ColliderPairHashFunctorEN14dense_hash_mapIS5_S7_S9_NS0_8equal_toIS5_EE13stl_allocatorIS8_L18MemLabelIdentifier65ELi16EEE9SelectKeyESC_SF_E14squash_deletedEv
mdg:_StringBuilder_Append_m3618697540
cTg:_List_1_GetEnumerator_m3294992758_gshared
sda:__ZN13ScreenManager16SetScreenTimeoutEi
t2b:__Z18Transfer_BlittableI17RemapPPtrTransferLb0EdEvRK29SerializationCommandArgumentsR31RuntimeSerializationCommandInfo
xag:_SymmetricAlgorithm_set_IV_m4262655606
MQl:_StencilMaterial__cctor_m2963056855
pcm:_EqualityComparer_1_System_Collections_IEqualityComparer_Equals_m315020809_gshared
NZg:_List_1_Find_m3680710386_gshared
BVe:__ZN4PPtrI9RigidbodyE8TransferI18StreamedBinaryReadILb0EEEEvRT_
ZLj:_CustomAttributeNamedArgument_GetHashCode_m3715408876_AdjustorThunk
clf:__Z38Register_UnityEngine_Font_HasCharacterv
Gaj:_X509Certificate2_AppendBuffer_m3517242299
q8a:__Z35IntersectSpherePlaneBoundsOptimizedRKN4math7_float4EPS1_i
RNg:_CultureInfo_get_IsNeutralCulture_m3874876470
MIg:_Delegate_CreateDelegate_m3813023227
g9m:__ZNKSt3__27num_putIcNS_19ostreambuf_iteratorIcNS_11char_traitsIcEEEEE6do_putES4_RNS_8ios_baseEcx
$ok:__Z46RuntimeInvoker_WellKnownObjectMode_t2630225581PK10MethodInfoPvPS2_
_Gd:__ZN5physx2Sc8ShapeSim20createLowLevelVolumeEjRKNS_9PxBounds3EjNS_9AABBMgrIdE
gKl:_Uri_get_AbsoluteUri_m2120317928
f9m:__ZNKSt3__27num_putIcNS_19ostreambuf_iteratorIcNS_11char_traitsIcEEEEE6do_putES4_RNS_8ios_baseEcl
H3c:__ZN37InheritVelocityModulePropertyBindings13GetFloatValueERK14ParticleSystemi
ttc:__ZNK9Texture2D17CheckHasPixelDataEv
G3d:__ZNK5physx7NpCloth22getAngularInertiaScaleEv
IG:__ZN7mecanim6memory16ChainedAllocator10DeallocateEPv
Vkh:_BaseInputModule_IsModuleSupported_m4272494372
mAd:__ZN26IntersectAnyVsMeshCallbackILi1ELb1EE10processHitERKN5physx12PxRaycastHitERKNS1_6PxVec3ES7_S7_RfPKj
k9m:__ZNKSt3__27num_putIcNS_19ostreambuf_iteratorIcNS_11char_traitsIcEEEEE6do_putES4_RNS_8ios_baseEce
e9m:__ZNKSt3__27num_putIcNS_19ostreambuf_iteratorIcNS_11char_traitsIcEEEEE6do_putES4_RNS_8ios_baseEcb
sMd:__ZN5physx2Sc13ConstraintSim15needsProjectionEv
spa:__Z22CleanupLODGroupManagerPv
pYf:_Array_InternalArray__ICollection_Add_TisContentType_t1028629049_m2984242302_gshared
QRc:__Z21Event_CUSTOM_PopEventP12Il2CppObject
pm:_glUniform3fv
CVb:__ZNSt3__218__insertion_sort_3IRN15ResourceManager10Dependency6SorterEPS2_EEvT0_S6_T_
iRg:_Enumerator_System_Collections_IEnumerator_Reset_m3796537546_AdjustorThunk
zkf:_UNITY_FT_Init_Class_tt_service_gx_multi_masters
Wal:_InternalEnumerator_1_System_Collections_IEnumerator_Reset_m3249248421_AdjustorThunk
z4d:__ZNK5physx7NpCloth16getCollisionDataEPNS_22PxClothCollisionSphereEPjPNS_21PxClothCollisionPlaneES3_PNS_24PxClothCollisionTriangleE
FUh:_IntComparer_Compare_m3057931085
Zcb:__ZNK16LightmapSettings31GetRealtimeLightmapDecodeValuesEv
Z1:__ZN5audio5mixer12SetSuspendedERNS0_16AudioMixerMemoryEb
XEa:__ZN17PersistentManager21UnloadNonDirtyStreamsEv
Wjk:__Z78RuntimeInvoker_Int32_t2071877448_DecimalU26_t1613489971_DecimalU26_t1613489971PK10MethodInfoPvPS2_
lKm:__ZN6il2cpp2vm13LivenessStateC2EP11Il2CppClassjPFvPP12Il2CppObjectiPvES7_PFvvESB_
sDk:__Z41RuntimeInvoker_ColorTweenMode_t1328781136PK10MethodInfoPvPS2_
phj:_ObjRef__cctor_m2226086515
cTi:__ZL61Graphic_t2426225576_CustomAttributesCacheGenerator_m_MaterialP21CustomAttributesCache
V8i:_Oid__ctor_m1936781897
j$e:__ZN5physx6shdfnd8PoolBaseINS_24NpPtrTableStorageManager8PtrBlockILi4EEENS0_19ReflectionAllocatorIS4_EEE12allocateSlabEv
ODj:_Object_INTERNAL_CALL_Internal_InstantiateSingleWithParent_m1401308849
zxl:_ResourceSet__ctor_m1222864106
lKe:__ZN5physx2Sc5Scene13ccdBroadPhaseEPNS_10PxBaseTaskE
J2g:_Collection_1_System_Collections_IList_get_Item_m3376056117_gshared
P0b:__ZN12NativeBufferI27Converter_SimpleNativeClassI8GradientEE19ProcessAfterReadingER9ArrayInfoP11Il2CppClass
Lm:_emscripten_glDepthMask
$Be:__ZN5physx2Gu24PCMMeshContactGeneration15processContactsEhb
pli:__ZL76UInt16_t986882611_CustomAttributesCacheGenerator_UInt16_TryParse_m1818885113P21CustomAttributesCache
hRg:_Enumerator_VerifyState_m3639069574_gshared
pSa:__ZN4crnd25static_huffman_data_model22prepare_decoder_tablesEv
$Fb:__ZN9Texture2D23VirtualRedirectTransferER17RemapPPtrTransfer
YYe:__ZN5physx7profile8ZoneImplINS_28PxProfileNameProviderForwardEE9doAddNameEPKctb
X0f:_Array_Sort_TisIl2CppObject_TisIl2CppObject_m1915706600_gshared
B7h:_ModulusRing_Difference_m662924064
xal:_InternalEnumerator_1_MoveNext_m1869236997_gshared
grh:_CanvasUpdateRegistry_ObjectValidForUpdate_m855695984
Mzh:_InputField_set_onValueChanged_m2406388125
JLi:__ZL95Physics2D_t2540166467_CustomAttributesCacheGenerator_Physics2D_Raycast_m2303387255____maxDepth5P21CustomAttributesCache
Zy:__ZNSt3__27__sort5IR17DetailNodeYSorterP16DetailMeshBVNodeEEjT0_S5_S5_S5_S5_T_
ich:_ReadOnlyCollection_1_System_Collections_ICollection_get_SyncRoot_m2702046016_gshared
oga:__ZL22CleanupUnityWebStreamsPv
XLi:__ZL92AudioSource_t1135106623_CustomAttributesCacheGenerator_AudioSource_Play_m889724421____delay0P21CustomAttributesCache
X6b:__Z18Transfer_BlittableI18StreamedBinaryReadILb0EELb0E10ColorRGBAfEvRK29SerializationCommandArgumentsR31RuntimeSerializationCommandInfo
r5i:_ListDictionary_Add_m4276262662
kfn:__Znaj
J7f:_RIPEMD160Managed_GGG_m1639995340
ltn:_emscripten_glEnableClientState__wrapper
k7j:_Enumerator_System_Collections_IEnumerator_get_Current_m1648049763_gshared
N0m:__ZN6il2cpp6icalls8mscorlib4Mono8Security12Cryptography18KeyPairPersistence15_ProtectMachineEP12Il2CppString
umk:__Z57RuntimeInvoker_DSAParameters_t1872138834_SByte_t454417549PK10MethodInfoPvPS2_
IEg:_DateTime__cctor_m2173182045
Qxb:__ZN11GameManager15ThreadedCleanupEv
h_g:_List_1__ctor_m1337392449_gshared
owe:__ZN5physxL26solveFriction4_StaticBlockEPKNS_23PxcSolverConstraintDescERNS_16PxcSolverContextE
Vlg:_Array_System_Collections_IList_Remove_m2438892375
sRh:_TextWriter__ctor_m2225796097
RYl:_ScriptableObject_Internal_CreateScriptableObject_m1778903390
UAe:__ZN5physx30PxcGetMaterialShapeHeightFieldEPKNS_12PxsShapeCoreES2_RNS_18PxcNpThreadContextEPNS_15PxsMaterialInfoE
Bwa:__ZNK6Camera16GetStereoEnabledEv
ubh:__ZN21InterfaceFuncInvoker1I19Vector4_t2243707581iE6InvokeEjP11Il2CppClassPvi
eD:__ZN13AnimationClip9PPtrCurveaSERKS0_
Bmc:__ZN12LightManager15InitializeClassEv
WKe:__ZN5physx6shdfnd8PoolBaseINS_2Sc19ParticlePacketShapeENS0_19ReflectionAllocatorIS3_EEE12allocateSlabEv
iAj:_Light_set_shadowBias_m2553631738
Zwj:_GUIStyle_GetFontInternal_m3509743324
pqc:__ZN18ScriptingArgumentsC2Ev
oHf:__ZN5physx3Pvd17PvdPropertyFilterINS_2Sn17RepXVisitorWriterINS_23PxVehicleSuspensionDataEEEE14handleAccessorILj592ENS_22PxRepXPropertyAccessorILj592ES4_ffEEEEvRKT0_
RDm:__ZN13Il2CppHashMapINSt3__24pairIPK9FieldInfoP11Il2CppClassEEj17ReflectionMapHashIS7_E19ReflectionMapEqualsIS7_ENS0_9allocatorINS1_IK10KeyWrapperIS7_EjEEEEEC2EjRKS9_RKSB_
q4k:_ArrayReadOnlyList_1_Insert_m503707439_gshared
oon:_emscripten_glBlendFuncSeparate__wrapper
lkk:__Z52RuntimeInvoker_Single_t2076509932_Decimal_t724701077PK10MethodInfoPvPS2_
ga:invoke_viffffiiii
vci:_CipherSuiteCollection_System_Collections_IList_set_Item_m750275607
f9f:_SHA1CryptoServiceProvider__ctor_m3127563759
ps:__ZN8Vector3f8TransferI14SafeBinaryReadEEvRT_
qq:FUNCTION_TABLE_ii
Y7j:_Enumerator_MoveNext_m335649778_AdjustorThunk
Ixb:__ZN10TagManager8TransferI18StreamedBinaryReadILb0EEEEvRT_
_Xc:__Z18Transfer_BlittableI9JSONWriteLb0E8BitFieldEvRK29SerializationCommandArgumentsR31RuntimeSerializationCommandInfo
I0k:_UInt32_ToString_m3894907091_AdjustorThunk
Uwc:__Z35scripting_class_get_field_from_nameP11Il2CppClassPKc
vdm:_GenericEqualityComparer_1__ctor_m2748998164_gshared
rmn:b44
_b:invoke_diiii
Jjd:__ZNK13BoxCollider2D26GetTypeInfoVirtualInternalEv
rzd:__ZL17sweepVolumeVsMeshPKN5physx3Cct9SweepTestEPKNS0_11TouchedMeshERNS0_12SweptContactERKNS_6PxVec3ERKNS_10PxGeometryERKNS_11PxTransformEjPKNS_10PxTriangleEj
Y5j:_ShimEnumerator_get_Key_m616785465_gshared
V0h:_SmallXmlParser_Error_m1832158746
Aej:_RepeatContext_get_IsLazy_m1620488045
VYd:__ZNK5physx12NpBatchQuery19getFilterShaderDataEv
nFe:__ZN5physx2Gu31checkOverlapOBB_heightFieldGeomERKNS_10PxGeometryERKNS_11PxTransformERKNS0_3BoxE
mmn:b41
rfc:__ZN9ShaderLab20SerializedSubProgram8TransferI18StreamedBinaryReadILb0EEEEvRT_
UQh:_StreamAsyncResult_get_AsyncWaitHandle_m4218169359
Yzj:_LayerMask_op_Implicit_m2135076047
lmn:b40
hsd:__ZN5physx2Gu23findRotationMatrixFromZERKNS_6PxVec3E
D6a:__Z9EndJobSetR8JobFence11JobPriority
Dve:__ZNK5physx2Gu29EPASupportMapPairRelativeImplINS0_8CapsuleVENS0_11ConvexHullVEE18doWarmStartSupportEiiRNS_6shdfnd3aos5Vec3VES8_S8_
Hlf:__ZN2UI13CanvasManager9AddCanvasEPNS_6CanvasE
Aeb:__ZN14qsort_internal6_QSortIP21ForwardRenderPassDataiN23ForwardShaderRenderLoop18RenderObjectSorterILb0EEEEEvT_S6_T0_T1_
f6a:__ZNK6Camera22CalculateRenderingPathEv
OYc:__ZN9JSONWrite8TransferI5RectTIfEEEvRT_PKc17TransferMetaFlags
Lle:__ZN5physx13NpVolumeCache10invalidateEv
$ai:_ContentInfo_get_Content_m1802070908
OC:__ZN15SerializeTraitsIKN4math7_float4EE8TransferI14SafeBinaryReadEEvRS2_RT_
Q1b:__ZL12InvokeMethodI17RemapPPtrTransferEvRK29SerializationCommandArgumentsR31RuntimeSerializationCommandInfo
u4h:_X509Certificate_get_PublicKey_m714501701
UBh:_U3CMouseDragOutsideRectU3Ec__Iterator1_System_Collections_IEnumerator_get_Current_m561728752
Scf:_tt_sbit_decoder_load_image
dva:__Z14IsHalfRTFormat19RenderTextureFormat
ihg:_String_LastIndexOf_m290475879
Hgd:__ZN15b2DistanceJointD0Ev
Nyh:_Image_get_layoutPriority_m2151045813
X7d:__ZN5physx22NpParticleBaseTemplateINS_15PxParticleFluidENS_15NpParticleFluidEE12setPositionsEjRKNS_16PxStrideIteratorIKjEERKNS4_IKNS_6PxVec3EEE
tGk:__Z71RuntimeInvoker_Void_t1841601450_CornerU26_t4129226442_Int32_t2071877448PK10MethodInfoPvPS2_
kSh:_TextReader_Read_m975794707
xNf:__Z34setPxVehicleDriveTankMDriveSimDataPN5physx18PxVehicleDriveTankENS_21PxVehicleDriveSimDataE
BQc:__ZNSt3__24listIN10GUIManager12SortedScriptE11memory_poolIS2_EE6__sortI13OldSortScriptEENS_15__list_iteratorIS2_PvEESA_SA_jRT_
SEf:__Z51getNbPxVehicleWheelsSimData_SuspForceAppPointOffsetPKN5physx22PxVehicleWheelsSimDataE
zHd:__ZN5physx6shdfnd5ArrayIPvNS0_19ReflectionAllocatorINS_2Sc10NPhaseCore16ClothListElementEEEE15growAndPushBackERKS2_
S0k:_UInt64_System_IConvertible_ToChar_m1930853313_AdjustorThunk
Dfi:_TlsClientCertificate_SendCertificates_m1096074091
Dph:_UIBehaviour_OnCanvasHierarchyChanged_m762109874
Wxg:_SyncHashtable_get_Item_m408601391
T0i:__ZL97WaypointCircuit_t2321032056_CustomAttributesCacheGenerator_WaypointCircuit_set_Length_m2458510563P21CustomAttributesCache
Uwi:__ZL45DSA_t903174880_CustomAttributesCacheGeneratorP21CustomAttributesCache
gsj:_Graphics_GetActiveColorBuffer_m2177867124
YMe:__ZN5physx2Gu10ConvexMeshD0Ev
m2g:_Stack_1_System_Collections_ICollection_CopyTo_m2104527616_gshared
HYm:_GC_add_map_entry
elg:_StringBuilder_AppendFormat_m1666670800
qAf:__ZN5physx23PxVehicleWheels4DynData17getBinaryMetaDataERNS_14PxOutputStreamE
Ifb:__ZN18DeferredRenderLoop13RenderGBufferEP13RenderTexturePS1_b8JobFencePK25DeferredRenderLoopScratchRi
h7m:__ZNSt3__219__iostream_categoryD0Ev
azk:__Z67RuntimeInvoker_Double_t4078015681_Playable_t3667545548_Il2CppObjectPK10MethodInfoPvPS2_
rF:__ZN13AnimationClip8TransferI17RemapPPtrTransferEEvRT_
R2b:__Z18Transfer_BlittableI17RemapPPtrTransferLb1E8BitFieldEvRK29SerializationCommandArgumentsR31RuntimeSerializationCommandInfo
Z2j:_CameraMotionBlur__ctor_m286225638
wIm:__ZN6il2cpp6icalls8mscorlib6System9ThreadingL11ThreadStartEPv
g0i:__ZL125U3CResetCoroutineU3Ec__Iterator0_t1600396324_CustomAttributesCacheGenerator_U3CResetCoroutineU3Ec__Iterator0__ctor_m563973167P21CustomAttributesCache
JYa:__ZN9GfxDevice12DeleteBufferEP9GfxBuffer
Dgh:_ReadOnlyCollection_1_System_Collections_IList_Remove_m3878418841_gshared
f2j:_FireLight_Update_m4002885564
Rzh:_InputField_EnforceContentType_m1902926812
Ubb:__ZN14qsort_internal31_FindAndMovePivotToLastPositionIP15RODataDepthPassi17ROSorterDepthPassEEvT_S4_T0_T1_
PJc:__Z97Register_UnityEngine_Experimental_Director_Playable_INTERNAL_CALL_SetInputWeightFromIndexInternalv
Ava:__ZN12CachedReader10Align4ReadEv
tld:__ZN15b2WorldManifold10InitializeEPK10b2ManifoldRK11b2TransformfS5_f
Abh:_Collection_1_CopyTo_m42272870_gshared
j1j:_StandaloneInput_SetAxis_m2172940940
pAk:__Z154RuntimeInvoker_RaycastHit2D_t4063908774_Vector2_t2243707579_Vector2_t2243707579_Single_t2076509932_Int32_t2071877448_Single_t2076509932_Single_t2076509932PK10MethodInfoPvPS2_
$Lm:__ZN6il2cpp2vm9Exception28GetMarshalDirectiveExceptionEPKc
RVh:_MulticastDelegate_GetObjectData_m3187757658
Hqh:_CanvasScaler_set_referencePixelsPerUnit_m1188599784
lhh:_ReadOnlyCollection_1_System_Collections_IList_get_Item_m887129009_gshared
p_d:__ZN5physx2Sc14ConstraintCore13setBreakForceEff
DIf:__Z34setPxVehicleAutoBoxData_DownRatiosPN5physx20PxVehicleAutoBoxDataENS_18PxVehicleGearsData4EnumEf
Qla:__Z26scripting_class_is_genericP11Il2CppClass
Pjc:__ZNK28MonoBehaviourPropertyBinding12SetPPtrValueERKN11UnityEngine9Animation10BoundCurveEi
S5e:__ZN20TextRenderingPrivate8FontImpl8TransferI14SafeBinaryReadEEvRT_
zdd:__ZNSt3__27__sort4IRN10vector_mapIi22ParticleModulePropertyNS_4lessIiEENS_9allocatorINS_4pairIiS2_EEEEE13value_compareEPS7_EEjT0_SD_SD_SD_T_
SFk:__Z59RuntimeInvoker_Boolean_t3825574718_KeyValuePair_2_t38854645PK10MethodInfoPvPS2_
u_b:__ZN9Scripting35ErrorMessageForUnsupportedEnumFieldEP9FieldInfo
Xie:__ZN5physx7NpScene15removeAggregateERNS_11PxAggregateEb
exj:_GUIStyle_Draw_m4006459684
qHg:_Decimal_System_IConvertible_ToType_m3828527724_AdjustorThunk
zPf:__ZN13WheelCollider14SetMotorTorqueEf
$Cb:__ZNK10GUIElement26GetTypeInfoVirtualInternalEv
IIf:__ZN5physx3Pvd17PvdPropertyFilterINS_2Sn17RepXVisitorReaderINS_19PxVehicleClutchDataEEEE14handleAccessorILj559ENS_22PxRepXPropertyAccessorILj559ES4_ffEEEEvRKT0_
uNa:__ZN9GfxDevice17ImmediateTexCoordEifff
kBk:__Z65RuntimeInvoker_Void_t1841601450_Il2CppObject_ColorU26_t3402129837PK10MethodInfoPvPS2_
jGl:_Parser_ParseRegularExpression_m2390577313
wef:_ft_black_new
Xan:__ZNSt3__28time_putIwNS_19ostreambuf_iteratorIwNS_11char_traitsIwEEEEED2Ev
$Wh:_OperatingSystem_Clone_m1943707477
Szf:__ZNK5physx14PxVehicleDrive19getConcreteTypeNameEv
tHl:_Alternation_AddAlternative_m623421443
fFd:__ZNK5physx3Ext5JointINS_15PxDistanceJointENS_30PxDistanceJointGeneratedValuesEE12getLocalPoseENS_17PxJointActorIndex4EnumE
OMk:__Z36RuntimeInvoker_Enumerator_t402048720PK10MethodInfoPvPS2_
EYf:_Array_InternalArray__ICollection_CopyTo_TisKeyValuePair_2_t1174980068_m1818152223_gshared
Zcg:_Hash__ctor_m2554411450
pag:_SHAConstants__cctor_m2781430679
jBc:__Z51Register_UnityEngine_Camera_get_actualRenderingPathv
Nub:__ZN17FileSystemHandler4CopyER13FileEntryDataS1_
dIm:__ZN15dense_hashtableINSt3__24pairIK10KeyWrapperINS1_IP11Il2CppClassjEEES4_EES6_N6il2cpp8metadata14ArrayClassHashEN14dense_hash_mapIS6_S4_SB_NSA_17ArrayClassCompareENS0_9allocatorIS8_EEE9SelectKeyESD_SF_E12maybe_shrinkEv
Xeg:_Single_System_IConvertible_ToDateTime_m2510003459_AdjustorThunk
fJg:_Delegate_RemoveImpl_m3666700529
Ued:__Z61ParticleSystemExtensionsImpl_CUSTOM_GetSafeCollisionEventSizeP12Il2CppObject
dmn:_emscripten_glUniform4f__wrapper
M5i:_NameObjectCollectionBase_OnDeserialization_m3478980442
lyh:_Image_get_mainTexture_m1027716278
bkm:__ZL25UnresolvedVirtualCall_157P12Il2CppObject18Color32_t874517518S1_PK10MethodInfo
Dzh:_InputField_set_caretColor_m2252440840
oIe:__ZN5physx6shdfnd5ArrayINS_25PxcThresholdStreamElementENS0_19ReflectionAllocatorIS2_EEE8recreateEj
N0f:_Array_Resize_TisVector2_t2243707579_m1117258774_gshared
F7a:__ZNK6Camera16GetProjectionFarEv
_ib:__Z24InverseTransformRotationRK23TransformAccessReadOnlyRKN4math7_float4E
myi:__ZL68SecurityCriticalAttribute_t2312050089_CustomAttributesCacheGeneratorP21CustomAttributesCache
lEh:_Navigation_get_selectOnUp_m3734591810
G2:__ZN11AudioSource6UpdateEv
jWf:_Array_InternalArray__IndexOf_TisSlot_t2267560602_m1912863273_gshared
W$c:__ZN16ParticleAnimator14UpdateAnimatorERNSt3__26vectorI8Particle13stl_allocatorIS2_L18MemLabelIdentifier18ELi16EEEER19PrivateParticleInfof
v_l:_StateMachineBehaviour_OnStateExit_m1490844990
hNa:__ZN9GfxDevice21ResetDynamicResourcesEv
i1m:__ZN6il2cpp2os9FastMutex4LockEv
H4d:__ZN5physx7NpCloth21setCollisionMassScaleEf
CFe:__ZN5physx6shdfnd5ArrayINS_7PxPlaneENS0_19ReflectionAllocatorIS2_EEE8recreateEj
ew:__ZNSt3__26vectorIN22NavMeshProjectSettings15NavMeshAreaDataENS_9allocatorIS2_EEE6assignINS_11__wrap_iterIPS2_EEEENS_9enable_ifIXaasr21__is_forward_iteratorIT_EE5valuesr16is_constructibleIS2_NS_15iterator_traitsISB_E9referenceEEE5valueEvE4typeESB_SB_
Pjh:_Comparison_1_EndInvoke_m4174686984_gshared
tmj:_StreamingContext__ctor_m3063421596_AdjustorThunk
u2e:__ZN13PhysicsModule17GetRigidBodyStateERK9RigidbodyPN8IPhysics14RigidBodyStateE
svf:__ZN20UnityConnectSettings23VirtualRedirectTransferER18StreamedBinaryReadILb1EE
qgh:_ReadOnlyCollection_1_System_Collections_Generic_IListU3CTU3E_Insert_m3054305464_gshared
F7c:__ZN20ParticleSystemModule8TransferI17RemapPPtrTransferEEvRT_
pmi:__ZL70IntPtr_t_CustomAttributesCacheGenerator_IntPtr_op_Explicit_m3896766622P21CustomAttributesCache
lP:__ZN8Animator8TransferI14SafeBinaryReadEEvRT_
qwb:__ZN17GlobalGameManager23VirtualRedirectTransferER18StreamedBinaryReadILb0EE
F9d:__ZN5physx2Sc17ParticleSystemSim7releaseEb
AWf:_Array_InternalArray__IndexOf_TisTypeTag_t141209596_m2882894956_gshared
ZPl:_Slider_get_value_m4182660424
yfd:__ZNK14b2CapsuleShape5CloneEP16b2BlockAllocator
OH:__ZN17AnimationPlayable34CollectAnimatorControllerPlayablesER13dynamic_arrayIP26AnimatorControllerPlayableLj4EE
M5:__ZN16BaseVideoTexture19UpdateVideoTexturesEv
oAk:__Z79RuntimeInvoker_RaycastHit2D_t4063908774_Vector2_t2243707579_Vector2_t2243707579PK10MethodInfoPvPS2_
zGa:__ZNK16LightmapSettings23HasLightProbeTetrahedraEv
b1c:__ZNK18ColorBySpeedModule12UpdateSingleERK22ParticleSystemParticleR11ColorRGBA32
Oei:_Context_get_WriteSequenceNumber_m243492531
fLb:__ZN6Sprite23VirtualRedirectTransferER19StreamedBinaryWriteILb0EE
cZi:__ZL74ThirdPersonCharacter_t3368419691_CustomAttributesCacheGenerator_airControlP21CustomAttributesCache
bsi:__ZL51Assembly_t4268412390_CustomAttributesCacheGeneratorP21CustomAttributesCache
ahg:_String_LastIndexOfAny_m1473637802
SNc:__Z38Transform_CUSTOM_INTERNAL_set_positionP12Il2CppObjectRK8Vector3f
P2k:_Version_CompareTo_m596235198
wVg:_List_1_System_Collections_ICollection_CopyTo_m3062449209_gshared
Rxa:__ZNK9ShaderLab7Program19HasMatchingVariantsERK13dynamic_arrayI16ShaderKeywordSetLj4EE
PN:__ZN15SerializeTraitsIN4math4trsXEE8TransferI8BlobSizeEEvRS1_RT_
lf:_emscripten_glVertexPointer
SZa:__ZNSt3__26__treeI20DeviceDepthStateGLES11memcmp_lessIS1_S1_ENS_9allocatorIS1_EEE7destroyEPNS_11__tree_nodeIS1_PvEE
kvh:_Graphic__ctor_m821539719
FUg:_List_1_System_Collections_Generic_ICollectionU3CTU3E_get_IsReadOnly_m1614481629_gshared
jum:__ZN6il2cpp2vm7Runtime47RaiseExecutionEngineExceptionIfMethodIsNotFoundEPK10MethodInfo
lJj:_RectTransform_INTERNAL_get_rect_m1177342209
bfb:__Z17GetFrustumPortionPK8Vector3fffPS_
nKd:__ZNK5physx2Gu22SupportMapRelativeImplINS0_4BoxVEE18doWarmStartSupportEiRNS_6shdfnd3aos5Vec3VE
f2k:_UnauthorizedAccessException__ctor_m259001183
W8f:__ZN18VirtActionInvoker1IP30AsymmetricAlgorithm_t784058677E6InvokeEjPvS1_
aBb:__ZN5Light13AwakeFromLoadE17AwakeFromLoadMode
F0l:_TouchScreenKeyboard_set_text_m3456054179
JPi:__ZL60MovedFromAttribute_t922195725_CustomAttributesCacheGeneratorP21CustomAttributesCache
Vlm:__ZNK15dense_hashtableINSt3__24pairIK10KeyWrapperIPK22Il2CppGenericParameterEP11Il2CppClassEES6_N6il2cpp5utils11PointerHashIS4_EEN14dense_hash_mapIS6_S9_SE_NS0_8equal_toIS6_EENS0_9allocatorISA_EEE9SelectKeyESH_SJ_E5beginEv
$en:__ZNSt3__26locale5__imp11make_globalEv
xnh:_PointerEventData_get_clickCount_m4064532478
jeh:_ReadOnlyCollection_1_System_Collections_Generic_ICollectionU3CTU3E_get_IsReadOnly_m3508872969_gshared
fDb:__ZN14DirectorPlayerD0Ev
ecd:__Z9UpdateTplIL22MinMaxGradientEvalMode1EL12GradientMode0ELS1_1EEvRK23ParticleSystemParticlesP11ColorRGBA32RK14MinMaxGradientRK23OptimizedMinMaxGradient
Q7l:_UnityEvent_1_GetDelegate_m4062537313_gshared
SVl:_X509Stores_Open_m2057354563
